
kernel/minios.elf:     file format elf32-i386


Disassembly of section .text:

c0107000 <fn>:
c0107000:	55                   	push   %ebp
c0107001:	89 e5                	mov    %esp,%ebp
c0107003:	83 ec 18             	sub    $0x18,%esp
c0107006:	83 ec 08             	sub    $0x8,%esp
c0107009:	ff 75 08             	pushl  0x8(%ebp)
c010700c:	68 00 30 11 c0       	push   $0xc0113000
c0107011:	e8 0d ac 00 00       	call   c0111c23 <printf>
c0107016:	83 c4 10             	add    $0x10,%esp
c0107019:	c7 45 f4 00 00 00 00 	movl   $0x0,-0xc(%ebp)
c0107020:	eb 04                	jmp    c0107026 <fn+0x26>
c0107022:	83 45 f4 01          	addl   $0x1,-0xc(%ebp)
c0107026:	81 7d f4 ff e0 f5 05 	cmpl   $0x5f5e0ff,-0xc(%ebp)
c010702d:	7e f3                	jle    c0107022 <fn+0x22>
c010702f:	eb fe                	jmp    c010702f <fn+0x2f>

c0107031 <kernel_main>:
c0107031:	55                   	push   %ebp
c0107032:	89 e5                	mov    %esp,%ebp
c0107034:	83 ec 18             	sub    $0x18,%esp
c0107037:	e8 3e ba 00 00       	call   c0112a7a <proc_fork>
c010703c:	89 45 f4             	mov    %eax,-0xc(%ebp)
c010703f:	83 ec 08             	sub    $0x8,%esp
c0107042:	ff 75 f4             	pushl  -0xc(%ebp)
c0107045:	68 08 30 11 c0       	push   $0xc0113008
c010704a:	e8 d4 ab 00 00       	call   c0111c23 <printf>
c010704f:	83 c4 10             	add    $0x10,%esp
c0107052:	83 7d f4 00          	cmpl   $0x0,-0xc(%ebp)
c0107056:	75 24                	jne    c010707c <kernel_main+0x4b>
c0107058:	83 ec 0c             	sub    $0xc,%esp
c010705b:	6a 00                	push   $0x0
c010705d:	e8 8e 37 00 00       	call   c010a7f0 <kmalloc>
c0107062:	83 c4 10             	add    $0x10,%esp
c0107065:	89 45 f0             	mov    %eax,-0x10(%ebp)
c0107068:	83 ec 04             	sub    $0x4,%esp
c010706b:	6a 00                	push   $0x0
c010706d:	6a 00                	push   $0x0
c010706f:	68 10 30 11 c0       	push   $0xc0113010
c0107074:	e8 b0 4c 00 00       	call   c010bd29 <kproc_exec>
c0107079:	83 c4 10             	add    $0x10,%esp
c010707c:	83 ec 0c             	sub    $0xc,%esp
c010707f:	ff 75 f4             	pushl  -0xc(%ebp)
c0107082:	e8 fb b9 00 00       	call   c0112a82 <proc_wait>
c0107087:	83 c4 10             	add    $0x10,%esp
c010708a:	89 45 ec             	mov    %eax,-0x14(%ebp)
c010708d:	83 ec 08             	sub    $0x8,%esp
c0107090:	ff 75 ec             	pushl  -0x14(%ebp)
c0107093:	68 21 30 11 c0       	push   $0xc0113021
c0107098:	e8 86 ab 00 00       	call   c0111c23 <printf>
c010709d:	83 c4 10             	add    $0x10,%esp
c01070a0:	83 ec 04             	sub    $0x4,%esp
c01070a3:	6a 01                	push   $0x1
c01070a5:	8d 45 eb             	lea    -0x15(%ebp),%eax
c01070a8:	50                   	push   %eax
c01070a9:	6a 00                	push   $0x0
c01070ab:	e8 de b9 00 00       	call   c0112a8e <read>
c01070b0:	83 c4 10             	add    $0x10,%esp
c01070b3:	0f b6 45 eb          	movzbl -0x15(%ebp),%eax
c01070b7:	0f be c0             	movsbl %al,%eax
c01070ba:	83 ec 08             	sub    $0x8,%esp
c01070bd:	50                   	push   %eax
c01070be:	68 39 30 11 c0       	push   $0xc0113039
c01070c3:	e8 5b ab 00 00       	call   c0111c23 <printf>
c01070c8:	83 c4 10             	add    $0x10,%esp
c01070cb:	eb fe                	jmp    c01070cb <kernel_main+0x9a>

c01070cd <entry>:
c01070cd:	05 00 00 00 c0       	add    $0xc0000000,%eax
c01070d2:	a3 00 60 11 00       	mov    %eax,0x116000
c01070d7:	b9 00 50 11 00       	mov    $0x115000,%ecx
c01070dc:	0f 22 d9             	mov    %ecx,%cr3
c01070df:	0f 20 e1             	mov    %cr4,%ecx
c01070e2:	0b 0d 10 00 00 00    	or     0x10,%ecx
c01070e8:	0f 22 e1             	mov    %ecx,%cr4
c01070eb:	0f 20 c1             	mov    %cr0,%ecx
c01070ee:	81 c9 00 00 00 80    	or     $0x80000000,%ecx
c01070f4:	0f 22 c1             	mov    %ecx,%cr0
c01070f7:	8d 0d ff 70 10 c0    	lea    0xc01070ff,%ecx
c01070fd:	ff e1                	jmp    *%ecx

c01070ff <launch_kernel>:
c01070ff:	c7 05 00 50 11 c0 00 	movl   $0x0,0xc0115000
c0107106:	00 00 00 
c0107109:	0f 01 3d 00 00 00 00 	invlpg 0x0
c0107110:	0f 20 d9             	mov    %cr3,%ecx
c0107113:	0f 22 d9             	mov    %ecx,%cr3
c0107116:	fa                   	cli    
c0107117:	bc 00 20 10 c0       	mov    $0xc0102000,%esp
c010711c:	83 ec 0c             	sub    $0xc,%esp
c010711f:	ff 35 00 60 11 c0    	pushl  0xc0116000
c0107125:	e8 6e 00 00 00       	call   c0107198 <init_kernel>
c010712a:	fa                   	cli    
c010712b:	f4                   	hlt    

c010712c <is_idt_init>:
c010712c:	55                   	push   %ebp
c010712d:	89 e5                	mov    %esp,%ebp
c010712f:	0f b6 05 00 20 10 c0 	movzbl 0xc0102000,%eax
c0107136:	5d                   	pop    %ebp
c0107137:	c3                   	ret    

c0107138 <is_gdt_init>:
c0107138:	55                   	push   %ebp
c0107139:	89 e5                	mov    %esp,%ebp
c010713b:	0f b6 05 01 20 10 c0 	movzbl 0xc0102001,%eax
c0107142:	5d                   	pop    %ebp
c0107143:	c3                   	ret    

c0107144 <is_drivers_init>:
c0107144:	55                   	push   %ebp
c0107145:	89 e5                	mov    %esp,%ebp
c0107147:	0f b6 05 02 20 10 c0 	movzbl 0xc0102002,%eax
c010714e:	5d                   	pop    %ebp
c010714f:	c3                   	ret    

c0107150 <is_paging_init>:
c0107150:	55                   	push   %ebp
c0107151:	89 e5                	mov    %esp,%ebp
c0107153:	0f b6 05 03 20 10 c0 	movzbl 0xc0102003,%eax
c010715a:	5d                   	pop    %ebp
c010715b:	c3                   	ret    

c010715c <is_kheap_init>:
c010715c:	55                   	push   %ebp
c010715d:	89 e5                	mov    %esp,%ebp
c010715f:	0f b6 05 04 20 10 c0 	movzbl 0xc0102004,%eax
c0107166:	5d                   	pop    %ebp
c0107167:	c3                   	ret    

c0107168 <is_fs_init>:
c0107168:	55                   	push   %ebp
c0107169:	89 e5                	mov    %esp,%ebp
c010716b:	0f b6 05 05 20 10 c0 	movzbl 0xc0102005,%eax
c0107172:	5d                   	pop    %ebp
c0107173:	c3                   	ret    

c0107174 <is_threads_init>:
c0107174:	55                   	push   %ebp
c0107175:	89 e5                	mov    %esp,%ebp
c0107177:	0f b6 05 06 20 10 c0 	movzbl 0xc0102006,%eax
c010717e:	5d                   	pop    %ebp
c010717f:	c3                   	ret    

c0107180 <is_process_init>:
c0107180:	55                   	push   %ebp
c0107181:	89 e5                	mov    %esp,%ebp
c0107183:	0f b6 05 07 20 10 c0 	movzbl 0xc0102007,%eax
c010718a:	5d                   	pop    %ebp
c010718b:	c3                   	ret    

c010718c <is_all_init>:
c010718c:	55                   	push   %ebp
c010718d:	89 e5                	mov    %esp,%ebp
c010718f:	0f b6 05 08 20 10 c0 	movzbl 0xc0102008,%eax
c0107196:	5d                   	pop    %ebp
c0107197:	c3                   	ret    

c0107198 <init_kernel>:
c0107198:	55                   	push   %ebp
c0107199:	89 e5                	mov    %esp,%ebp
c010719b:	83 ec 18             	sub    $0x18,%esp
c010719e:	e8 8b 11 00 00       	call   c010832e <init_gdt>
c01071a3:	c6 05 01 20 10 c0 01 	movb   $0x1,0xc0102001
c01071aa:	e8 92 01 00 00       	call   c0107341 <init_idt>
c01071af:	c6 05 00 20 10 c0 01 	movb   $0x1,0xc0102000
c01071b6:	e8 64 16 00 00       	call   c010881f <start_init_vga_driver>
c01071bb:	8b 45 08             	mov    0x8(%ebp),%eax
c01071be:	8b 00                	mov    (%eax),%eax
c01071c0:	8b 55 08             	mov    0x8(%ebp),%edx
c01071c3:	8b 52 04             	mov    0x4(%edx),%edx
c01071c6:	81 ea 00 00 00 40    	sub    $0x40000000,%edx
c01071cc:	83 ec 08             	sub    $0x8,%esp
c01071cf:	50                   	push   %eax
c01071d0:	52                   	push   %edx
c01071d1:	e8 9c 30 00 00       	call   c010a272 <init_paging>
c01071d6:	83 c4 10             	add    $0x10,%esp
c01071d9:	c6 05 03 20 10 c0 01 	movb   $0x1,0xc0102003
c01071e0:	e8 83 33 00 00       	call   c010a568 <init_kheap>
c01071e5:	c6 05 04 20 10 c0 01 	movb   $0x1,0xc0102004
c01071ec:	e8 c6 3e 00 00       	call   c010b0b7 <init_threads>
c01071f1:	c6 05 06 20 10 c0 01 	movb   $0x1,0xc0102006
c01071f8:	e8 08 43 00 00       	call   c010b505 <init_process>
c01071fd:	c6 05 07 20 10 c0 01 	movb   $0x1,0xc0102007
c0107204:	e8 ae 12 00 00       	call   c01084b7 <init_dev>
c0107209:	e8 f4 1b 00 00       	call   c0108e02 <finish_init_vga_driver>
c010720e:	e8 a6 1c 00 00       	call   c0108eb9 <init_pic_driver>
c0107213:	e8 d7 22 00 00       	call   c01094ef <init_kbd_driver>
c0107218:	83 ec 0c             	sub    $0xc,%esp
c010721b:	d9 05 5c 30 11 c0    	flds   0xc011305c
c0107221:	8d 64 24 fc          	lea    -0x4(%esp),%esp
c0107225:	d9 1c 24             	fstps  (%esp)
c0107228:	e8 fb 24 00 00       	call   c0109728 <init_pit>
c010722d:	83 c4 10             	add    $0x10,%esp
c0107230:	d9 5d f4             	fstps  -0xc(%ebp)
c0107233:	83 ec 0c             	sub    $0xc,%esp
c0107236:	ff 75 f4             	pushl  -0xc(%ebp)
c0107239:	e8 c4 28 00 00       	call   c0109b02 <init_timer>
c010723e:	83 c4 10             	add    $0x10,%esp
c0107241:	e8 9d 25 00 00       	call   c01097e3 <init_ata_driver>
c0107246:	c6 05 02 20 10 c0 01 	movb   $0x1,0xc0102002
c010724d:	e8 46 8f 00 00       	call   c0110198 <init_fs>
c0107252:	c6 05 05 20 10 c0 01 	movb   $0x1,0xc0102005
c0107259:	83 ec 08             	sub    $0x8,%esp
c010725c:	6a 01                	push   $0x1
c010725e:	68 48 30 11 c0       	push   $0xc0113048
c0107263:	e8 c9 91 00 00       	call   c0110431 <kopen>
c0107268:	83 c4 10             	add    $0x10,%esp
c010726b:	89 45 f0             	mov    %eax,-0x10(%ebp)
c010726e:	e8 f0 36 00 00       	call   c010a963 <curr_process>
c0107273:	83 ec 08             	sub    $0x8,%esp
c0107276:	ff 75 f0             	pushl  -0x10(%ebp)
c0107279:	50                   	push   %eax
c010727a:	e8 b7 45 00 00       	call   c010b836 <proc_add_fd>
c010727f:	83 c4 10             	add    $0x10,%esp
c0107282:	83 ec 08             	sub    $0x8,%esp
c0107285:	6a 02                	push   $0x2
c0107287:	68 51 30 11 c0       	push   $0xc0113051
c010728c:	e8 a0 91 00 00       	call   c0110431 <kopen>
c0107291:	83 c4 10             	add    $0x10,%esp
c0107294:	89 45 ec             	mov    %eax,-0x14(%ebp)
c0107297:	e8 c7 36 00 00       	call   c010a963 <curr_process>
c010729c:	83 ec 08             	sub    $0x8,%esp
c010729f:	ff 75 ec             	pushl  -0x14(%ebp)
c01072a2:	50                   	push   %eax
c01072a3:	e8 8e 45 00 00       	call   c010b836 <proc_add_fd>
c01072a8:	83 c4 10             	add    $0x10,%esp
c01072ab:	c6 05 08 20 10 c0 01 	movb   $0x1,0xc0102008
c01072b2:	83 ec 0c             	sub    $0xc,%esp
c01072b5:	6a 01                	push   $0x1
c01072b7:	e8 c9 9b 00 00       	call   c0110e85 <set_interrupt_flag>
c01072bc:	83 c4 10             	add    $0x10,%esp
c01072bf:	e8 6d fd ff ff       	call   c0107031 <kernel_main>
c01072c4:	90                   	nop
c01072c5:	c9                   	leave  
c01072c6:	c3                   	ret    

c01072c7 <set_isr>:
c01072c7:	55                   	push   %ebp
c01072c8:	89 e5                	mov    %esp,%ebp
c01072ca:	8b 45 08             	mov    0x8(%ebp),%eax
c01072cd:	89 c2                	mov    %eax,%edx
c01072cf:	8b 45 0c             	mov    0xc(%ebp),%eax
c01072d2:	66 89 14 c5 20 20 10 	mov    %dx,-0x3fefdfe0(,%eax,8)
c01072d9:	c0 
c01072da:	8b 45 0c             	mov    0xc(%ebp),%eax
c01072dd:	66 c7 04 c5 22 20 10 	movw   $0x8,-0x3fefdfde(,%eax,8)
c01072e4:	c0 08 00 
c01072e7:	8b 45 0c             	mov    0xc(%ebp),%eax
c01072ea:	c6 04 c5 24 20 10 c0 	movb   $0x0,-0x3fefdfdc(,%eax,8)
c01072f1:	00 
c01072f2:	8b 45 0c             	mov    0xc(%ebp),%eax
c01072f5:	c6 04 c5 25 20 10 c0 	movb   $0x8e,-0x3fefdfdb(,%eax,8)
c01072fc:	8e 
c01072fd:	8b 45 08             	mov    0x8(%ebp),%eax
c0107300:	c1 e8 10             	shr    $0x10,%eax
c0107303:	89 c2                	mov    %eax,%edx
c0107305:	8b 45 0c             	mov    0xc(%ebp),%eax
c0107308:	66 89 14 c5 26 20 10 	mov    %dx,-0x3fefdfda(,%eax,8)
c010730f:	c0 
c0107310:	90                   	nop
c0107311:	5d                   	pop    %ebp
c0107312:	c3                   	ret    

c0107313 <set_isr_user>:
c0107313:	55                   	push   %ebp
c0107314:	89 e5                	mov    %esp,%ebp
c0107316:	ff 75 0c             	pushl  0xc(%ebp)
c0107319:	ff 75 08             	pushl  0x8(%ebp)
c010731c:	e8 a6 ff ff ff       	call   c01072c7 <set_isr>
c0107321:	83 c4 08             	add    $0x8,%esp
c0107324:	8b 45 0c             	mov    0xc(%ebp),%eax
c0107327:	0f b6 04 c5 25 20 10 	movzbl -0x3fefdfdb(,%eax,8),%eax
c010732e:	c0 
c010732f:	83 c8 60             	or     $0x60,%eax
c0107332:	89 c2                	mov    %eax,%edx
c0107334:	8b 45 0c             	mov    0xc(%ebp),%eax
c0107337:	88 14 c5 25 20 10 c0 	mov    %dl,-0x3fefdfdb(,%eax,8)
c010733e:	90                   	nop
c010733f:	c9                   	leave  
c0107340:	c3                   	ret    

c0107341 <init_idt>:
c0107341:	55                   	push   %ebp
c0107342:	89 e5                	mov    %esp,%ebp
c0107344:	83 ec 18             	sub    $0x18,%esp
c0107347:	b8 82 76 10 c0       	mov    $0xc0107682,%eax
c010734c:	6a 00                	push   $0x0
c010734e:	50                   	push   %eax
c010734f:	e8 73 ff ff ff       	call   c01072c7 <set_isr>
c0107354:	83 c4 08             	add    $0x8,%esp
c0107357:	b8 c1 76 10 c0       	mov    $0xc01076c1,%eax
c010735c:	6a 01                	push   $0x1
c010735e:	50                   	push   %eax
c010735f:	e8 63 ff ff ff       	call   c01072c7 <set_isr>
c0107364:	83 c4 08             	add    $0x8,%esp
c0107367:	b8 00 77 10 c0       	mov    $0xc0107700,%eax
c010736c:	6a 02                	push   $0x2
c010736e:	50                   	push   %eax
c010736f:	e8 53 ff ff ff       	call   c01072c7 <set_isr>
c0107374:	83 c4 08             	add    $0x8,%esp
c0107377:	b8 3f 77 10 c0       	mov    $0xc010773f,%eax
c010737c:	6a 03                	push   $0x3
c010737e:	50                   	push   %eax
c010737f:	e8 43 ff ff ff       	call   c01072c7 <set_isr>
c0107384:	83 c4 08             	add    $0x8,%esp
c0107387:	b8 7e 77 10 c0       	mov    $0xc010777e,%eax
c010738c:	6a 04                	push   $0x4
c010738e:	50                   	push   %eax
c010738f:	e8 33 ff ff ff       	call   c01072c7 <set_isr>
c0107394:	83 c4 08             	add    $0x8,%esp
c0107397:	b8 bd 77 10 c0       	mov    $0xc01077bd,%eax
c010739c:	6a 05                	push   $0x5
c010739e:	50                   	push   %eax
c010739f:	e8 23 ff ff ff       	call   c01072c7 <set_isr>
c01073a4:	83 c4 08             	add    $0x8,%esp
c01073a7:	b8 fc 77 10 c0       	mov    $0xc01077fc,%eax
c01073ac:	6a 06                	push   $0x6
c01073ae:	50                   	push   %eax
c01073af:	e8 13 ff ff ff       	call   c01072c7 <set_isr>
c01073b4:	83 c4 08             	add    $0x8,%esp
c01073b7:	b8 3b 78 10 c0       	mov    $0xc010783b,%eax
c01073bc:	6a 07                	push   $0x7
c01073be:	50                   	push   %eax
c01073bf:	e8 03 ff ff ff       	call   c01072c7 <set_isr>
c01073c4:	83 c4 08             	add    $0x8,%esp
c01073c7:	b8 7a 78 10 c0       	mov    $0xc010787a,%eax
c01073cc:	6a 08                	push   $0x8
c01073ce:	50                   	push   %eax
c01073cf:	e8 f3 fe ff ff       	call   c01072c7 <set_isr>
c01073d4:	83 c4 08             	add    $0x8,%esp
c01073d7:	b8 b7 78 10 c0       	mov    $0xc01078b7,%eax
c01073dc:	6a 09                	push   $0x9
c01073de:	50                   	push   %eax
c01073df:	e8 e3 fe ff ff       	call   c01072c7 <set_isr>
c01073e4:	83 c4 08             	add    $0x8,%esp
c01073e7:	b8 f6 78 10 c0       	mov    $0xc01078f6,%eax
c01073ec:	6a 0a                	push   $0xa
c01073ee:	50                   	push   %eax
c01073ef:	e8 d3 fe ff ff       	call   c01072c7 <set_isr>
c01073f4:	83 c4 08             	add    $0x8,%esp
c01073f7:	b8 33 79 10 c0       	mov    $0xc0107933,%eax
c01073fc:	6a 0b                	push   $0xb
c01073fe:	50                   	push   %eax
c01073ff:	e8 c3 fe ff ff       	call   c01072c7 <set_isr>
c0107404:	83 c4 08             	add    $0x8,%esp
c0107407:	b8 70 79 10 c0       	mov    $0xc0107970,%eax
c010740c:	6a 0c                	push   $0xc
c010740e:	50                   	push   %eax
c010740f:	e8 b3 fe ff ff       	call   c01072c7 <set_isr>
c0107414:	83 c4 08             	add    $0x8,%esp
c0107417:	b8 ad 79 10 c0       	mov    $0xc01079ad,%eax
c010741c:	6a 0d                	push   $0xd
c010741e:	50                   	push   %eax
c010741f:	e8 a3 fe ff ff       	call   c01072c7 <set_isr>
c0107424:	83 c4 08             	add    $0x8,%esp
c0107427:	b8 ea 79 10 c0       	mov    $0xc01079ea,%eax
c010742c:	6a 0e                	push   $0xe
c010742e:	50                   	push   %eax
c010742f:	e8 93 fe ff ff       	call   c01072c7 <set_isr>
c0107434:	83 c4 08             	add    $0x8,%esp
c0107437:	b8 27 7a 10 c0       	mov    $0xc0107a27,%eax
c010743c:	6a 0f                	push   $0xf
c010743e:	50                   	push   %eax
c010743f:	e8 83 fe ff ff       	call   c01072c7 <set_isr>
c0107444:	83 c4 08             	add    $0x8,%esp
c0107447:	b8 66 7a 10 c0       	mov    $0xc0107a66,%eax
c010744c:	6a 10                	push   $0x10
c010744e:	50                   	push   %eax
c010744f:	e8 73 fe ff ff       	call   c01072c7 <set_isr>
c0107454:	83 c4 08             	add    $0x8,%esp
c0107457:	b8 a5 7a 10 c0       	mov    $0xc0107aa5,%eax
c010745c:	6a 11                	push   $0x11
c010745e:	50                   	push   %eax
c010745f:	e8 63 fe ff ff       	call   c01072c7 <set_isr>
c0107464:	83 c4 08             	add    $0x8,%esp
c0107467:	b8 e2 7a 10 c0       	mov    $0xc0107ae2,%eax
c010746c:	6a 12                	push   $0x12
c010746e:	50                   	push   %eax
c010746f:	e8 53 fe ff ff       	call   c01072c7 <set_isr>
c0107474:	83 c4 08             	add    $0x8,%esp
c0107477:	b8 21 7b 10 c0       	mov    $0xc0107b21,%eax
c010747c:	6a 13                	push   $0x13
c010747e:	50                   	push   %eax
c010747f:	e8 43 fe ff ff       	call   c01072c7 <set_isr>
c0107484:	83 c4 08             	add    $0x8,%esp
c0107487:	b8 60 7b 10 c0       	mov    $0xc0107b60,%eax
c010748c:	6a 14                	push   $0x14
c010748e:	50                   	push   %eax
c010748f:	e8 33 fe ff ff       	call   c01072c7 <set_isr>
c0107494:	83 c4 08             	add    $0x8,%esp
c0107497:	b8 9f 7b 10 c0       	mov    $0xc0107b9f,%eax
c010749c:	6a 15                	push   $0x15
c010749e:	50                   	push   %eax
c010749f:	e8 23 fe ff ff       	call   c01072c7 <set_isr>
c01074a4:	83 c4 08             	add    $0x8,%esp
c01074a7:	b8 dc 7b 10 c0       	mov    $0xc0107bdc,%eax
c01074ac:	6a 16                	push   $0x16
c01074ae:	50                   	push   %eax
c01074af:	e8 13 fe ff ff       	call   c01072c7 <set_isr>
c01074b4:	83 c4 08             	add    $0x8,%esp
c01074b7:	b8 1b 7c 10 c0       	mov    $0xc0107c1b,%eax
c01074bc:	6a 17                	push   $0x17
c01074be:	50                   	push   %eax
c01074bf:	e8 03 fe ff ff       	call   c01072c7 <set_isr>
c01074c4:	83 c4 08             	add    $0x8,%esp
c01074c7:	b8 5a 7c 10 c0       	mov    $0xc0107c5a,%eax
c01074cc:	6a 18                	push   $0x18
c01074ce:	50                   	push   %eax
c01074cf:	e8 f3 fd ff ff       	call   c01072c7 <set_isr>
c01074d4:	83 c4 08             	add    $0x8,%esp
c01074d7:	b8 99 7c 10 c0       	mov    $0xc0107c99,%eax
c01074dc:	6a 19                	push   $0x19
c01074de:	50                   	push   %eax
c01074df:	e8 e3 fd ff ff       	call   c01072c7 <set_isr>
c01074e4:	83 c4 08             	add    $0x8,%esp
c01074e7:	b8 d8 7c 10 c0       	mov    $0xc0107cd8,%eax
c01074ec:	6a 1a                	push   $0x1a
c01074ee:	50                   	push   %eax
c01074ef:	e8 d3 fd ff ff       	call   c01072c7 <set_isr>
c01074f4:	83 c4 08             	add    $0x8,%esp
c01074f7:	b8 17 7d 10 c0       	mov    $0xc0107d17,%eax
c01074fc:	6a 1b                	push   $0x1b
c01074fe:	50                   	push   %eax
c01074ff:	e8 c3 fd ff ff       	call   c01072c7 <set_isr>
c0107504:	83 c4 08             	add    $0x8,%esp
c0107507:	b8 56 7d 10 c0       	mov    $0xc0107d56,%eax
c010750c:	6a 1c                	push   $0x1c
c010750e:	50                   	push   %eax
c010750f:	e8 b3 fd ff ff       	call   c01072c7 <set_isr>
c0107514:	83 c4 08             	add    $0x8,%esp
c0107517:	b8 95 7d 10 c0       	mov    $0xc0107d95,%eax
c010751c:	6a 1d                	push   $0x1d
c010751e:	50                   	push   %eax
c010751f:	e8 a3 fd ff ff       	call   c01072c7 <set_isr>
c0107524:	83 c4 08             	add    $0x8,%esp
c0107527:	b8 d4 7d 10 c0       	mov    $0xc0107dd4,%eax
c010752c:	6a 1e                	push   $0x1e
c010752e:	50                   	push   %eax
c010752f:	e8 93 fd ff ff       	call   c01072c7 <set_isr>
c0107534:	83 c4 08             	add    $0x8,%esp
c0107537:	b8 13 7e 10 c0       	mov    $0xc0107e13,%eax
c010753c:	6a 1f                	push   $0x1f
c010753e:	50                   	push   %eax
c010753f:	e8 83 fd ff ff       	call   c01072c7 <set_isr>
c0107544:	83 c4 08             	add    $0x8,%esp
c0107547:	b8 52 7e 10 c0       	mov    $0xc0107e52,%eax
c010754c:	6a 20                	push   $0x20
c010754e:	50                   	push   %eax
c010754f:	e8 73 fd ff ff       	call   c01072c7 <set_isr>
c0107554:	83 c4 08             	add    $0x8,%esp
c0107557:	b8 91 7e 10 c0       	mov    $0xc0107e91,%eax
c010755c:	6a 21                	push   $0x21
c010755e:	50                   	push   %eax
c010755f:	e8 63 fd ff ff       	call   c01072c7 <set_isr>
c0107564:	83 c4 08             	add    $0x8,%esp
c0107567:	b8 d0 7e 10 c0       	mov    $0xc0107ed0,%eax
c010756c:	6a 22                	push   $0x22
c010756e:	50                   	push   %eax
c010756f:	e8 53 fd ff ff       	call   c01072c7 <set_isr>
c0107574:	83 c4 08             	add    $0x8,%esp
c0107577:	b8 0f 7f 10 c0       	mov    $0xc0107f0f,%eax
c010757c:	6a 23                	push   $0x23
c010757e:	50                   	push   %eax
c010757f:	e8 43 fd ff ff       	call   c01072c7 <set_isr>
c0107584:	83 c4 08             	add    $0x8,%esp
c0107587:	b8 4e 7f 10 c0       	mov    $0xc0107f4e,%eax
c010758c:	6a 24                	push   $0x24
c010758e:	50                   	push   %eax
c010758f:	e8 33 fd ff ff       	call   c01072c7 <set_isr>
c0107594:	83 c4 08             	add    $0x8,%esp
c0107597:	b8 8d 7f 10 c0       	mov    $0xc0107f8d,%eax
c010759c:	6a 25                	push   $0x25
c010759e:	50                   	push   %eax
c010759f:	e8 23 fd ff ff       	call   c01072c7 <set_isr>
c01075a4:	83 c4 08             	add    $0x8,%esp
c01075a7:	b8 cc 7f 10 c0       	mov    $0xc0107fcc,%eax
c01075ac:	6a 26                	push   $0x26
c01075ae:	50                   	push   %eax
c01075af:	e8 13 fd ff ff       	call   c01072c7 <set_isr>
c01075b4:	83 c4 08             	add    $0x8,%esp
c01075b7:	b8 0b 80 10 c0       	mov    $0xc010800b,%eax
c01075bc:	6a 27                	push   $0x27
c01075be:	50                   	push   %eax
c01075bf:	e8 03 fd ff ff       	call   c01072c7 <set_isr>
c01075c4:	83 c4 08             	add    $0x8,%esp
c01075c7:	b8 4a 80 10 c0       	mov    $0xc010804a,%eax
c01075cc:	6a 28                	push   $0x28
c01075ce:	50                   	push   %eax
c01075cf:	e8 f3 fc ff ff       	call   c01072c7 <set_isr>
c01075d4:	83 c4 08             	add    $0x8,%esp
c01075d7:	b8 89 80 10 c0       	mov    $0xc0108089,%eax
c01075dc:	6a 29                	push   $0x29
c01075de:	50                   	push   %eax
c01075df:	e8 e3 fc ff ff       	call   c01072c7 <set_isr>
c01075e4:	83 c4 08             	add    $0x8,%esp
c01075e7:	b8 c8 80 10 c0       	mov    $0xc01080c8,%eax
c01075ec:	6a 2a                	push   $0x2a
c01075ee:	50                   	push   %eax
c01075ef:	e8 d3 fc ff ff       	call   c01072c7 <set_isr>
c01075f4:	83 c4 08             	add    $0x8,%esp
c01075f7:	b8 07 81 10 c0       	mov    $0xc0108107,%eax
c01075fc:	6a 2b                	push   $0x2b
c01075fe:	50                   	push   %eax
c01075ff:	e8 c3 fc ff ff       	call   c01072c7 <set_isr>
c0107604:	83 c4 08             	add    $0x8,%esp
c0107607:	b8 46 81 10 c0       	mov    $0xc0108146,%eax
c010760c:	6a 2c                	push   $0x2c
c010760e:	50                   	push   %eax
c010760f:	e8 b3 fc ff ff       	call   c01072c7 <set_isr>
c0107614:	83 c4 08             	add    $0x8,%esp
c0107617:	b8 85 81 10 c0       	mov    $0xc0108185,%eax
c010761c:	6a 2d                	push   $0x2d
c010761e:	50                   	push   %eax
c010761f:	e8 a3 fc ff ff       	call   c01072c7 <set_isr>
c0107624:	83 c4 08             	add    $0x8,%esp
c0107627:	b8 c4 81 10 c0       	mov    $0xc01081c4,%eax
c010762c:	6a 2e                	push   $0x2e
c010762e:	50                   	push   %eax
c010762f:	e8 93 fc ff ff       	call   c01072c7 <set_isr>
c0107634:	83 c4 08             	add    $0x8,%esp
c0107637:	b8 03 82 10 c0       	mov    $0xc0108203,%eax
c010763c:	6a 2f                	push   $0x2f
c010763e:	50                   	push   %eax
c010763f:	e8 83 fc ff ff       	call   c01072c7 <set_isr>
c0107644:	83 c4 08             	add    $0x8,%esp
c0107647:	b8 42 82 10 c0       	mov    $0xc0108242,%eax
c010764c:	68 80 00 00 00       	push   $0x80
c0107651:	50                   	push   %eax
c0107652:	e8 bc fc ff ff       	call   c0107313 <set_isr_user>
c0107657:	83 c4 08             	add    $0x8,%esp
c010765a:	66 c7 45 f0 ff 07    	movw   $0x7ff,-0x10(%ebp)
c0107660:	b8 20 20 10 c0       	mov    $0xc0102020,%eax
c0107665:	89 45 f2             	mov    %eax,-0xe(%ebp)
c0107668:	8d 45 f0             	lea    -0x10(%ebp),%eax
c010766b:	83 ec 0c             	sub    $0xc,%esp
c010766e:	50                   	push   %eax
c010766f:	e8 06 00 00 00       	call   c010767a <load_idtr>
c0107674:	83 c4 10             	add    $0x10,%esp
c0107677:	90                   	nop
c0107678:	c9                   	leave  
c0107679:	c3                   	ret    

c010767a <load_idtr>:
c010767a:	8b 54 24 04          	mov    0x4(%esp),%edx
c010767e:	0f 01 1a             	lidtl  (%edx)
c0107681:	c3                   	ret    

c0107682 <isr0>:
c0107682:	fa                   	cli    
c0107683:	6a 00                	push   $0x0
c0107685:	6a 00                	push   $0x0
c0107687:	57                   	push   %edi
c0107688:	56                   	push   %esi
c0107689:	50                   	push   %eax
c010768a:	53                   	push   %ebx
c010768b:	51                   	push   %ecx
c010768c:	52                   	push   %edx
c010768d:	55                   	push   %ebp
c010768e:	1e                   	push   %ds
c010768f:	06                   	push   %es
c0107690:	0f a0                	push   %fs
c0107692:	0f a8                	push   %gs
c0107694:	66 b8 10 00          	mov    $0x10,%ax
c0107698:	8e d8                	mov    %eax,%ds
c010769a:	8e c0                	mov    %eax,%es
c010769c:	8e e0                	mov    %eax,%fs
c010769e:	8e e8                	mov    %eax,%gs
c01076a0:	89 e5                	mov    %esp,%ebp
c01076a2:	83 e4 f0             	and    $0xfffffff0,%esp
c01076a5:	83 ec 0c             	sub    $0xc,%esp
c01076a8:	55                   	push   %ebp
c01076a9:	e8 6a 96 00 00       	call   c0110d18 <handle_interrupt>
c01076ae:	89 ec                	mov    %ebp,%esp
c01076b0:	0f a9                	pop    %gs
c01076b2:	0f a1                	pop    %fs
c01076b4:	07                   	pop    %es
c01076b5:	1f                   	pop    %ds
c01076b6:	5d                   	pop    %ebp
c01076b7:	5a                   	pop    %edx
c01076b8:	59                   	pop    %ecx
c01076b9:	5b                   	pop    %ebx
c01076ba:	58                   	pop    %eax
c01076bb:	5e                   	pop    %esi
c01076bc:	5f                   	pop    %edi
c01076bd:	83 c4 08             	add    $0x8,%esp
c01076c0:	cf                   	iret   

c01076c1 <isr1>:
c01076c1:	fa                   	cli    
c01076c2:	6a 00                	push   $0x0
c01076c4:	6a 01                	push   $0x1
c01076c6:	57                   	push   %edi
c01076c7:	56                   	push   %esi
c01076c8:	50                   	push   %eax
c01076c9:	53                   	push   %ebx
c01076ca:	51                   	push   %ecx
c01076cb:	52                   	push   %edx
c01076cc:	55                   	push   %ebp
c01076cd:	1e                   	push   %ds
c01076ce:	06                   	push   %es
c01076cf:	0f a0                	push   %fs
c01076d1:	0f a8                	push   %gs
c01076d3:	66 b8 10 00          	mov    $0x10,%ax
c01076d7:	8e d8                	mov    %eax,%ds
c01076d9:	8e c0                	mov    %eax,%es
c01076db:	8e e0                	mov    %eax,%fs
c01076dd:	8e e8                	mov    %eax,%gs
c01076df:	89 e5                	mov    %esp,%ebp
c01076e1:	83 e4 f0             	and    $0xfffffff0,%esp
c01076e4:	83 ec 0c             	sub    $0xc,%esp
c01076e7:	55                   	push   %ebp
c01076e8:	e8 2b 96 00 00       	call   c0110d18 <handle_interrupt>
c01076ed:	89 ec                	mov    %ebp,%esp
c01076ef:	0f a9                	pop    %gs
c01076f1:	0f a1                	pop    %fs
c01076f3:	07                   	pop    %es
c01076f4:	1f                   	pop    %ds
c01076f5:	5d                   	pop    %ebp
c01076f6:	5a                   	pop    %edx
c01076f7:	59                   	pop    %ecx
c01076f8:	5b                   	pop    %ebx
c01076f9:	58                   	pop    %eax
c01076fa:	5e                   	pop    %esi
c01076fb:	5f                   	pop    %edi
c01076fc:	83 c4 08             	add    $0x8,%esp
c01076ff:	cf                   	iret   

c0107700 <isr2>:
c0107700:	fa                   	cli    
c0107701:	6a 00                	push   $0x0
c0107703:	6a 02                	push   $0x2
c0107705:	57                   	push   %edi
c0107706:	56                   	push   %esi
c0107707:	50                   	push   %eax
c0107708:	53                   	push   %ebx
c0107709:	51                   	push   %ecx
c010770a:	52                   	push   %edx
c010770b:	55                   	push   %ebp
c010770c:	1e                   	push   %ds
c010770d:	06                   	push   %es
c010770e:	0f a0                	push   %fs
c0107710:	0f a8                	push   %gs
c0107712:	66 b8 10 00          	mov    $0x10,%ax
c0107716:	8e d8                	mov    %eax,%ds
c0107718:	8e c0                	mov    %eax,%es
c010771a:	8e e0                	mov    %eax,%fs
c010771c:	8e e8                	mov    %eax,%gs
c010771e:	89 e5                	mov    %esp,%ebp
c0107720:	83 e4 f0             	and    $0xfffffff0,%esp
c0107723:	83 ec 0c             	sub    $0xc,%esp
c0107726:	55                   	push   %ebp
c0107727:	e8 ec 95 00 00       	call   c0110d18 <handle_interrupt>
c010772c:	89 ec                	mov    %ebp,%esp
c010772e:	0f a9                	pop    %gs
c0107730:	0f a1                	pop    %fs
c0107732:	07                   	pop    %es
c0107733:	1f                   	pop    %ds
c0107734:	5d                   	pop    %ebp
c0107735:	5a                   	pop    %edx
c0107736:	59                   	pop    %ecx
c0107737:	5b                   	pop    %ebx
c0107738:	58                   	pop    %eax
c0107739:	5e                   	pop    %esi
c010773a:	5f                   	pop    %edi
c010773b:	83 c4 08             	add    $0x8,%esp
c010773e:	cf                   	iret   

c010773f <isr3>:
c010773f:	fa                   	cli    
c0107740:	6a 00                	push   $0x0
c0107742:	6a 03                	push   $0x3
c0107744:	57                   	push   %edi
c0107745:	56                   	push   %esi
c0107746:	50                   	push   %eax
c0107747:	53                   	push   %ebx
c0107748:	51                   	push   %ecx
c0107749:	52                   	push   %edx
c010774a:	55                   	push   %ebp
c010774b:	1e                   	push   %ds
c010774c:	06                   	push   %es
c010774d:	0f a0                	push   %fs
c010774f:	0f a8                	push   %gs
c0107751:	66 b8 10 00          	mov    $0x10,%ax
c0107755:	8e d8                	mov    %eax,%ds
c0107757:	8e c0                	mov    %eax,%es
c0107759:	8e e0                	mov    %eax,%fs
c010775b:	8e e8                	mov    %eax,%gs
c010775d:	89 e5                	mov    %esp,%ebp
c010775f:	83 e4 f0             	and    $0xfffffff0,%esp
c0107762:	83 ec 0c             	sub    $0xc,%esp
c0107765:	55                   	push   %ebp
c0107766:	e8 ad 95 00 00       	call   c0110d18 <handle_interrupt>
c010776b:	89 ec                	mov    %ebp,%esp
c010776d:	0f a9                	pop    %gs
c010776f:	0f a1                	pop    %fs
c0107771:	07                   	pop    %es
c0107772:	1f                   	pop    %ds
c0107773:	5d                   	pop    %ebp
c0107774:	5a                   	pop    %edx
c0107775:	59                   	pop    %ecx
c0107776:	5b                   	pop    %ebx
c0107777:	58                   	pop    %eax
c0107778:	5e                   	pop    %esi
c0107779:	5f                   	pop    %edi
c010777a:	83 c4 08             	add    $0x8,%esp
c010777d:	cf                   	iret   

c010777e <isr4>:
c010777e:	fa                   	cli    
c010777f:	6a 00                	push   $0x0
c0107781:	6a 04                	push   $0x4
c0107783:	57                   	push   %edi
c0107784:	56                   	push   %esi
c0107785:	50                   	push   %eax
c0107786:	53                   	push   %ebx
c0107787:	51                   	push   %ecx
c0107788:	52                   	push   %edx
c0107789:	55                   	push   %ebp
c010778a:	1e                   	push   %ds
c010778b:	06                   	push   %es
c010778c:	0f a0                	push   %fs
c010778e:	0f a8                	push   %gs
c0107790:	66 b8 10 00          	mov    $0x10,%ax
c0107794:	8e d8                	mov    %eax,%ds
c0107796:	8e c0                	mov    %eax,%es
c0107798:	8e e0                	mov    %eax,%fs
c010779a:	8e e8                	mov    %eax,%gs
c010779c:	89 e5                	mov    %esp,%ebp
c010779e:	83 e4 f0             	and    $0xfffffff0,%esp
c01077a1:	83 ec 0c             	sub    $0xc,%esp
c01077a4:	55                   	push   %ebp
c01077a5:	e8 6e 95 00 00       	call   c0110d18 <handle_interrupt>
c01077aa:	89 ec                	mov    %ebp,%esp
c01077ac:	0f a9                	pop    %gs
c01077ae:	0f a1                	pop    %fs
c01077b0:	07                   	pop    %es
c01077b1:	1f                   	pop    %ds
c01077b2:	5d                   	pop    %ebp
c01077b3:	5a                   	pop    %edx
c01077b4:	59                   	pop    %ecx
c01077b5:	5b                   	pop    %ebx
c01077b6:	58                   	pop    %eax
c01077b7:	5e                   	pop    %esi
c01077b8:	5f                   	pop    %edi
c01077b9:	83 c4 08             	add    $0x8,%esp
c01077bc:	cf                   	iret   

c01077bd <isr5>:
c01077bd:	fa                   	cli    
c01077be:	6a 00                	push   $0x0
c01077c0:	6a 05                	push   $0x5
c01077c2:	57                   	push   %edi
c01077c3:	56                   	push   %esi
c01077c4:	50                   	push   %eax
c01077c5:	53                   	push   %ebx
c01077c6:	51                   	push   %ecx
c01077c7:	52                   	push   %edx
c01077c8:	55                   	push   %ebp
c01077c9:	1e                   	push   %ds
c01077ca:	06                   	push   %es
c01077cb:	0f a0                	push   %fs
c01077cd:	0f a8                	push   %gs
c01077cf:	66 b8 10 00          	mov    $0x10,%ax
c01077d3:	8e d8                	mov    %eax,%ds
c01077d5:	8e c0                	mov    %eax,%es
c01077d7:	8e e0                	mov    %eax,%fs
c01077d9:	8e e8                	mov    %eax,%gs
c01077db:	89 e5                	mov    %esp,%ebp
c01077dd:	83 e4 f0             	and    $0xfffffff0,%esp
c01077e0:	83 ec 0c             	sub    $0xc,%esp
c01077e3:	55                   	push   %ebp
c01077e4:	e8 2f 95 00 00       	call   c0110d18 <handle_interrupt>
c01077e9:	89 ec                	mov    %ebp,%esp
c01077eb:	0f a9                	pop    %gs
c01077ed:	0f a1                	pop    %fs
c01077ef:	07                   	pop    %es
c01077f0:	1f                   	pop    %ds
c01077f1:	5d                   	pop    %ebp
c01077f2:	5a                   	pop    %edx
c01077f3:	59                   	pop    %ecx
c01077f4:	5b                   	pop    %ebx
c01077f5:	58                   	pop    %eax
c01077f6:	5e                   	pop    %esi
c01077f7:	5f                   	pop    %edi
c01077f8:	83 c4 08             	add    $0x8,%esp
c01077fb:	cf                   	iret   

c01077fc <isr6>:
c01077fc:	fa                   	cli    
c01077fd:	6a 00                	push   $0x0
c01077ff:	6a 06                	push   $0x6
c0107801:	57                   	push   %edi
c0107802:	56                   	push   %esi
c0107803:	50                   	push   %eax
c0107804:	53                   	push   %ebx
c0107805:	51                   	push   %ecx
c0107806:	52                   	push   %edx
c0107807:	55                   	push   %ebp
c0107808:	1e                   	push   %ds
c0107809:	06                   	push   %es
c010780a:	0f a0                	push   %fs
c010780c:	0f a8                	push   %gs
c010780e:	66 b8 10 00          	mov    $0x10,%ax
c0107812:	8e d8                	mov    %eax,%ds
c0107814:	8e c0                	mov    %eax,%es
c0107816:	8e e0                	mov    %eax,%fs
c0107818:	8e e8                	mov    %eax,%gs
c010781a:	89 e5                	mov    %esp,%ebp
c010781c:	83 e4 f0             	and    $0xfffffff0,%esp
c010781f:	83 ec 0c             	sub    $0xc,%esp
c0107822:	55                   	push   %ebp
c0107823:	e8 f0 94 00 00       	call   c0110d18 <handle_interrupt>
c0107828:	89 ec                	mov    %ebp,%esp
c010782a:	0f a9                	pop    %gs
c010782c:	0f a1                	pop    %fs
c010782e:	07                   	pop    %es
c010782f:	1f                   	pop    %ds
c0107830:	5d                   	pop    %ebp
c0107831:	5a                   	pop    %edx
c0107832:	59                   	pop    %ecx
c0107833:	5b                   	pop    %ebx
c0107834:	58                   	pop    %eax
c0107835:	5e                   	pop    %esi
c0107836:	5f                   	pop    %edi
c0107837:	83 c4 08             	add    $0x8,%esp
c010783a:	cf                   	iret   

c010783b <isr7>:
c010783b:	fa                   	cli    
c010783c:	6a 00                	push   $0x0
c010783e:	6a 07                	push   $0x7
c0107840:	57                   	push   %edi
c0107841:	56                   	push   %esi
c0107842:	50                   	push   %eax
c0107843:	53                   	push   %ebx
c0107844:	51                   	push   %ecx
c0107845:	52                   	push   %edx
c0107846:	55                   	push   %ebp
c0107847:	1e                   	push   %ds
c0107848:	06                   	push   %es
c0107849:	0f a0                	push   %fs
c010784b:	0f a8                	push   %gs
c010784d:	66 b8 10 00          	mov    $0x10,%ax
c0107851:	8e d8                	mov    %eax,%ds
c0107853:	8e c0                	mov    %eax,%es
c0107855:	8e e0                	mov    %eax,%fs
c0107857:	8e e8                	mov    %eax,%gs
c0107859:	89 e5                	mov    %esp,%ebp
c010785b:	83 e4 f0             	and    $0xfffffff0,%esp
c010785e:	83 ec 0c             	sub    $0xc,%esp
c0107861:	55                   	push   %ebp
c0107862:	e8 b1 94 00 00       	call   c0110d18 <handle_interrupt>
c0107867:	89 ec                	mov    %ebp,%esp
c0107869:	0f a9                	pop    %gs
c010786b:	0f a1                	pop    %fs
c010786d:	07                   	pop    %es
c010786e:	1f                   	pop    %ds
c010786f:	5d                   	pop    %ebp
c0107870:	5a                   	pop    %edx
c0107871:	59                   	pop    %ecx
c0107872:	5b                   	pop    %ebx
c0107873:	58                   	pop    %eax
c0107874:	5e                   	pop    %esi
c0107875:	5f                   	pop    %edi
c0107876:	83 c4 08             	add    $0x8,%esp
c0107879:	cf                   	iret   

c010787a <isr8>:
c010787a:	fa                   	cli    
c010787b:	6a 08                	push   $0x8
c010787d:	57                   	push   %edi
c010787e:	56                   	push   %esi
c010787f:	50                   	push   %eax
c0107880:	53                   	push   %ebx
c0107881:	51                   	push   %ecx
c0107882:	52                   	push   %edx
c0107883:	55                   	push   %ebp
c0107884:	1e                   	push   %ds
c0107885:	06                   	push   %es
c0107886:	0f a0                	push   %fs
c0107888:	0f a8                	push   %gs
c010788a:	66 b8 10 00          	mov    $0x10,%ax
c010788e:	8e d8                	mov    %eax,%ds
c0107890:	8e c0                	mov    %eax,%es
c0107892:	8e e0                	mov    %eax,%fs
c0107894:	8e e8                	mov    %eax,%gs
c0107896:	89 e5                	mov    %esp,%ebp
c0107898:	83 e4 f0             	and    $0xfffffff0,%esp
c010789b:	83 ec 0c             	sub    $0xc,%esp
c010789e:	55                   	push   %ebp
c010789f:	e8 74 94 00 00       	call   c0110d18 <handle_interrupt>
c01078a4:	89 ec                	mov    %ebp,%esp
c01078a6:	0f a9                	pop    %gs
c01078a8:	0f a1                	pop    %fs
c01078aa:	07                   	pop    %es
c01078ab:	1f                   	pop    %ds
c01078ac:	5d                   	pop    %ebp
c01078ad:	5a                   	pop    %edx
c01078ae:	59                   	pop    %ecx
c01078af:	5b                   	pop    %ebx
c01078b0:	58                   	pop    %eax
c01078b1:	5e                   	pop    %esi
c01078b2:	5f                   	pop    %edi
c01078b3:	83 c4 08             	add    $0x8,%esp
c01078b6:	cf                   	iret   

c01078b7 <isr9>:
c01078b7:	fa                   	cli    
c01078b8:	6a 00                	push   $0x0
c01078ba:	6a 09                	push   $0x9
c01078bc:	57                   	push   %edi
c01078bd:	56                   	push   %esi
c01078be:	50                   	push   %eax
c01078bf:	53                   	push   %ebx
c01078c0:	51                   	push   %ecx
c01078c1:	52                   	push   %edx
c01078c2:	55                   	push   %ebp
c01078c3:	1e                   	push   %ds
c01078c4:	06                   	push   %es
c01078c5:	0f a0                	push   %fs
c01078c7:	0f a8                	push   %gs
c01078c9:	66 b8 10 00          	mov    $0x10,%ax
c01078cd:	8e d8                	mov    %eax,%ds
c01078cf:	8e c0                	mov    %eax,%es
c01078d1:	8e e0                	mov    %eax,%fs
c01078d3:	8e e8                	mov    %eax,%gs
c01078d5:	89 e5                	mov    %esp,%ebp
c01078d7:	83 e4 f0             	and    $0xfffffff0,%esp
c01078da:	83 ec 0c             	sub    $0xc,%esp
c01078dd:	55                   	push   %ebp
c01078de:	e8 35 94 00 00       	call   c0110d18 <handle_interrupt>
c01078e3:	89 ec                	mov    %ebp,%esp
c01078e5:	0f a9                	pop    %gs
c01078e7:	0f a1                	pop    %fs
c01078e9:	07                   	pop    %es
c01078ea:	1f                   	pop    %ds
c01078eb:	5d                   	pop    %ebp
c01078ec:	5a                   	pop    %edx
c01078ed:	59                   	pop    %ecx
c01078ee:	5b                   	pop    %ebx
c01078ef:	58                   	pop    %eax
c01078f0:	5e                   	pop    %esi
c01078f1:	5f                   	pop    %edi
c01078f2:	83 c4 08             	add    $0x8,%esp
c01078f5:	cf                   	iret   

c01078f6 <isr10>:
c01078f6:	fa                   	cli    
c01078f7:	6a 0a                	push   $0xa
c01078f9:	57                   	push   %edi
c01078fa:	56                   	push   %esi
c01078fb:	50                   	push   %eax
c01078fc:	53                   	push   %ebx
c01078fd:	51                   	push   %ecx
c01078fe:	52                   	push   %edx
c01078ff:	55                   	push   %ebp
c0107900:	1e                   	push   %ds
c0107901:	06                   	push   %es
c0107902:	0f a0                	push   %fs
c0107904:	0f a8                	push   %gs
c0107906:	66 b8 10 00          	mov    $0x10,%ax
c010790a:	8e d8                	mov    %eax,%ds
c010790c:	8e c0                	mov    %eax,%es
c010790e:	8e e0                	mov    %eax,%fs
c0107910:	8e e8                	mov    %eax,%gs
c0107912:	89 e5                	mov    %esp,%ebp
c0107914:	83 e4 f0             	and    $0xfffffff0,%esp
c0107917:	83 ec 0c             	sub    $0xc,%esp
c010791a:	55                   	push   %ebp
c010791b:	e8 f8 93 00 00       	call   c0110d18 <handle_interrupt>
c0107920:	89 ec                	mov    %ebp,%esp
c0107922:	0f a9                	pop    %gs
c0107924:	0f a1                	pop    %fs
c0107926:	07                   	pop    %es
c0107927:	1f                   	pop    %ds
c0107928:	5d                   	pop    %ebp
c0107929:	5a                   	pop    %edx
c010792a:	59                   	pop    %ecx
c010792b:	5b                   	pop    %ebx
c010792c:	58                   	pop    %eax
c010792d:	5e                   	pop    %esi
c010792e:	5f                   	pop    %edi
c010792f:	83 c4 08             	add    $0x8,%esp
c0107932:	cf                   	iret   

c0107933 <isr11>:
c0107933:	fa                   	cli    
c0107934:	6a 0b                	push   $0xb
c0107936:	57                   	push   %edi
c0107937:	56                   	push   %esi
c0107938:	50                   	push   %eax
c0107939:	53                   	push   %ebx
c010793a:	51                   	push   %ecx
c010793b:	52                   	push   %edx
c010793c:	55                   	push   %ebp
c010793d:	1e                   	push   %ds
c010793e:	06                   	push   %es
c010793f:	0f a0                	push   %fs
c0107941:	0f a8                	push   %gs
c0107943:	66 b8 10 00          	mov    $0x10,%ax
c0107947:	8e d8                	mov    %eax,%ds
c0107949:	8e c0                	mov    %eax,%es
c010794b:	8e e0                	mov    %eax,%fs
c010794d:	8e e8                	mov    %eax,%gs
c010794f:	89 e5                	mov    %esp,%ebp
c0107951:	83 e4 f0             	and    $0xfffffff0,%esp
c0107954:	83 ec 0c             	sub    $0xc,%esp
c0107957:	55                   	push   %ebp
c0107958:	e8 bb 93 00 00       	call   c0110d18 <handle_interrupt>
c010795d:	89 ec                	mov    %ebp,%esp
c010795f:	0f a9                	pop    %gs
c0107961:	0f a1                	pop    %fs
c0107963:	07                   	pop    %es
c0107964:	1f                   	pop    %ds
c0107965:	5d                   	pop    %ebp
c0107966:	5a                   	pop    %edx
c0107967:	59                   	pop    %ecx
c0107968:	5b                   	pop    %ebx
c0107969:	58                   	pop    %eax
c010796a:	5e                   	pop    %esi
c010796b:	5f                   	pop    %edi
c010796c:	83 c4 08             	add    $0x8,%esp
c010796f:	cf                   	iret   

c0107970 <isr12>:
c0107970:	fa                   	cli    
c0107971:	6a 0c                	push   $0xc
c0107973:	57                   	push   %edi
c0107974:	56                   	push   %esi
c0107975:	50                   	push   %eax
c0107976:	53                   	push   %ebx
c0107977:	51                   	push   %ecx
c0107978:	52                   	push   %edx
c0107979:	55                   	push   %ebp
c010797a:	1e                   	push   %ds
c010797b:	06                   	push   %es
c010797c:	0f a0                	push   %fs
c010797e:	0f a8                	push   %gs
c0107980:	66 b8 10 00          	mov    $0x10,%ax
c0107984:	8e d8                	mov    %eax,%ds
c0107986:	8e c0                	mov    %eax,%es
c0107988:	8e e0                	mov    %eax,%fs
c010798a:	8e e8                	mov    %eax,%gs
c010798c:	89 e5                	mov    %esp,%ebp
c010798e:	83 e4 f0             	and    $0xfffffff0,%esp
c0107991:	83 ec 0c             	sub    $0xc,%esp
c0107994:	55                   	push   %ebp
c0107995:	e8 7e 93 00 00       	call   c0110d18 <handle_interrupt>
c010799a:	89 ec                	mov    %ebp,%esp
c010799c:	0f a9                	pop    %gs
c010799e:	0f a1                	pop    %fs
c01079a0:	07                   	pop    %es
c01079a1:	1f                   	pop    %ds
c01079a2:	5d                   	pop    %ebp
c01079a3:	5a                   	pop    %edx
c01079a4:	59                   	pop    %ecx
c01079a5:	5b                   	pop    %ebx
c01079a6:	58                   	pop    %eax
c01079a7:	5e                   	pop    %esi
c01079a8:	5f                   	pop    %edi
c01079a9:	83 c4 08             	add    $0x8,%esp
c01079ac:	cf                   	iret   

c01079ad <isr13>:
c01079ad:	fa                   	cli    
c01079ae:	6a 0d                	push   $0xd
c01079b0:	57                   	push   %edi
c01079b1:	56                   	push   %esi
c01079b2:	50                   	push   %eax
c01079b3:	53                   	push   %ebx
c01079b4:	51                   	push   %ecx
c01079b5:	52                   	push   %edx
c01079b6:	55                   	push   %ebp
c01079b7:	1e                   	push   %ds
c01079b8:	06                   	push   %es
c01079b9:	0f a0                	push   %fs
c01079bb:	0f a8                	push   %gs
c01079bd:	66 b8 10 00          	mov    $0x10,%ax
c01079c1:	8e d8                	mov    %eax,%ds
c01079c3:	8e c0                	mov    %eax,%es
c01079c5:	8e e0                	mov    %eax,%fs
c01079c7:	8e e8                	mov    %eax,%gs
c01079c9:	89 e5                	mov    %esp,%ebp
c01079cb:	83 e4 f0             	and    $0xfffffff0,%esp
c01079ce:	83 ec 0c             	sub    $0xc,%esp
c01079d1:	55                   	push   %ebp
c01079d2:	e8 41 93 00 00       	call   c0110d18 <handle_interrupt>
c01079d7:	89 ec                	mov    %ebp,%esp
c01079d9:	0f a9                	pop    %gs
c01079db:	0f a1                	pop    %fs
c01079dd:	07                   	pop    %es
c01079de:	1f                   	pop    %ds
c01079df:	5d                   	pop    %ebp
c01079e0:	5a                   	pop    %edx
c01079e1:	59                   	pop    %ecx
c01079e2:	5b                   	pop    %ebx
c01079e3:	58                   	pop    %eax
c01079e4:	5e                   	pop    %esi
c01079e5:	5f                   	pop    %edi
c01079e6:	83 c4 08             	add    $0x8,%esp
c01079e9:	cf                   	iret   

c01079ea <isr14>:
c01079ea:	fa                   	cli    
c01079eb:	6a 0e                	push   $0xe
c01079ed:	57                   	push   %edi
c01079ee:	56                   	push   %esi
c01079ef:	50                   	push   %eax
c01079f0:	53                   	push   %ebx
c01079f1:	51                   	push   %ecx
c01079f2:	52                   	push   %edx
c01079f3:	55                   	push   %ebp
c01079f4:	1e                   	push   %ds
c01079f5:	06                   	push   %es
c01079f6:	0f a0                	push   %fs
c01079f8:	0f a8                	push   %gs
c01079fa:	66 b8 10 00          	mov    $0x10,%ax
c01079fe:	8e d8                	mov    %eax,%ds
c0107a00:	8e c0                	mov    %eax,%es
c0107a02:	8e e0                	mov    %eax,%fs
c0107a04:	8e e8                	mov    %eax,%gs
c0107a06:	89 e5                	mov    %esp,%ebp
c0107a08:	83 e4 f0             	and    $0xfffffff0,%esp
c0107a0b:	83 ec 0c             	sub    $0xc,%esp
c0107a0e:	55                   	push   %ebp
c0107a0f:	e8 04 93 00 00       	call   c0110d18 <handle_interrupt>
c0107a14:	89 ec                	mov    %ebp,%esp
c0107a16:	0f a9                	pop    %gs
c0107a18:	0f a1                	pop    %fs
c0107a1a:	07                   	pop    %es
c0107a1b:	1f                   	pop    %ds
c0107a1c:	5d                   	pop    %ebp
c0107a1d:	5a                   	pop    %edx
c0107a1e:	59                   	pop    %ecx
c0107a1f:	5b                   	pop    %ebx
c0107a20:	58                   	pop    %eax
c0107a21:	5e                   	pop    %esi
c0107a22:	5f                   	pop    %edi
c0107a23:	83 c4 08             	add    $0x8,%esp
c0107a26:	cf                   	iret   

c0107a27 <isr15>:
c0107a27:	fa                   	cli    
c0107a28:	6a 00                	push   $0x0
c0107a2a:	6a 0f                	push   $0xf
c0107a2c:	57                   	push   %edi
c0107a2d:	56                   	push   %esi
c0107a2e:	50                   	push   %eax
c0107a2f:	53                   	push   %ebx
c0107a30:	51                   	push   %ecx
c0107a31:	52                   	push   %edx
c0107a32:	55                   	push   %ebp
c0107a33:	1e                   	push   %ds
c0107a34:	06                   	push   %es
c0107a35:	0f a0                	push   %fs
c0107a37:	0f a8                	push   %gs
c0107a39:	66 b8 10 00          	mov    $0x10,%ax
c0107a3d:	8e d8                	mov    %eax,%ds
c0107a3f:	8e c0                	mov    %eax,%es
c0107a41:	8e e0                	mov    %eax,%fs
c0107a43:	8e e8                	mov    %eax,%gs
c0107a45:	89 e5                	mov    %esp,%ebp
c0107a47:	83 e4 f0             	and    $0xfffffff0,%esp
c0107a4a:	83 ec 0c             	sub    $0xc,%esp
c0107a4d:	55                   	push   %ebp
c0107a4e:	e8 c5 92 00 00       	call   c0110d18 <handle_interrupt>
c0107a53:	89 ec                	mov    %ebp,%esp
c0107a55:	0f a9                	pop    %gs
c0107a57:	0f a1                	pop    %fs
c0107a59:	07                   	pop    %es
c0107a5a:	1f                   	pop    %ds
c0107a5b:	5d                   	pop    %ebp
c0107a5c:	5a                   	pop    %edx
c0107a5d:	59                   	pop    %ecx
c0107a5e:	5b                   	pop    %ebx
c0107a5f:	58                   	pop    %eax
c0107a60:	5e                   	pop    %esi
c0107a61:	5f                   	pop    %edi
c0107a62:	83 c4 08             	add    $0x8,%esp
c0107a65:	cf                   	iret   

c0107a66 <isr16>:
c0107a66:	fa                   	cli    
c0107a67:	6a 00                	push   $0x0
c0107a69:	6a 10                	push   $0x10
c0107a6b:	57                   	push   %edi
c0107a6c:	56                   	push   %esi
c0107a6d:	50                   	push   %eax
c0107a6e:	53                   	push   %ebx
c0107a6f:	51                   	push   %ecx
c0107a70:	52                   	push   %edx
c0107a71:	55                   	push   %ebp
c0107a72:	1e                   	push   %ds
c0107a73:	06                   	push   %es
c0107a74:	0f a0                	push   %fs
c0107a76:	0f a8                	push   %gs
c0107a78:	66 b8 10 00          	mov    $0x10,%ax
c0107a7c:	8e d8                	mov    %eax,%ds
c0107a7e:	8e c0                	mov    %eax,%es
c0107a80:	8e e0                	mov    %eax,%fs
c0107a82:	8e e8                	mov    %eax,%gs
c0107a84:	89 e5                	mov    %esp,%ebp
c0107a86:	83 e4 f0             	and    $0xfffffff0,%esp
c0107a89:	83 ec 0c             	sub    $0xc,%esp
c0107a8c:	55                   	push   %ebp
c0107a8d:	e8 86 92 00 00       	call   c0110d18 <handle_interrupt>
c0107a92:	89 ec                	mov    %ebp,%esp
c0107a94:	0f a9                	pop    %gs
c0107a96:	0f a1                	pop    %fs
c0107a98:	07                   	pop    %es
c0107a99:	1f                   	pop    %ds
c0107a9a:	5d                   	pop    %ebp
c0107a9b:	5a                   	pop    %edx
c0107a9c:	59                   	pop    %ecx
c0107a9d:	5b                   	pop    %ebx
c0107a9e:	58                   	pop    %eax
c0107a9f:	5e                   	pop    %esi
c0107aa0:	5f                   	pop    %edi
c0107aa1:	83 c4 08             	add    $0x8,%esp
c0107aa4:	cf                   	iret   

c0107aa5 <isr17>:
c0107aa5:	fa                   	cli    
c0107aa6:	6a 11                	push   $0x11
c0107aa8:	57                   	push   %edi
c0107aa9:	56                   	push   %esi
c0107aaa:	50                   	push   %eax
c0107aab:	53                   	push   %ebx
c0107aac:	51                   	push   %ecx
c0107aad:	52                   	push   %edx
c0107aae:	55                   	push   %ebp
c0107aaf:	1e                   	push   %ds
c0107ab0:	06                   	push   %es
c0107ab1:	0f a0                	push   %fs
c0107ab3:	0f a8                	push   %gs
c0107ab5:	66 b8 10 00          	mov    $0x10,%ax
c0107ab9:	8e d8                	mov    %eax,%ds
c0107abb:	8e c0                	mov    %eax,%es
c0107abd:	8e e0                	mov    %eax,%fs
c0107abf:	8e e8                	mov    %eax,%gs
c0107ac1:	89 e5                	mov    %esp,%ebp
c0107ac3:	83 e4 f0             	and    $0xfffffff0,%esp
c0107ac6:	83 ec 0c             	sub    $0xc,%esp
c0107ac9:	55                   	push   %ebp
c0107aca:	e8 49 92 00 00       	call   c0110d18 <handle_interrupt>
c0107acf:	89 ec                	mov    %ebp,%esp
c0107ad1:	0f a9                	pop    %gs
c0107ad3:	0f a1                	pop    %fs
c0107ad5:	07                   	pop    %es
c0107ad6:	1f                   	pop    %ds
c0107ad7:	5d                   	pop    %ebp
c0107ad8:	5a                   	pop    %edx
c0107ad9:	59                   	pop    %ecx
c0107ada:	5b                   	pop    %ebx
c0107adb:	58                   	pop    %eax
c0107adc:	5e                   	pop    %esi
c0107add:	5f                   	pop    %edi
c0107ade:	83 c4 08             	add    $0x8,%esp
c0107ae1:	cf                   	iret   

c0107ae2 <isr18>:
c0107ae2:	fa                   	cli    
c0107ae3:	6a 00                	push   $0x0
c0107ae5:	6a 12                	push   $0x12
c0107ae7:	57                   	push   %edi
c0107ae8:	56                   	push   %esi
c0107ae9:	50                   	push   %eax
c0107aea:	53                   	push   %ebx
c0107aeb:	51                   	push   %ecx
c0107aec:	52                   	push   %edx
c0107aed:	55                   	push   %ebp
c0107aee:	1e                   	push   %ds
c0107aef:	06                   	push   %es
c0107af0:	0f a0                	push   %fs
c0107af2:	0f a8                	push   %gs
c0107af4:	66 b8 10 00          	mov    $0x10,%ax
c0107af8:	8e d8                	mov    %eax,%ds
c0107afa:	8e c0                	mov    %eax,%es
c0107afc:	8e e0                	mov    %eax,%fs
c0107afe:	8e e8                	mov    %eax,%gs
c0107b00:	89 e5                	mov    %esp,%ebp
c0107b02:	83 e4 f0             	and    $0xfffffff0,%esp
c0107b05:	83 ec 0c             	sub    $0xc,%esp
c0107b08:	55                   	push   %ebp
c0107b09:	e8 0a 92 00 00       	call   c0110d18 <handle_interrupt>
c0107b0e:	89 ec                	mov    %ebp,%esp
c0107b10:	0f a9                	pop    %gs
c0107b12:	0f a1                	pop    %fs
c0107b14:	07                   	pop    %es
c0107b15:	1f                   	pop    %ds
c0107b16:	5d                   	pop    %ebp
c0107b17:	5a                   	pop    %edx
c0107b18:	59                   	pop    %ecx
c0107b19:	5b                   	pop    %ebx
c0107b1a:	58                   	pop    %eax
c0107b1b:	5e                   	pop    %esi
c0107b1c:	5f                   	pop    %edi
c0107b1d:	83 c4 08             	add    $0x8,%esp
c0107b20:	cf                   	iret   

c0107b21 <isr19>:
c0107b21:	fa                   	cli    
c0107b22:	6a 00                	push   $0x0
c0107b24:	6a 13                	push   $0x13
c0107b26:	57                   	push   %edi
c0107b27:	56                   	push   %esi
c0107b28:	50                   	push   %eax
c0107b29:	53                   	push   %ebx
c0107b2a:	51                   	push   %ecx
c0107b2b:	52                   	push   %edx
c0107b2c:	55                   	push   %ebp
c0107b2d:	1e                   	push   %ds
c0107b2e:	06                   	push   %es
c0107b2f:	0f a0                	push   %fs
c0107b31:	0f a8                	push   %gs
c0107b33:	66 b8 10 00          	mov    $0x10,%ax
c0107b37:	8e d8                	mov    %eax,%ds
c0107b39:	8e c0                	mov    %eax,%es
c0107b3b:	8e e0                	mov    %eax,%fs
c0107b3d:	8e e8                	mov    %eax,%gs
c0107b3f:	89 e5                	mov    %esp,%ebp
c0107b41:	83 e4 f0             	and    $0xfffffff0,%esp
c0107b44:	83 ec 0c             	sub    $0xc,%esp
c0107b47:	55                   	push   %ebp
c0107b48:	e8 cb 91 00 00       	call   c0110d18 <handle_interrupt>
c0107b4d:	89 ec                	mov    %ebp,%esp
c0107b4f:	0f a9                	pop    %gs
c0107b51:	0f a1                	pop    %fs
c0107b53:	07                   	pop    %es
c0107b54:	1f                   	pop    %ds
c0107b55:	5d                   	pop    %ebp
c0107b56:	5a                   	pop    %edx
c0107b57:	59                   	pop    %ecx
c0107b58:	5b                   	pop    %ebx
c0107b59:	58                   	pop    %eax
c0107b5a:	5e                   	pop    %esi
c0107b5b:	5f                   	pop    %edi
c0107b5c:	83 c4 08             	add    $0x8,%esp
c0107b5f:	cf                   	iret   

c0107b60 <isr20>:
c0107b60:	fa                   	cli    
c0107b61:	6a 00                	push   $0x0
c0107b63:	6a 14                	push   $0x14
c0107b65:	57                   	push   %edi
c0107b66:	56                   	push   %esi
c0107b67:	50                   	push   %eax
c0107b68:	53                   	push   %ebx
c0107b69:	51                   	push   %ecx
c0107b6a:	52                   	push   %edx
c0107b6b:	55                   	push   %ebp
c0107b6c:	1e                   	push   %ds
c0107b6d:	06                   	push   %es
c0107b6e:	0f a0                	push   %fs
c0107b70:	0f a8                	push   %gs
c0107b72:	66 b8 10 00          	mov    $0x10,%ax
c0107b76:	8e d8                	mov    %eax,%ds
c0107b78:	8e c0                	mov    %eax,%es
c0107b7a:	8e e0                	mov    %eax,%fs
c0107b7c:	8e e8                	mov    %eax,%gs
c0107b7e:	89 e5                	mov    %esp,%ebp
c0107b80:	83 e4 f0             	and    $0xfffffff0,%esp
c0107b83:	83 ec 0c             	sub    $0xc,%esp
c0107b86:	55                   	push   %ebp
c0107b87:	e8 8c 91 00 00       	call   c0110d18 <handle_interrupt>
c0107b8c:	89 ec                	mov    %ebp,%esp
c0107b8e:	0f a9                	pop    %gs
c0107b90:	0f a1                	pop    %fs
c0107b92:	07                   	pop    %es
c0107b93:	1f                   	pop    %ds
c0107b94:	5d                   	pop    %ebp
c0107b95:	5a                   	pop    %edx
c0107b96:	59                   	pop    %ecx
c0107b97:	5b                   	pop    %ebx
c0107b98:	58                   	pop    %eax
c0107b99:	5e                   	pop    %esi
c0107b9a:	5f                   	pop    %edi
c0107b9b:	83 c4 08             	add    $0x8,%esp
c0107b9e:	cf                   	iret   

c0107b9f <isr21>:
c0107b9f:	fa                   	cli    
c0107ba0:	6a 15                	push   $0x15
c0107ba2:	57                   	push   %edi
c0107ba3:	56                   	push   %esi
c0107ba4:	50                   	push   %eax
c0107ba5:	53                   	push   %ebx
c0107ba6:	51                   	push   %ecx
c0107ba7:	52                   	push   %edx
c0107ba8:	55                   	push   %ebp
c0107ba9:	1e                   	push   %ds
c0107baa:	06                   	push   %es
c0107bab:	0f a0                	push   %fs
c0107bad:	0f a8                	push   %gs
c0107baf:	66 b8 10 00          	mov    $0x10,%ax
c0107bb3:	8e d8                	mov    %eax,%ds
c0107bb5:	8e c0                	mov    %eax,%es
c0107bb7:	8e e0                	mov    %eax,%fs
c0107bb9:	8e e8                	mov    %eax,%gs
c0107bbb:	89 e5                	mov    %esp,%ebp
c0107bbd:	83 e4 f0             	and    $0xfffffff0,%esp
c0107bc0:	83 ec 0c             	sub    $0xc,%esp
c0107bc3:	55                   	push   %ebp
c0107bc4:	e8 4f 91 00 00       	call   c0110d18 <handle_interrupt>
c0107bc9:	89 ec                	mov    %ebp,%esp
c0107bcb:	0f a9                	pop    %gs
c0107bcd:	0f a1                	pop    %fs
c0107bcf:	07                   	pop    %es
c0107bd0:	1f                   	pop    %ds
c0107bd1:	5d                   	pop    %ebp
c0107bd2:	5a                   	pop    %edx
c0107bd3:	59                   	pop    %ecx
c0107bd4:	5b                   	pop    %ebx
c0107bd5:	58                   	pop    %eax
c0107bd6:	5e                   	pop    %esi
c0107bd7:	5f                   	pop    %edi
c0107bd8:	83 c4 08             	add    $0x8,%esp
c0107bdb:	cf                   	iret   

c0107bdc <isr22>:
c0107bdc:	fa                   	cli    
c0107bdd:	6a 00                	push   $0x0
c0107bdf:	6a 16                	push   $0x16
c0107be1:	57                   	push   %edi
c0107be2:	56                   	push   %esi
c0107be3:	50                   	push   %eax
c0107be4:	53                   	push   %ebx
c0107be5:	51                   	push   %ecx
c0107be6:	52                   	push   %edx
c0107be7:	55                   	push   %ebp
c0107be8:	1e                   	push   %ds
c0107be9:	06                   	push   %es
c0107bea:	0f a0                	push   %fs
c0107bec:	0f a8                	push   %gs
c0107bee:	66 b8 10 00          	mov    $0x10,%ax
c0107bf2:	8e d8                	mov    %eax,%ds
c0107bf4:	8e c0                	mov    %eax,%es
c0107bf6:	8e e0                	mov    %eax,%fs
c0107bf8:	8e e8                	mov    %eax,%gs
c0107bfa:	89 e5                	mov    %esp,%ebp
c0107bfc:	83 e4 f0             	and    $0xfffffff0,%esp
c0107bff:	83 ec 0c             	sub    $0xc,%esp
c0107c02:	55                   	push   %ebp
c0107c03:	e8 10 91 00 00       	call   c0110d18 <handle_interrupt>
c0107c08:	89 ec                	mov    %ebp,%esp
c0107c0a:	0f a9                	pop    %gs
c0107c0c:	0f a1                	pop    %fs
c0107c0e:	07                   	pop    %es
c0107c0f:	1f                   	pop    %ds
c0107c10:	5d                   	pop    %ebp
c0107c11:	5a                   	pop    %edx
c0107c12:	59                   	pop    %ecx
c0107c13:	5b                   	pop    %ebx
c0107c14:	58                   	pop    %eax
c0107c15:	5e                   	pop    %esi
c0107c16:	5f                   	pop    %edi
c0107c17:	83 c4 08             	add    $0x8,%esp
c0107c1a:	cf                   	iret   

c0107c1b <isr23>:
c0107c1b:	fa                   	cli    
c0107c1c:	6a 00                	push   $0x0
c0107c1e:	6a 17                	push   $0x17
c0107c20:	57                   	push   %edi
c0107c21:	56                   	push   %esi
c0107c22:	50                   	push   %eax
c0107c23:	53                   	push   %ebx
c0107c24:	51                   	push   %ecx
c0107c25:	52                   	push   %edx
c0107c26:	55                   	push   %ebp
c0107c27:	1e                   	push   %ds
c0107c28:	06                   	push   %es
c0107c29:	0f a0                	push   %fs
c0107c2b:	0f a8                	push   %gs
c0107c2d:	66 b8 10 00          	mov    $0x10,%ax
c0107c31:	8e d8                	mov    %eax,%ds
c0107c33:	8e c0                	mov    %eax,%es
c0107c35:	8e e0                	mov    %eax,%fs
c0107c37:	8e e8                	mov    %eax,%gs
c0107c39:	89 e5                	mov    %esp,%ebp
c0107c3b:	83 e4 f0             	and    $0xfffffff0,%esp
c0107c3e:	83 ec 0c             	sub    $0xc,%esp
c0107c41:	55                   	push   %ebp
c0107c42:	e8 d1 90 00 00       	call   c0110d18 <handle_interrupt>
c0107c47:	89 ec                	mov    %ebp,%esp
c0107c49:	0f a9                	pop    %gs
c0107c4b:	0f a1                	pop    %fs
c0107c4d:	07                   	pop    %es
c0107c4e:	1f                   	pop    %ds
c0107c4f:	5d                   	pop    %ebp
c0107c50:	5a                   	pop    %edx
c0107c51:	59                   	pop    %ecx
c0107c52:	5b                   	pop    %ebx
c0107c53:	58                   	pop    %eax
c0107c54:	5e                   	pop    %esi
c0107c55:	5f                   	pop    %edi
c0107c56:	83 c4 08             	add    $0x8,%esp
c0107c59:	cf                   	iret   

c0107c5a <isr24>:
c0107c5a:	fa                   	cli    
c0107c5b:	6a 00                	push   $0x0
c0107c5d:	6a 18                	push   $0x18
c0107c5f:	57                   	push   %edi
c0107c60:	56                   	push   %esi
c0107c61:	50                   	push   %eax
c0107c62:	53                   	push   %ebx
c0107c63:	51                   	push   %ecx
c0107c64:	52                   	push   %edx
c0107c65:	55                   	push   %ebp
c0107c66:	1e                   	push   %ds
c0107c67:	06                   	push   %es
c0107c68:	0f a0                	push   %fs
c0107c6a:	0f a8                	push   %gs
c0107c6c:	66 b8 10 00          	mov    $0x10,%ax
c0107c70:	8e d8                	mov    %eax,%ds
c0107c72:	8e c0                	mov    %eax,%es
c0107c74:	8e e0                	mov    %eax,%fs
c0107c76:	8e e8                	mov    %eax,%gs
c0107c78:	89 e5                	mov    %esp,%ebp
c0107c7a:	83 e4 f0             	and    $0xfffffff0,%esp
c0107c7d:	83 ec 0c             	sub    $0xc,%esp
c0107c80:	55                   	push   %ebp
c0107c81:	e8 92 90 00 00       	call   c0110d18 <handle_interrupt>
c0107c86:	89 ec                	mov    %ebp,%esp
c0107c88:	0f a9                	pop    %gs
c0107c8a:	0f a1                	pop    %fs
c0107c8c:	07                   	pop    %es
c0107c8d:	1f                   	pop    %ds
c0107c8e:	5d                   	pop    %ebp
c0107c8f:	5a                   	pop    %edx
c0107c90:	59                   	pop    %ecx
c0107c91:	5b                   	pop    %ebx
c0107c92:	58                   	pop    %eax
c0107c93:	5e                   	pop    %esi
c0107c94:	5f                   	pop    %edi
c0107c95:	83 c4 08             	add    $0x8,%esp
c0107c98:	cf                   	iret   

c0107c99 <isr25>:
c0107c99:	fa                   	cli    
c0107c9a:	6a 00                	push   $0x0
c0107c9c:	6a 19                	push   $0x19
c0107c9e:	57                   	push   %edi
c0107c9f:	56                   	push   %esi
c0107ca0:	50                   	push   %eax
c0107ca1:	53                   	push   %ebx
c0107ca2:	51                   	push   %ecx
c0107ca3:	52                   	push   %edx
c0107ca4:	55                   	push   %ebp
c0107ca5:	1e                   	push   %ds
c0107ca6:	06                   	push   %es
c0107ca7:	0f a0                	push   %fs
c0107ca9:	0f a8                	push   %gs
c0107cab:	66 b8 10 00          	mov    $0x10,%ax
c0107caf:	8e d8                	mov    %eax,%ds
c0107cb1:	8e c0                	mov    %eax,%es
c0107cb3:	8e e0                	mov    %eax,%fs
c0107cb5:	8e e8                	mov    %eax,%gs
c0107cb7:	89 e5                	mov    %esp,%ebp
c0107cb9:	83 e4 f0             	and    $0xfffffff0,%esp
c0107cbc:	83 ec 0c             	sub    $0xc,%esp
c0107cbf:	55                   	push   %ebp
c0107cc0:	e8 53 90 00 00       	call   c0110d18 <handle_interrupt>
c0107cc5:	89 ec                	mov    %ebp,%esp
c0107cc7:	0f a9                	pop    %gs
c0107cc9:	0f a1                	pop    %fs
c0107ccb:	07                   	pop    %es
c0107ccc:	1f                   	pop    %ds
c0107ccd:	5d                   	pop    %ebp
c0107cce:	5a                   	pop    %edx
c0107ccf:	59                   	pop    %ecx
c0107cd0:	5b                   	pop    %ebx
c0107cd1:	58                   	pop    %eax
c0107cd2:	5e                   	pop    %esi
c0107cd3:	5f                   	pop    %edi
c0107cd4:	83 c4 08             	add    $0x8,%esp
c0107cd7:	cf                   	iret   

c0107cd8 <isr26>:
c0107cd8:	fa                   	cli    
c0107cd9:	6a 00                	push   $0x0
c0107cdb:	6a 1a                	push   $0x1a
c0107cdd:	57                   	push   %edi
c0107cde:	56                   	push   %esi
c0107cdf:	50                   	push   %eax
c0107ce0:	53                   	push   %ebx
c0107ce1:	51                   	push   %ecx
c0107ce2:	52                   	push   %edx
c0107ce3:	55                   	push   %ebp
c0107ce4:	1e                   	push   %ds
c0107ce5:	06                   	push   %es
c0107ce6:	0f a0                	push   %fs
c0107ce8:	0f a8                	push   %gs
c0107cea:	66 b8 10 00          	mov    $0x10,%ax
c0107cee:	8e d8                	mov    %eax,%ds
c0107cf0:	8e c0                	mov    %eax,%es
c0107cf2:	8e e0                	mov    %eax,%fs
c0107cf4:	8e e8                	mov    %eax,%gs
c0107cf6:	89 e5                	mov    %esp,%ebp
c0107cf8:	83 e4 f0             	and    $0xfffffff0,%esp
c0107cfb:	83 ec 0c             	sub    $0xc,%esp
c0107cfe:	55                   	push   %ebp
c0107cff:	e8 14 90 00 00       	call   c0110d18 <handle_interrupt>
c0107d04:	89 ec                	mov    %ebp,%esp
c0107d06:	0f a9                	pop    %gs
c0107d08:	0f a1                	pop    %fs
c0107d0a:	07                   	pop    %es
c0107d0b:	1f                   	pop    %ds
c0107d0c:	5d                   	pop    %ebp
c0107d0d:	5a                   	pop    %edx
c0107d0e:	59                   	pop    %ecx
c0107d0f:	5b                   	pop    %ebx
c0107d10:	58                   	pop    %eax
c0107d11:	5e                   	pop    %esi
c0107d12:	5f                   	pop    %edi
c0107d13:	83 c4 08             	add    $0x8,%esp
c0107d16:	cf                   	iret   

c0107d17 <isr27>:
c0107d17:	fa                   	cli    
c0107d18:	6a 00                	push   $0x0
c0107d1a:	6a 1b                	push   $0x1b
c0107d1c:	57                   	push   %edi
c0107d1d:	56                   	push   %esi
c0107d1e:	50                   	push   %eax
c0107d1f:	53                   	push   %ebx
c0107d20:	51                   	push   %ecx
c0107d21:	52                   	push   %edx
c0107d22:	55                   	push   %ebp
c0107d23:	1e                   	push   %ds
c0107d24:	06                   	push   %es
c0107d25:	0f a0                	push   %fs
c0107d27:	0f a8                	push   %gs
c0107d29:	66 b8 10 00          	mov    $0x10,%ax
c0107d2d:	8e d8                	mov    %eax,%ds
c0107d2f:	8e c0                	mov    %eax,%es
c0107d31:	8e e0                	mov    %eax,%fs
c0107d33:	8e e8                	mov    %eax,%gs
c0107d35:	89 e5                	mov    %esp,%ebp
c0107d37:	83 e4 f0             	and    $0xfffffff0,%esp
c0107d3a:	83 ec 0c             	sub    $0xc,%esp
c0107d3d:	55                   	push   %ebp
c0107d3e:	e8 d5 8f 00 00       	call   c0110d18 <handle_interrupt>
c0107d43:	89 ec                	mov    %ebp,%esp
c0107d45:	0f a9                	pop    %gs
c0107d47:	0f a1                	pop    %fs
c0107d49:	07                   	pop    %es
c0107d4a:	1f                   	pop    %ds
c0107d4b:	5d                   	pop    %ebp
c0107d4c:	5a                   	pop    %edx
c0107d4d:	59                   	pop    %ecx
c0107d4e:	5b                   	pop    %ebx
c0107d4f:	58                   	pop    %eax
c0107d50:	5e                   	pop    %esi
c0107d51:	5f                   	pop    %edi
c0107d52:	83 c4 08             	add    $0x8,%esp
c0107d55:	cf                   	iret   

c0107d56 <isr28>:
c0107d56:	fa                   	cli    
c0107d57:	6a 00                	push   $0x0
c0107d59:	6a 1c                	push   $0x1c
c0107d5b:	57                   	push   %edi
c0107d5c:	56                   	push   %esi
c0107d5d:	50                   	push   %eax
c0107d5e:	53                   	push   %ebx
c0107d5f:	51                   	push   %ecx
c0107d60:	52                   	push   %edx
c0107d61:	55                   	push   %ebp
c0107d62:	1e                   	push   %ds
c0107d63:	06                   	push   %es
c0107d64:	0f a0                	push   %fs
c0107d66:	0f a8                	push   %gs
c0107d68:	66 b8 10 00          	mov    $0x10,%ax
c0107d6c:	8e d8                	mov    %eax,%ds
c0107d6e:	8e c0                	mov    %eax,%es
c0107d70:	8e e0                	mov    %eax,%fs
c0107d72:	8e e8                	mov    %eax,%gs
c0107d74:	89 e5                	mov    %esp,%ebp
c0107d76:	83 e4 f0             	and    $0xfffffff0,%esp
c0107d79:	83 ec 0c             	sub    $0xc,%esp
c0107d7c:	55                   	push   %ebp
c0107d7d:	e8 96 8f 00 00       	call   c0110d18 <handle_interrupt>
c0107d82:	89 ec                	mov    %ebp,%esp
c0107d84:	0f a9                	pop    %gs
c0107d86:	0f a1                	pop    %fs
c0107d88:	07                   	pop    %es
c0107d89:	1f                   	pop    %ds
c0107d8a:	5d                   	pop    %ebp
c0107d8b:	5a                   	pop    %edx
c0107d8c:	59                   	pop    %ecx
c0107d8d:	5b                   	pop    %ebx
c0107d8e:	58                   	pop    %eax
c0107d8f:	5e                   	pop    %esi
c0107d90:	5f                   	pop    %edi
c0107d91:	83 c4 08             	add    $0x8,%esp
c0107d94:	cf                   	iret   

c0107d95 <isr29>:
c0107d95:	fa                   	cli    
c0107d96:	6a 00                	push   $0x0
c0107d98:	6a 1d                	push   $0x1d
c0107d9a:	57                   	push   %edi
c0107d9b:	56                   	push   %esi
c0107d9c:	50                   	push   %eax
c0107d9d:	53                   	push   %ebx
c0107d9e:	51                   	push   %ecx
c0107d9f:	52                   	push   %edx
c0107da0:	55                   	push   %ebp
c0107da1:	1e                   	push   %ds
c0107da2:	06                   	push   %es
c0107da3:	0f a0                	push   %fs
c0107da5:	0f a8                	push   %gs
c0107da7:	66 b8 10 00          	mov    $0x10,%ax
c0107dab:	8e d8                	mov    %eax,%ds
c0107dad:	8e c0                	mov    %eax,%es
c0107daf:	8e e0                	mov    %eax,%fs
c0107db1:	8e e8                	mov    %eax,%gs
c0107db3:	89 e5                	mov    %esp,%ebp
c0107db5:	83 e4 f0             	and    $0xfffffff0,%esp
c0107db8:	83 ec 0c             	sub    $0xc,%esp
c0107dbb:	55                   	push   %ebp
c0107dbc:	e8 57 8f 00 00       	call   c0110d18 <handle_interrupt>
c0107dc1:	89 ec                	mov    %ebp,%esp
c0107dc3:	0f a9                	pop    %gs
c0107dc5:	0f a1                	pop    %fs
c0107dc7:	07                   	pop    %es
c0107dc8:	1f                   	pop    %ds
c0107dc9:	5d                   	pop    %ebp
c0107dca:	5a                   	pop    %edx
c0107dcb:	59                   	pop    %ecx
c0107dcc:	5b                   	pop    %ebx
c0107dcd:	58                   	pop    %eax
c0107dce:	5e                   	pop    %esi
c0107dcf:	5f                   	pop    %edi
c0107dd0:	83 c4 08             	add    $0x8,%esp
c0107dd3:	cf                   	iret   

c0107dd4 <isr30>:
c0107dd4:	fa                   	cli    
c0107dd5:	6a 00                	push   $0x0
c0107dd7:	6a 1e                	push   $0x1e
c0107dd9:	57                   	push   %edi
c0107dda:	56                   	push   %esi
c0107ddb:	50                   	push   %eax
c0107ddc:	53                   	push   %ebx
c0107ddd:	51                   	push   %ecx
c0107dde:	52                   	push   %edx
c0107ddf:	55                   	push   %ebp
c0107de0:	1e                   	push   %ds
c0107de1:	06                   	push   %es
c0107de2:	0f a0                	push   %fs
c0107de4:	0f a8                	push   %gs
c0107de6:	66 b8 10 00          	mov    $0x10,%ax
c0107dea:	8e d8                	mov    %eax,%ds
c0107dec:	8e c0                	mov    %eax,%es
c0107dee:	8e e0                	mov    %eax,%fs
c0107df0:	8e e8                	mov    %eax,%gs
c0107df2:	89 e5                	mov    %esp,%ebp
c0107df4:	83 e4 f0             	and    $0xfffffff0,%esp
c0107df7:	83 ec 0c             	sub    $0xc,%esp
c0107dfa:	55                   	push   %ebp
c0107dfb:	e8 18 8f 00 00       	call   c0110d18 <handle_interrupt>
c0107e00:	89 ec                	mov    %ebp,%esp
c0107e02:	0f a9                	pop    %gs
c0107e04:	0f a1                	pop    %fs
c0107e06:	07                   	pop    %es
c0107e07:	1f                   	pop    %ds
c0107e08:	5d                   	pop    %ebp
c0107e09:	5a                   	pop    %edx
c0107e0a:	59                   	pop    %ecx
c0107e0b:	5b                   	pop    %ebx
c0107e0c:	58                   	pop    %eax
c0107e0d:	5e                   	pop    %esi
c0107e0e:	5f                   	pop    %edi
c0107e0f:	83 c4 08             	add    $0x8,%esp
c0107e12:	cf                   	iret   

c0107e13 <isr31>:
c0107e13:	fa                   	cli    
c0107e14:	6a 00                	push   $0x0
c0107e16:	6a 1f                	push   $0x1f
c0107e18:	57                   	push   %edi
c0107e19:	56                   	push   %esi
c0107e1a:	50                   	push   %eax
c0107e1b:	53                   	push   %ebx
c0107e1c:	51                   	push   %ecx
c0107e1d:	52                   	push   %edx
c0107e1e:	55                   	push   %ebp
c0107e1f:	1e                   	push   %ds
c0107e20:	06                   	push   %es
c0107e21:	0f a0                	push   %fs
c0107e23:	0f a8                	push   %gs
c0107e25:	66 b8 10 00          	mov    $0x10,%ax
c0107e29:	8e d8                	mov    %eax,%ds
c0107e2b:	8e c0                	mov    %eax,%es
c0107e2d:	8e e0                	mov    %eax,%fs
c0107e2f:	8e e8                	mov    %eax,%gs
c0107e31:	89 e5                	mov    %esp,%ebp
c0107e33:	83 e4 f0             	and    $0xfffffff0,%esp
c0107e36:	83 ec 0c             	sub    $0xc,%esp
c0107e39:	55                   	push   %ebp
c0107e3a:	e8 d9 8e 00 00       	call   c0110d18 <handle_interrupt>
c0107e3f:	89 ec                	mov    %ebp,%esp
c0107e41:	0f a9                	pop    %gs
c0107e43:	0f a1                	pop    %fs
c0107e45:	07                   	pop    %es
c0107e46:	1f                   	pop    %ds
c0107e47:	5d                   	pop    %ebp
c0107e48:	5a                   	pop    %edx
c0107e49:	59                   	pop    %ecx
c0107e4a:	5b                   	pop    %ebx
c0107e4b:	58                   	pop    %eax
c0107e4c:	5e                   	pop    %esi
c0107e4d:	5f                   	pop    %edi
c0107e4e:	83 c4 08             	add    $0x8,%esp
c0107e51:	cf                   	iret   

c0107e52 <isr32>:
c0107e52:	fa                   	cli    
c0107e53:	6a 00                	push   $0x0
c0107e55:	6a 20                	push   $0x20
c0107e57:	57                   	push   %edi
c0107e58:	56                   	push   %esi
c0107e59:	50                   	push   %eax
c0107e5a:	53                   	push   %ebx
c0107e5b:	51                   	push   %ecx
c0107e5c:	52                   	push   %edx
c0107e5d:	55                   	push   %ebp
c0107e5e:	1e                   	push   %ds
c0107e5f:	06                   	push   %es
c0107e60:	0f a0                	push   %fs
c0107e62:	0f a8                	push   %gs
c0107e64:	66 b8 10 00          	mov    $0x10,%ax
c0107e68:	8e d8                	mov    %eax,%ds
c0107e6a:	8e c0                	mov    %eax,%es
c0107e6c:	8e e0                	mov    %eax,%fs
c0107e6e:	8e e8                	mov    %eax,%gs
c0107e70:	89 e5                	mov    %esp,%ebp
c0107e72:	83 e4 f0             	and    $0xfffffff0,%esp
c0107e75:	83 ec 0c             	sub    $0xc,%esp
c0107e78:	55                   	push   %ebp
c0107e79:	e8 9a 8e 00 00       	call   c0110d18 <handle_interrupt>
c0107e7e:	89 ec                	mov    %ebp,%esp
c0107e80:	0f a9                	pop    %gs
c0107e82:	0f a1                	pop    %fs
c0107e84:	07                   	pop    %es
c0107e85:	1f                   	pop    %ds
c0107e86:	5d                   	pop    %ebp
c0107e87:	5a                   	pop    %edx
c0107e88:	59                   	pop    %ecx
c0107e89:	5b                   	pop    %ebx
c0107e8a:	58                   	pop    %eax
c0107e8b:	5e                   	pop    %esi
c0107e8c:	5f                   	pop    %edi
c0107e8d:	83 c4 08             	add    $0x8,%esp
c0107e90:	cf                   	iret   

c0107e91 <isr33>:
c0107e91:	fa                   	cli    
c0107e92:	6a 00                	push   $0x0
c0107e94:	6a 21                	push   $0x21
c0107e96:	57                   	push   %edi
c0107e97:	56                   	push   %esi
c0107e98:	50                   	push   %eax
c0107e99:	53                   	push   %ebx
c0107e9a:	51                   	push   %ecx
c0107e9b:	52                   	push   %edx
c0107e9c:	55                   	push   %ebp
c0107e9d:	1e                   	push   %ds
c0107e9e:	06                   	push   %es
c0107e9f:	0f a0                	push   %fs
c0107ea1:	0f a8                	push   %gs
c0107ea3:	66 b8 10 00          	mov    $0x10,%ax
c0107ea7:	8e d8                	mov    %eax,%ds
c0107ea9:	8e c0                	mov    %eax,%es
c0107eab:	8e e0                	mov    %eax,%fs
c0107ead:	8e e8                	mov    %eax,%gs
c0107eaf:	89 e5                	mov    %esp,%ebp
c0107eb1:	83 e4 f0             	and    $0xfffffff0,%esp
c0107eb4:	83 ec 0c             	sub    $0xc,%esp
c0107eb7:	55                   	push   %ebp
c0107eb8:	e8 5b 8e 00 00       	call   c0110d18 <handle_interrupt>
c0107ebd:	89 ec                	mov    %ebp,%esp
c0107ebf:	0f a9                	pop    %gs
c0107ec1:	0f a1                	pop    %fs
c0107ec3:	07                   	pop    %es
c0107ec4:	1f                   	pop    %ds
c0107ec5:	5d                   	pop    %ebp
c0107ec6:	5a                   	pop    %edx
c0107ec7:	59                   	pop    %ecx
c0107ec8:	5b                   	pop    %ebx
c0107ec9:	58                   	pop    %eax
c0107eca:	5e                   	pop    %esi
c0107ecb:	5f                   	pop    %edi
c0107ecc:	83 c4 08             	add    $0x8,%esp
c0107ecf:	cf                   	iret   

c0107ed0 <isr34>:
c0107ed0:	fa                   	cli    
c0107ed1:	6a 00                	push   $0x0
c0107ed3:	6a 22                	push   $0x22
c0107ed5:	57                   	push   %edi
c0107ed6:	56                   	push   %esi
c0107ed7:	50                   	push   %eax
c0107ed8:	53                   	push   %ebx
c0107ed9:	51                   	push   %ecx
c0107eda:	52                   	push   %edx
c0107edb:	55                   	push   %ebp
c0107edc:	1e                   	push   %ds
c0107edd:	06                   	push   %es
c0107ede:	0f a0                	push   %fs
c0107ee0:	0f a8                	push   %gs
c0107ee2:	66 b8 10 00          	mov    $0x10,%ax
c0107ee6:	8e d8                	mov    %eax,%ds
c0107ee8:	8e c0                	mov    %eax,%es
c0107eea:	8e e0                	mov    %eax,%fs
c0107eec:	8e e8                	mov    %eax,%gs
c0107eee:	89 e5                	mov    %esp,%ebp
c0107ef0:	83 e4 f0             	and    $0xfffffff0,%esp
c0107ef3:	83 ec 0c             	sub    $0xc,%esp
c0107ef6:	55                   	push   %ebp
c0107ef7:	e8 1c 8e 00 00       	call   c0110d18 <handle_interrupt>
c0107efc:	89 ec                	mov    %ebp,%esp
c0107efe:	0f a9                	pop    %gs
c0107f00:	0f a1                	pop    %fs
c0107f02:	07                   	pop    %es
c0107f03:	1f                   	pop    %ds
c0107f04:	5d                   	pop    %ebp
c0107f05:	5a                   	pop    %edx
c0107f06:	59                   	pop    %ecx
c0107f07:	5b                   	pop    %ebx
c0107f08:	58                   	pop    %eax
c0107f09:	5e                   	pop    %esi
c0107f0a:	5f                   	pop    %edi
c0107f0b:	83 c4 08             	add    $0x8,%esp
c0107f0e:	cf                   	iret   

c0107f0f <isr35>:
c0107f0f:	fa                   	cli    
c0107f10:	6a 00                	push   $0x0
c0107f12:	6a 23                	push   $0x23
c0107f14:	57                   	push   %edi
c0107f15:	56                   	push   %esi
c0107f16:	50                   	push   %eax
c0107f17:	53                   	push   %ebx
c0107f18:	51                   	push   %ecx
c0107f19:	52                   	push   %edx
c0107f1a:	55                   	push   %ebp
c0107f1b:	1e                   	push   %ds
c0107f1c:	06                   	push   %es
c0107f1d:	0f a0                	push   %fs
c0107f1f:	0f a8                	push   %gs
c0107f21:	66 b8 10 00          	mov    $0x10,%ax
c0107f25:	8e d8                	mov    %eax,%ds
c0107f27:	8e c0                	mov    %eax,%es
c0107f29:	8e e0                	mov    %eax,%fs
c0107f2b:	8e e8                	mov    %eax,%gs
c0107f2d:	89 e5                	mov    %esp,%ebp
c0107f2f:	83 e4 f0             	and    $0xfffffff0,%esp
c0107f32:	83 ec 0c             	sub    $0xc,%esp
c0107f35:	55                   	push   %ebp
c0107f36:	e8 dd 8d 00 00       	call   c0110d18 <handle_interrupt>
c0107f3b:	89 ec                	mov    %ebp,%esp
c0107f3d:	0f a9                	pop    %gs
c0107f3f:	0f a1                	pop    %fs
c0107f41:	07                   	pop    %es
c0107f42:	1f                   	pop    %ds
c0107f43:	5d                   	pop    %ebp
c0107f44:	5a                   	pop    %edx
c0107f45:	59                   	pop    %ecx
c0107f46:	5b                   	pop    %ebx
c0107f47:	58                   	pop    %eax
c0107f48:	5e                   	pop    %esi
c0107f49:	5f                   	pop    %edi
c0107f4a:	83 c4 08             	add    $0x8,%esp
c0107f4d:	cf                   	iret   

c0107f4e <isr36>:
c0107f4e:	fa                   	cli    
c0107f4f:	6a 00                	push   $0x0
c0107f51:	6a 24                	push   $0x24
c0107f53:	57                   	push   %edi
c0107f54:	56                   	push   %esi
c0107f55:	50                   	push   %eax
c0107f56:	53                   	push   %ebx
c0107f57:	51                   	push   %ecx
c0107f58:	52                   	push   %edx
c0107f59:	55                   	push   %ebp
c0107f5a:	1e                   	push   %ds
c0107f5b:	06                   	push   %es
c0107f5c:	0f a0                	push   %fs
c0107f5e:	0f a8                	push   %gs
c0107f60:	66 b8 10 00          	mov    $0x10,%ax
c0107f64:	8e d8                	mov    %eax,%ds
c0107f66:	8e c0                	mov    %eax,%es
c0107f68:	8e e0                	mov    %eax,%fs
c0107f6a:	8e e8                	mov    %eax,%gs
c0107f6c:	89 e5                	mov    %esp,%ebp
c0107f6e:	83 e4 f0             	and    $0xfffffff0,%esp
c0107f71:	83 ec 0c             	sub    $0xc,%esp
c0107f74:	55                   	push   %ebp
c0107f75:	e8 9e 8d 00 00       	call   c0110d18 <handle_interrupt>
c0107f7a:	89 ec                	mov    %ebp,%esp
c0107f7c:	0f a9                	pop    %gs
c0107f7e:	0f a1                	pop    %fs
c0107f80:	07                   	pop    %es
c0107f81:	1f                   	pop    %ds
c0107f82:	5d                   	pop    %ebp
c0107f83:	5a                   	pop    %edx
c0107f84:	59                   	pop    %ecx
c0107f85:	5b                   	pop    %ebx
c0107f86:	58                   	pop    %eax
c0107f87:	5e                   	pop    %esi
c0107f88:	5f                   	pop    %edi
c0107f89:	83 c4 08             	add    $0x8,%esp
c0107f8c:	cf                   	iret   

c0107f8d <isr37>:
c0107f8d:	fa                   	cli    
c0107f8e:	6a 00                	push   $0x0
c0107f90:	6a 25                	push   $0x25
c0107f92:	57                   	push   %edi
c0107f93:	56                   	push   %esi
c0107f94:	50                   	push   %eax
c0107f95:	53                   	push   %ebx
c0107f96:	51                   	push   %ecx
c0107f97:	52                   	push   %edx
c0107f98:	55                   	push   %ebp
c0107f99:	1e                   	push   %ds
c0107f9a:	06                   	push   %es
c0107f9b:	0f a0                	push   %fs
c0107f9d:	0f a8                	push   %gs
c0107f9f:	66 b8 10 00          	mov    $0x10,%ax
c0107fa3:	8e d8                	mov    %eax,%ds
c0107fa5:	8e c0                	mov    %eax,%es
c0107fa7:	8e e0                	mov    %eax,%fs
c0107fa9:	8e e8                	mov    %eax,%gs
c0107fab:	89 e5                	mov    %esp,%ebp
c0107fad:	83 e4 f0             	and    $0xfffffff0,%esp
c0107fb0:	83 ec 0c             	sub    $0xc,%esp
c0107fb3:	55                   	push   %ebp
c0107fb4:	e8 5f 8d 00 00       	call   c0110d18 <handle_interrupt>
c0107fb9:	89 ec                	mov    %ebp,%esp
c0107fbb:	0f a9                	pop    %gs
c0107fbd:	0f a1                	pop    %fs
c0107fbf:	07                   	pop    %es
c0107fc0:	1f                   	pop    %ds
c0107fc1:	5d                   	pop    %ebp
c0107fc2:	5a                   	pop    %edx
c0107fc3:	59                   	pop    %ecx
c0107fc4:	5b                   	pop    %ebx
c0107fc5:	58                   	pop    %eax
c0107fc6:	5e                   	pop    %esi
c0107fc7:	5f                   	pop    %edi
c0107fc8:	83 c4 08             	add    $0x8,%esp
c0107fcb:	cf                   	iret   

c0107fcc <isr38>:
c0107fcc:	fa                   	cli    
c0107fcd:	6a 00                	push   $0x0
c0107fcf:	6a 26                	push   $0x26
c0107fd1:	57                   	push   %edi
c0107fd2:	56                   	push   %esi
c0107fd3:	50                   	push   %eax
c0107fd4:	53                   	push   %ebx
c0107fd5:	51                   	push   %ecx
c0107fd6:	52                   	push   %edx
c0107fd7:	55                   	push   %ebp
c0107fd8:	1e                   	push   %ds
c0107fd9:	06                   	push   %es
c0107fda:	0f a0                	push   %fs
c0107fdc:	0f a8                	push   %gs
c0107fde:	66 b8 10 00          	mov    $0x10,%ax
c0107fe2:	8e d8                	mov    %eax,%ds
c0107fe4:	8e c0                	mov    %eax,%es
c0107fe6:	8e e0                	mov    %eax,%fs
c0107fe8:	8e e8                	mov    %eax,%gs
c0107fea:	89 e5                	mov    %esp,%ebp
c0107fec:	83 e4 f0             	and    $0xfffffff0,%esp
c0107fef:	83 ec 0c             	sub    $0xc,%esp
c0107ff2:	55                   	push   %ebp
c0107ff3:	e8 20 8d 00 00       	call   c0110d18 <handle_interrupt>
c0107ff8:	89 ec                	mov    %ebp,%esp
c0107ffa:	0f a9                	pop    %gs
c0107ffc:	0f a1                	pop    %fs
c0107ffe:	07                   	pop    %es
c0107fff:	1f                   	pop    %ds
c0108000:	5d                   	pop    %ebp
c0108001:	5a                   	pop    %edx
c0108002:	59                   	pop    %ecx
c0108003:	5b                   	pop    %ebx
c0108004:	58                   	pop    %eax
c0108005:	5e                   	pop    %esi
c0108006:	5f                   	pop    %edi
c0108007:	83 c4 08             	add    $0x8,%esp
c010800a:	cf                   	iret   

c010800b <isr39>:
c010800b:	fa                   	cli    
c010800c:	6a 00                	push   $0x0
c010800e:	6a 27                	push   $0x27
c0108010:	57                   	push   %edi
c0108011:	56                   	push   %esi
c0108012:	50                   	push   %eax
c0108013:	53                   	push   %ebx
c0108014:	51                   	push   %ecx
c0108015:	52                   	push   %edx
c0108016:	55                   	push   %ebp
c0108017:	1e                   	push   %ds
c0108018:	06                   	push   %es
c0108019:	0f a0                	push   %fs
c010801b:	0f a8                	push   %gs
c010801d:	66 b8 10 00          	mov    $0x10,%ax
c0108021:	8e d8                	mov    %eax,%ds
c0108023:	8e c0                	mov    %eax,%es
c0108025:	8e e0                	mov    %eax,%fs
c0108027:	8e e8                	mov    %eax,%gs
c0108029:	89 e5                	mov    %esp,%ebp
c010802b:	83 e4 f0             	and    $0xfffffff0,%esp
c010802e:	83 ec 0c             	sub    $0xc,%esp
c0108031:	55                   	push   %ebp
c0108032:	e8 e1 8c 00 00       	call   c0110d18 <handle_interrupt>
c0108037:	89 ec                	mov    %ebp,%esp
c0108039:	0f a9                	pop    %gs
c010803b:	0f a1                	pop    %fs
c010803d:	07                   	pop    %es
c010803e:	1f                   	pop    %ds
c010803f:	5d                   	pop    %ebp
c0108040:	5a                   	pop    %edx
c0108041:	59                   	pop    %ecx
c0108042:	5b                   	pop    %ebx
c0108043:	58                   	pop    %eax
c0108044:	5e                   	pop    %esi
c0108045:	5f                   	pop    %edi
c0108046:	83 c4 08             	add    $0x8,%esp
c0108049:	cf                   	iret   

c010804a <isr40>:
c010804a:	fa                   	cli    
c010804b:	6a 00                	push   $0x0
c010804d:	6a 28                	push   $0x28
c010804f:	57                   	push   %edi
c0108050:	56                   	push   %esi
c0108051:	50                   	push   %eax
c0108052:	53                   	push   %ebx
c0108053:	51                   	push   %ecx
c0108054:	52                   	push   %edx
c0108055:	55                   	push   %ebp
c0108056:	1e                   	push   %ds
c0108057:	06                   	push   %es
c0108058:	0f a0                	push   %fs
c010805a:	0f a8                	push   %gs
c010805c:	66 b8 10 00          	mov    $0x10,%ax
c0108060:	8e d8                	mov    %eax,%ds
c0108062:	8e c0                	mov    %eax,%es
c0108064:	8e e0                	mov    %eax,%fs
c0108066:	8e e8                	mov    %eax,%gs
c0108068:	89 e5                	mov    %esp,%ebp
c010806a:	83 e4 f0             	and    $0xfffffff0,%esp
c010806d:	83 ec 0c             	sub    $0xc,%esp
c0108070:	55                   	push   %ebp
c0108071:	e8 a2 8c 00 00       	call   c0110d18 <handle_interrupt>
c0108076:	89 ec                	mov    %ebp,%esp
c0108078:	0f a9                	pop    %gs
c010807a:	0f a1                	pop    %fs
c010807c:	07                   	pop    %es
c010807d:	1f                   	pop    %ds
c010807e:	5d                   	pop    %ebp
c010807f:	5a                   	pop    %edx
c0108080:	59                   	pop    %ecx
c0108081:	5b                   	pop    %ebx
c0108082:	58                   	pop    %eax
c0108083:	5e                   	pop    %esi
c0108084:	5f                   	pop    %edi
c0108085:	83 c4 08             	add    $0x8,%esp
c0108088:	cf                   	iret   

c0108089 <isr41>:
c0108089:	fa                   	cli    
c010808a:	6a 00                	push   $0x0
c010808c:	6a 29                	push   $0x29
c010808e:	57                   	push   %edi
c010808f:	56                   	push   %esi
c0108090:	50                   	push   %eax
c0108091:	53                   	push   %ebx
c0108092:	51                   	push   %ecx
c0108093:	52                   	push   %edx
c0108094:	55                   	push   %ebp
c0108095:	1e                   	push   %ds
c0108096:	06                   	push   %es
c0108097:	0f a0                	push   %fs
c0108099:	0f a8                	push   %gs
c010809b:	66 b8 10 00          	mov    $0x10,%ax
c010809f:	8e d8                	mov    %eax,%ds
c01080a1:	8e c0                	mov    %eax,%es
c01080a3:	8e e0                	mov    %eax,%fs
c01080a5:	8e e8                	mov    %eax,%gs
c01080a7:	89 e5                	mov    %esp,%ebp
c01080a9:	83 e4 f0             	and    $0xfffffff0,%esp
c01080ac:	83 ec 0c             	sub    $0xc,%esp
c01080af:	55                   	push   %ebp
c01080b0:	e8 63 8c 00 00       	call   c0110d18 <handle_interrupt>
c01080b5:	89 ec                	mov    %ebp,%esp
c01080b7:	0f a9                	pop    %gs
c01080b9:	0f a1                	pop    %fs
c01080bb:	07                   	pop    %es
c01080bc:	1f                   	pop    %ds
c01080bd:	5d                   	pop    %ebp
c01080be:	5a                   	pop    %edx
c01080bf:	59                   	pop    %ecx
c01080c0:	5b                   	pop    %ebx
c01080c1:	58                   	pop    %eax
c01080c2:	5e                   	pop    %esi
c01080c3:	5f                   	pop    %edi
c01080c4:	83 c4 08             	add    $0x8,%esp
c01080c7:	cf                   	iret   

c01080c8 <isr42>:
c01080c8:	fa                   	cli    
c01080c9:	6a 00                	push   $0x0
c01080cb:	6a 2a                	push   $0x2a
c01080cd:	57                   	push   %edi
c01080ce:	56                   	push   %esi
c01080cf:	50                   	push   %eax
c01080d0:	53                   	push   %ebx
c01080d1:	51                   	push   %ecx
c01080d2:	52                   	push   %edx
c01080d3:	55                   	push   %ebp
c01080d4:	1e                   	push   %ds
c01080d5:	06                   	push   %es
c01080d6:	0f a0                	push   %fs
c01080d8:	0f a8                	push   %gs
c01080da:	66 b8 10 00          	mov    $0x10,%ax
c01080de:	8e d8                	mov    %eax,%ds
c01080e0:	8e c0                	mov    %eax,%es
c01080e2:	8e e0                	mov    %eax,%fs
c01080e4:	8e e8                	mov    %eax,%gs
c01080e6:	89 e5                	mov    %esp,%ebp
c01080e8:	83 e4 f0             	and    $0xfffffff0,%esp
c01080eb:	83 ec 0c             	sub    $0xc,%esp
c01080ee:	55                   	push   %ebp
c01080ef:	e8 24 8c 00 00       	call   c0110d18 <handle_interrupt>
c01080f4:	89 ec                	mov    %ebp,%esp
c01080f6:	0f a9                	pop    %gs
c01080f8:	0f a1                	pop    %fs
c01080fa:	07                   	pop    %es
c01080fb:	1f                   	pop    %ds
c01080fc:	5d                   	pop    %ebp
c01080fd:	5a                   	pop    %edx
c01080fe:	59                   	pop    %ecx
c01080ff:	5b                   	pop    %ebx
c0108100:	58                   	pop    %eax
c0108101:	5e                   	pop    %esi
c0108102:	5f                   	pop    %edi
c0108103:	83 c4 08             	add    $0x8,%esp
c0108106:	cf                   	iret   

c0108107 <isr43>:
c0108107:	fa                   	cli    
c0108108:	6a 00                	push   $0x0
c010810a:	6a 2b                	push   $0x2b
c010810c:	57                   	push   %edi
c010810d:	56                   	push   %esi
c010810e:	50                   	push   %eax
c010810f:	53                   	push   %ebx
c0108110:	51                   	push   %ecx
c0108111:	52                   	push   %edx
c0108112:	55                   	push   %ebp
c0108113:	1e                   	push   %ds
c0108114:	06                   	push   %es
c0108115:	0f a0                	push   %fs
c0108117:	0f a8                	push   %gs
c0108119:	66 b8 10 00          	mov    $0x10,%ax
c010811d:	8e d8                	mov    %eax,%ds
c010811f:	8e c0                	mov    %eax,%es
c0108121:	8e e0                	mov    %eax,%fs
c0108123:	8e e8                	mov    %eax,%gs
c0108125:	89 e5                	mov    %esp,%ebp
c0108127:	83 e4 f0             	and    $0xfffffff0,%esp
c010812a:	83 ec 0c             	sub    $0xc,%esp
c010812d:	55                   	push   %ebp
c010812e:	e8 e5 8b 00 00       	call   c0110d18 <handle_interrupt>
c0108133:	89 ec                	mov    %ebp,%esp
c0108135:	0f a9                	pop    %gs
c0108137:	0f a1                	pop    %fs
c0108139:	07                   	pop    %es
c010813a:	1f                   	pop    %ds
c010813b:	5d                   	pop    %ebp
c010813c:	5a                   	pop    %edx
c010813d:	59                   	pop    %ecx
c010813e:	5b                   	pop    %ebx
c010813f:	58                   	pop    %eax
c0108140:	5e                   	pop    %esi
c0108141:	5f                   	pop    %edi
c0108142:	83 c4 08             	add    $0x8,%esp
c0108145:	cf                   	iret   

c0108146 <isr44>:
c0108146:	fa                   	cli    
c0108147:	6a 00                	push   $0x0
c0108149:	6a 2c                	push   $0x2c
c010814b:	57                   	push   %edi
c010814c:	56                   	push   %esi
c010814d:	50                   	push   %eax
c010814e:	53                   	push   %ebx
c010814f:	51                   	push   %ecx
c0108150:	52                   	push   %edx
c0108151:	55                   	push   %ebp
c0108152:	1e                   	push   %ds
c0108153:	06                   	push   %es
c0108154:	0f a0                	push   %fs
c0108156:	0f a8                	push   %gs
c0108158:	66 b8 10 00          	mov    $0x10,%ax
c010815c:	8e d8                	mov    %eax,%ds
c010815e:	8e c0                	mov    %eax,%es
c0108160:	8e e0                	mov    %eax,%fs
c0108162:	8e e8                	mov    %eax,%gs
c0108164:	89 e5                	mov    %esp,%ebp
c0108166:	83 e4 f0             	and    $0xfffffff0,%esp
c0108169:	83 ec 0c             	sub    $0xc,%esp
c010816c:	55                   	push   %ebp
c010816d:	e8 a6 8b 00 00       	call   c0110d18 <handle_interrupt>
c0108172:	89 ec                	mov    %ebp,%esp
c0108174:	0f a9                	pop    %gs
c0108176:	0f a1                	pop    %fs
c0108178:	07                   	pop    %es
c0108179:	1f                   	pop    %ds
c010817a:	5d                   	pop    %ebp
c010817b:	5a                   	pop    %edx
c010817c:	59                   	pop    %ecx
c010817d:	5b                   	pop    %ebx
c010817e:	58                   	pop    %eax
c010817f:	5e                   	pop    %esi
c0108180:	5f                   	pop    %edi
c0108181:	83 c4 08             	add    $0x8,%esp
c0108184:	cf                   	iret   

c0108185 <isr45>:
c0108185:	fa                   	cli    
c0108186:	6a 00                	push   $0x0
c0108188:	6a 2d                	push   $0x2d
c010818a:	57                   	push   %edi
c010818b:	56                   	push   %esi
c010818c:	50                   	push   %eax
c010818d:	53                   	push   %ebx
c010818e:	51                   	push   %ecx
c010818f:	52                   	push   %edx
c0108190:	55                   	push   %ebp
c0108191:	1e                   	push   %ds
c0108192:	06                   	push   %es
c0108193:	0f a0                	push   %fs
c0108195:	0f a8                	push   %gs
c0108197:	66 b8 10 00          	mov    $0x10,%ax
c010819b:	8e d8                	mov    %eax,%ds
c010819d:	8e c0                	mov    %eax,%es
c010819f:	8e e0                	mov    %eax,%fs
c01081a1:	8e e8                	mov    %eax,%gs
c01081a3:	89 e5                	mov    %esp,%ebp
c01081a5:	83 e4 f0             	and    $0xfffffff0,%esp
c01081a8:	83 ec 0c             	sub    $0xc,%esp
c01081ab:	55                   	push   %ebp
c01081ac:	e8 67 8b 00 00       	call   c0110d18 <handle_interrupt>
c01081b1:	89 ec                	mov    %ebp,%esp
c01081b3:	0f a9                	pop    %gs
c01081b5:	0f a1                	pop    %fs
c01081b7:	07                   	pop    %es
c01081b8:	1f                   	pop    %ds
c01081b9:	5d                   	pop    %ebp
c01081ba:	5a                   	pop    %edx
c01081bb:	59                   	pop    %ecx
c01081bc:	5b                   	pop    %ebx
c01081bd:	58                   	pop    %eax
c01081be:	5e                   	pop    %esi
c01081bf:	5f                   	pop    %edi
c01081c0:	83 c4 08             	add    $0x8,%esp
c01081c3:	cf                   	iret   

c01081c4 <isr46>:
c01081c4:	fa                   	cli    
c01081c5:	6a 00                	push   $0x0
c01081c7:	6a 2e                	push   $0x2e
c01081c9:	57                   	push   %edi
c01081ca:	56                   	push   %esi
c01081cb:	50                   	push   %eax
c01081cc:	53                   	push   %ebx
c01081cd:	51                   	push   %ecx
c01081ce:	52                   	push   %edx
c01081cf:	55                   	push   %ebp
c01081d0:	1e                   	push   %ds
c01081d1:	06                   	push   %es
c01081d2:	0f a0                	push   %fs
c01081d4:	0f a8                	push   %gs
c01081d6:	66 b8 10 00          	mov    $0x10,%ax
c01081da:	8e d8                	mov    %eax,%ds
c01081dc:	8e c0                	mov    %eax,%es
c01081de:	8e e0                	mov    %eax,%fs
c01081e0:	8e e8                	mov    %eax,%gs
c01081e2:	89 e5                	mov    %esp,%ebp
c01081e4:	83 e4 f0             	and    $0xfffffff0,%esp
c01081e7:	83 ec 0c             	sub    $0xc,%esp
c01081ea:	55                   	push   %ebp
c01081eb:	e8 28 8b 00 00       	call   c0110d18 <handle_interrupt>
c01081f0:	89 ec                	mov    %ebp,%esp
c01081f2:	0f a9                	pop    %gs
c01081f4:	0f a1                	pop    %fs
c01081f6:	07                   	pop    %es
c01081f7:	1f                   	pop    %ds
c01081f8:	5d                   	pop    %ebp
c01081f9:	5a                   	pop    %edx
c01081fa:	59                   	pop    %ecx
c01081fb:	5b                   	pop    %ebx
c01081fc:	58                   	pop    %eax
c01081fd:	5e                   	pop    %esi
c01081fe:	5f                   	pop    %edi
c01081ff:	83 c4 08             	add    $0x8,%esp
c0108202:	cf                   	iret   

c0108203 <isr47>:
c0108203:	fa                   	cli    
c0108204:	6a 00                	push   $0x0
c0108206:	6a 2f                	push   $0x2f
c0108208:	57                   	push   %edi
c0108209:	56                   	push   %esi
c010820a:	50                   	push   %eax
c010820b:	53                   	push   %ebx
c010820c:	51                   	push   %ecx
c010820d:	52                   	push   %edx
c010820e:	55                   	push   %ebp
c010820f:	1e                   	push   %ds
c0108210:	06                   	push   %es
c0108211:	0f a0                	push   %fs
c0108213:	0f a8                	push   %gs
c0108215:	66 b8 10 00          	mov    $0x10,%ax
c0108219:	8e d8                	mov    %eax,%ds
c010821b:	8e c0                	mov    %eax,%es
c010821d:	8e e0                	mov    %eax,%fs
c010821f:	8e e8                	mov    %eax,%gs
c0108221:	89 e5                	mov    %esp,%ebp
c0108223:	83 e4 f0             	and    $0xfffffff0,%esp
c0108226:	83 ec 0c             	sub    $0xc,%esp
c0108229:	55                   	push   %ebp
c010822a:	e8 e9 8a 00 00       	call   c0110d18 <handle_interrupt>
c010822f:	89 ec                	mov    %ebp,%esp
c0108231:	0f a9                	pop    %gs
c0108233:	0f a1                	pop    %fs
c0108235:	07                   	pop    %es
c0108236:	1f                   	pop    %ds
c0108237:	5d                   	pop    %ebp
c0108238:	5a                   	pop    %edx
c0108239:	59                   	pop    %ecx
c010823a:	5b                   	pop    %ebx
c010823b:	58                   	pop    %eax
c010823c:	5e                   	pop    %esi
c010823d:	5f                   	pop    %edi
c010823e:	83 c4 08             	add    $0x8,%esp
c0108241:	cf                   	iret   

c0108242 <isr128>:
c0108242:	fa                   	cli    
c0108243:	6a 00                	push   $0x0
c0108245:	68 80 00 00 00       	push   $0x80
c010824a:	57                   	push   %edi
c010824b:	56                   	push   %esi
c010824c:	50                   	push   %eax
c010824d:	53                   	push   %ebx
c010824e:	51                   	push   %ecx
c010824f:	52                   	push   %edx
c0108250:	55                   	push   %ebp
c0108251:	1e                   	push   %ds
c0108252:	06                   	push   %es
c0108253:	0f a0                	push   %fs
c0108255:	0f a8                	push   %gs
c0108257:	66 b8 10 00          	mov    $0x10,%ax
c010825b:	8e d8                	mov    %eax,%ds
c010825d:	8e c0                	mov    %eax,%es
c010825f:	8e e0                	mov    %eax,%fs
c0108261:	8e e8                	mov    %eax,%gs
c0108263:	fb                   	sti    
c0108264:	89 e5                	mov    %esp,%ebp
c0108266:	83 e4 f0             	and    $0xfffffff0,%esp
c0108269:	83 ec 0c             	sub    $0xc,%esp
c010826c:	55                   	push   %ebp
c010826d:	e8 06 8d 00 00       	call   c0110f78 <handle_syscall>
c0108272:	89 ec                	mov    %ebp,%esp
c0108274:	fa                   	cli    
c0108275:	0f a9                	pop    %gs
c0108277:	0f a1                	pop    %fs
c0108279:	07                   	pop    %es
c010827a:	1f                   	pop    %ds
c010827b:	5d                   	pop    %ebp
c010827c:	5a                   	pop    %edx
c010827d:	59                   	pop    %ecx
c010827e:	5b                   	pop    %ebx
c010827f:	58                   	pop    %eax
c0108280:	5e                   	pop    %esi
c0108281:	5f                   	pop    %edi
c0108282:	83 c4 08             	add    $0x8,%esp
c0108285:	cf                   	iret   

c0108286 <set_gdt_entry>:
c0108286:	55                   	push   %ebp
c0108287:	89 e5                	mov    %esp,%ebp
c0108289:	83 ec 08             	sub    $0x8,%esp
c010828c:	8b 55 14             	mov    0x14(%ebp),%edx
c010828f:	8b 45 18             	mov    0x18(%ebp),%eax
c0108292:	88 55 fc             	mov    %dl,-0x4(%ebp)
c0108295:	88 45 f8             	mov    %al,-0x8(%ebp)
c0108298:	8b 45 0c             	mov    0xc(%ebp),%eax
c010829b:	89 c2                	mov    %eax,%edx
c010829d:	8b 45 08             	mov    0x8(%ebp),%eax
c01082a0:	66 89 14 c5 22 28 10 	mov    %dx,-0x3fefd7de(,%eax,8)
c01082a7:	c0 
c01082a8:	8b 45 0c             	mov    0xc(%ebp),%eax
c01082ab:	c1 e8 10             	shr    $0x10,%eax
c01082ae:	89 c2                	mov    %eax,%edx
c01082b0:	8b 45 08             	mov    0x8(%ebp),%eax
c01082b3:	88 14 c5 24 28 10 c0 	mov    %dl,-0x3fefd7dc(,%eax,8)
c01082ba:	8b 45 0c             	mov    0xc(%ebp),%eax
c01082bd:	c1 e8 18             	shr    $0x18,%eax
c01082c0:	89 c2                	mov    %eax,%edx
c01082c2:	8b 45 08             	mov    0x8(%ebp),%eax
c01082c5:	88 14 c5 27 28 10 c0 	mov    %dl,-0x3fefd7d9(,%eax,8)
c01082cc:	8b 45 08             	mov    0x8(%ebp),%eax
c01082cf:	0f b6 55 fc          	movzbl -0x4(%ebp),%edx
c01082d3:	88 14 c5 25 28 10 c0 	mov    %dl,-0x3fefd7db(,%eax,8)
c01082da:	0f b6 45 f8          	movzbl -0x8(%ebp),%eax
c01082de:	83 e0 f0             	and    $0xfffffff0,%eax
c01082e1:	89 c2                	mov    %eax,%edx
c01082e3:	8b 45 08             	mov    0x8(%ebp),%eax
c01082e6:	88 14 c5 26 28 10 c0 	mov    %dl,-0x3fefd7da(,%eax,8)
c01082ed:	8b 45 10             	mov    0x10(%ebp),%eax
c01082f0:	89 c2                	mov    %eax,%edx
c01082f2:	8b 45 08             	mov    0x8(%ebp),%eax
c01082f5:	66 89 14 c5 20 28 10 	mov    %dx,-0x3fefd7e0(,%eax,8)
c01082fc:	c0 
c01082fd:	8b 45 08             	mov    0x8(%ebp),%eax
c0108300:	0f b6 14 c5 26 28 10 	movzbl -0x3fefd7da(,%eax,8),%edx
c0108307:	c0 
c0108308:	8b 45 10             	mov    0x10(%ebp),%eax
c010830b:	c1 e8 10             	shr    $0x10,%eax
c010830e:	83 e0 0f             	and    $0xf,%eax
c0108311:	09 c2                	or     %eax,%edx
c0108313:	8b 45 08             	mov    0x8(%ebp),%eax
c0108316:	88 14 c5 26 28 10 c0 	mov    %dl,-0x3fefd7da(,%eax,8)
c010831d:	90                   	nop
c010831e:	c9                   	leave  
c010831f:	c3                   	ret    

c0108320 <set_tss_esp>:
c0108320:	55                   	push   %ebp
c0108321:	89 e5                	mov    %esp,%ebp
c0108323:	8b 45 08             	mov    0x8(%ebp),%eax
c0108326:	a3 64 28 10 c0       	mov    %eax,0xc0102864
c010832b:	90                   	nop
c010832c:	5d                   	pop    %ebp
c010832d:	c3                   	ret    

c010832e <init_gdt>:
c010832e:	55                   	push   %ebp
c010832f:	89 e5                	mov    %esp,%ebp
c0108331:	83 ec 28             	sub    $0x28,%esp
c0108334:	6a 00                	push   $0x0
c0108336:	6a 00                	push   $0x0
c0108338:	6a 00                	push   $0x0
c010833a:	6a 00                	push   $0x0
c010833c:	6a 00                	push   $0x0
c010833e:	e8 43 ff ff ff       	call   c0108286 <set_gdt_entry>
c0108343:	83 c4 14             	add    $0x14,%esp
c0108346:	c6 45 f7 90          	movb   $0x90,-0x9(%ebp)
c010834a:	c6 45 f6 f0          	movb   $0xf0,-0xa(%ebp)
c010834e:	c6 45 f5 0a          	movb   $0xa,-0xb(%ebp)
c0108352:	c6 45 f4 02          	movb   $0x2,-0xc(%ebp)
c0108356:	0f b6 45 f7          	movzbl -0x9(%ebp),%eax
c010835a:	0a 45 f5             	or     -0xb(%ebp),%al
c010835d:	0f b6 c0             	movzbl %al,%eax
c0108360:	68 cf 00 00 00       	push   $0xcf
c0108365:	50                   	push   %eax
c0108366:	6a ff                	push   $0xffffffff
c0108368:	6a 00                	push   $0x0
c010836a:	6a 01                	push   $0x1
c010836c:	e8 15 ff ff ff       	call   c0108286 <set_gdt_entry>
c0108371:	83 c4 14             	add    $0x14,%esp
c0108374:	0f b6 45 f7          	movzbl -0x9(%ebp),%eax
c0108378:	0a 45 f4             	or     -0xc(%ebp),%al
c010837b:	0f b6 c0             	movzbl %al,%eax
c010837e:	68 cf 00 00 00       	push   $0xcf
c0108383:	50                   	push   %eax
c0108384:	6a ff                	push   $0xffffffff
c0108386:	6a 00                	push   $0x0
c0108388:	6a 02                	push   $0x2
c010838a:	e8 f7 fe ff ff       	call   c0108286 <set_gdt_entry>
c010838f:	83 c4 14             	add    $0x14,%esp
c0108392:	0f b6 45 f6          	movzbl -0xa(%ebp),%eax
c0108396:	0a 45 f5             	or     -0xb(%ebp),%al
c0108399:	0f b6 c0             	movzbl %al,%eax
c010839c:	68 cf 00 00 00       	push   $0xcf
c01083a1:	50                   	push   %eax
c01083a2:	6a ff                	push   $0xffffffff
c01083a4:	6a 00                	push   $0x0
c01083a6:	6a 03                	push   $0x3
c01083a8:	e8 d9 fe ff ff       	call   c0108286 <set_gdt_entry>
c01083ad:	83 c4 14             	add    $0x14,%esp
c01083b0:	0f b6 45 f6          	movzbl -0xa(%ebp),%eax
c01083b4:	0a 45 f4             	or     -0xc(%ebp),%al
c01083b7:	0f b6 c0             	movzbl %al,%eax
c01083ba:	68 cf 00 00 00       	push   $0xcf
c01083bf:	50                   	push   %eax
c01083c0:	6a ff                	push   $0xffffffff
c01083c2:	6a 00                	push   $0x0
c01083c4:	6a 04                	push   $0x4
c01083c6:	e8 bb fe ff ff       	call   c0108286 <set_gdt_entry>
c01083cb:	83 c4 14             	add    $0x14,%esp
c01083ce:	c7 45 f0 60 28 10 c0 	movl   $0xc0102860,-0x10(%ebp)
c01083d5:	b8 a0 52 10 c0       	mov    $0xc01052a0,%eax
c01083da:	89 45 ec             	mov    %eax,-0x14(%ebp)
c01083dd:	c6 45 eb e9          	movb   $0xe9,-0x15(%ebp)
c01083e1:	0f b6 45 eb          	movzbl -0x15(%ebp),%eax
c01083e5:	6a 00                	push   $0x0
c01083e7:	50                   	push   %eax
c01083e8:	ff 75 ec             	pushl  -0x14(%ebp)
c01083eb:	ff 75 f0             	pushl  -0x10(%ebp)
c01083ee:	6a 05                	push   $0x5
c01083f0:	e8 91 fe ff ff       	call   c0108286 <set_gdt_entry>
c01083f5:	83 c4 14             	add    $0x14,%esp
c01083f8:	83 ec 04             	sub    $0x4,%esp
c01083fb:	6a 68                	push   $0x68
c01083fd:	6a 00                	push   $0x0
c01083ff:	68 60 28 10 c0       	push   $0xc0102860
c0108404:	e8 5f 9d 00 00       	call   c0112168 <memset>
c0108409:	83 c4 10             	add    $0x10,%esp
c010840c:	66 c7 05 68 28 10 c0 	movw   $0x10,0xc0102868
c0108413:	10 00 
c0108415:	c7 05 64 28 10 c0 00 	movl   $0x0,0xc0102864
c010841c:	00 00 00 
c010841f:	66 c7 05 ac 28 10 c0 	movw   $0x8,0xc01028ac
c0108426:	08 00 
c0108428:	66 c7 05 bc 28 10 c0 	movw   $0x13,0xc01028bc
c010842f:	13 00 
c0108431:	0f b7 05 bc 28 10 c0 	movzwl 0xc01028bc,%eax
c0108438:	66 a3 b8 28 10 c0    	mov    %ax,0xc01028b8
c010843e:	0f b7 05 b8 28 10 c0 	movzwl 0xc01028b8,%eax
c0108445:	66 a3 a8 28 10 c0    	mov    %ax,0xc01028a8
c010844b:	0f b7 05 a8 28 10 c0 	movzwl 0xc01028a8,%eax
c0108452:	66 a3 b4 28 10 c0    	mov    %ax,0xc01028b4
c0108458:	0f b7 05 b4 28 10 c0 	movzwl 0xc01028b4,%eax
c010845f:	66 a3 b0 28 10 c0    	mov    %ax,0xc01028b0
c0108465:	66 c7 45 e3 2f 00    	movw   $0x2f,-0x1d(%ebp)
c010846b:	b8 20 28 10 c0       	mov    $0xc0102820,%eax
c0108470:	89 45 e5             	mov    %eax,-0x1b(%ebp)
c0108473:	8d 45 e3             	lea    -0x1d(%ebp),%eax
c0108476:	83 ec 0c             	sub    $0xc,%esp
c0108479:	50                   	push   %eax
c010847a:	e8 13 00 00 00       	call   c0108492 <load_gdtr>
c010847f:	83 c4 10             	add    $0x10,%esp
c0108482:	83 ec 0c             	sub    $0xc,%esp
c0108485:	6a 2b                	push   $0x2b
c0108487:	e8 23 00 00 00       	call   c01084af <load_tr>
c010848c:	83 c4 10             	add    $0x10,%esp
c010848f:	90                   	nop
c0108490:	c9                   	leave  
c0108491:	c3                   	ret    

c0108492 <load_gdtr>:
c0108492:	8b 44 24 04          	mov    0x4(%esp),%eax
c0108496:	0f 01 10             	lgdtl  (%eax)
c0108499:	66 b8 10 00          	mov    $0x10,%ax
c010849d:	8e d8                	mov    %eax,%ds
c010849f:	8e c0                	mov    %eax,%es
c01084a1:	8e e0                	mov    %eax,%fs
c01084a3:	8e e8                	mov    %eax,%gs
c01084a5:	8e d0                	mov    %eax,%ss
c01084a7:	ea ae 84 10 c0 08 00 	ljmp   $0x8,$0xc01084ae

c01084ae <.finish>:
c01084ae:	c3                   	ret    

c01084af <load_tr>:
c01084af:	8b 44 24 04          	mov    0x4(%esp),%eax
c01084b3:	0f 00 d8             	ltr    %ax
c01084b6:	c3                   	ret    

c01084b7 <init_dev>:
c01084b7:	55                   	push   %ebp
c01084b8:	89 e5                	mov    %esp,%ebp
c01084ba:	83 ec 08             	sub    $0x8,%esp
c01084bd:	e8 78 3e 00 00       	call   c010c33a <kql_create>
c01084c2:	a3 c8 28 10 c0       	mov    %eax,0xc01028c8
c01084c7:	e8 a1 9f 00 00       	call   c011246d <list_create>
c01084cc:	a3 cc 28 10 c0       	mov    %eax,0xc01028cc
c01084d1:	e8 97 9f 00 00       	call   c011246d <list_create>
c01084d6:	a3 d0 28 10 c0       	mov    %eax,0xc01028d0
c01084db:	90                   	nop
c01084dc:	c9                   	leave  
c01084dd:	c3                   	ret    

c01084de <register_stream_dev>:
c01084de:	55                   	push   %ebp
c01084df:	89 e5                	mov    %esp,%ebp
c01084e1:	83 ec 08             	sub    $0x8,%esp
c01084e4:	a1 c8 28 10 c0       	mov    0xc01028c8,%eax
c01084e9:	83 ec 0c             	sub    $0xc,%esp
c01084ec:	50                   	push   %eax
c01084ed:	e8 d9 3e 00 00       	call   c010c3cb <kql_acquire>
c01084f2:	83 c4 10             	add    $0x10,%esp
c01084f5:	a1 d0 28 10 c0       	mov    0xc01028d0,%eax
c01084fa:	83 ec 08             	sub    $0x8,%esp
c01084fd:	ff 75 08             	pushl  0x8(%ebp)
c0108500:	50                   	push   %eax
c0108501:	e8 ea 9f 00 00       	call   c01124f0 <list_add_front>
c0108506:	83 c4 10             	add    $0x10,%esp
c0108509:	a1 c8 28 10 c0       	mov    0xc01028c8,%eax
c010850e:	83 ec 0c             	sub    $0xc,%esp
c0108511:	50                   	push   %eax
c0108512:	e8 6a 3f 00 00       	call   c010c481 <kql_release>
c0108517:	83 c4 10             	add    $0x10,%esp
c010851a:	90                   	nop
c010851b:	c9                   	leave  
c010851c:	c3                   	ret    

c010851d <register_block_dev>:
c010851d:	55                   	push   %ebp
c010851e:	89 e5                	mov    %esp,%ebp
c0108520:	90                   	nop
c0108521:	5d                   	pop    %ebp
c0108522:	c3                   	ret    

c0108523 <get_stream_dev>:
c0108523:	55                   	push   %ebp
c0108524:	89 e5                	mov    %esp,%ebp
c0108526:	83 ec 18             	sub    $0x18,%esp
c0108529:	a1 c8 28 10 c0       	mov    0xc01028c8,%eax
c010852e:	83 ec 0c             	sub    $0xc,%esp
c0108531:	50                   	push   %eax
c0108532:	e8 94 3e 00 00       	call   c010c3cb <kql_acquire>
c0108537:	83 c4 10             	add    $0x10,%esp
c010853a:	a1 d0 28 10 c0       	mov    0xc01028d0,%eax
c010853f:	8b 00                	mov    (%eax),%eax
c0108541:	89 45 f4             	mov    %eax,-0xc(%ebp)
c0108544:	eb 3e                	jmp    c0108584 <get_stream_dev+0x61>
c0108546:	8b 45 f4             	mov    -0xc(%ebp),%eax
c0108549:	8b 00                	mov    (%eax),%eax
c010854b:	89 45 f0             	mov    %eax,-0x10(%ebp)
c010854e:	83 ec 0c             	sub    $0xc,%esp
c0108551:	ff 75 08             	pushl  0x8(%ebp)
c0108554:	e8 23 9c 00 00       	call   c011217c <strlen>
c0108559:	83 c4 10             	add    $0x10,%esp
c010855c:	8b 55 f0             	mov    -0x10(%ebp),%edx
c010855f:	8b 52 04             	mov    0x4(%edx),%edx
c0108562:	83 ec 04             	sub    $0x4,%esp
c0108565:	50                   	push   %eax
c0108566:	ff 75 08             	pushl  0x8(%ebp)
c0108569:	52                   	push   %edx
c010856a:	e8 c7 9b 00 00       	call   c0112136 <memcmp>
c010856f:	83 c4 10             	add    $0x10,%esp
c0108572:	85 c0                	test   %eax,%eax
c0108574:	75 05                	jne    c010857b <get_stream_dev+0x58>
c0108576:	8b 45 f0             	mov    -0x10(%ebp),%eax
c0108579:	eb 14                	jmp    c010858f <get_stream_dev+0x6c>
c010857b:	8b 45 f4             	mov    -0xc(%ebp),%eax
c010857e:	8b 40 04             	mov    0x4(%eax),%eax
c0108581:	89 45 f4             	mov    %eax,-0xc(%ebp)
c0108584:	83 7d f4 00          	cmpl   $0x0,-0xc(%ebp)
c0108588:	75 bc                	jne    c0108546 <get_stream_dev+0x23>
c010858a:	b8 00 00 00 00       	mov    $0x0,%eax
c010858f:	c9                   	leave  
c0108590:	c3                   	ret    

c0108591 <get_block_dev>:
c0108591:	55                   	push   %ebp
c0108592:	89 e5                	mov    %esp,%ebp
c0108594:	b8 00 00 00 00       	mov    $0x0,%eax
c0108599:	5d                   	pop    %ebp
c010859a:	c3                   	ret    

c010859b <unregister_stream_dev>:
c010859b:	55                   	push   %ebp
c010859c:	89 e5                	mov    %esp,%ebp
c010859e:	83 ec 18             	sub    $0x18,%esp
c01085a1:	a1 c8 28 10 c0       	mov    0xc01028c8,%eax
c01085a6:	83 ec 0c             	sub    $0xc,%esp
c01085a9:	50                   	push   %eax
c01085aa:	e8 1c 3e 00 00       	call   c010c3cb <kql_acquire>
c01085af:	83 c4 10             	add    $0x10,%esp
c01085b2:	a1 cc 28 10 c0       	mov    0xc01028cc,%eax
c01085b7:	8b 00                	mov    (%eax),%eax
c01085b9:	89 45 f4             	mov    %eax,-0xc(%ebp)
c01085bc:	eb 3a                	jmp    c01085f8 <unregister_stream_dev+0x5d>
c01085be:	8b 45 f4             	mov    -0xc(%ebp),%eax
c01085c1:	8b 00                	mov    (%eax),%eax
c01085c3:	39 45 08             	cmp    %eax,0x8(%ebp)
c01085c6:	75 27                	jne    c01085ef <unregister_stream_dev+0x54>
c01085c8:	a1 d0 28 10 c0       	mov    0xc01028d0,%eax
c01085cd:	83 ec 08             	sub    $0x8,%esp
c01085d0:	ff 75 f4             	pushl  -0xc(%ebp)
c01085d3:	50                   	push   %eax
c01085d4:	e8 80 a0 00 00       	call   c0112659 <list_remove_node>
c01085d9:	83 c4 10             	add    $0x10,%esp
c01085dc:	a1 c8 28 10 c0       	mov    0xc01028c8,%eax
c01085e1:	83 ec 0c             	sub    $0xc,%esp
c01085e4:	50                   	push   %eax
c01085e5:	e8 97 3e 00 00       	call   c010c481 <kql_release>
c01085ea:	83 c4 10             	add    $0x10,%esp
c01085ed:	eb 30                	jmp    c010861f <unregister_stream_dev+0x84>
c01085ef:	8b 45 f4             	mov    -0xc(%ebp),%eax
c01085f2:	8b 40 04             	mov    0x4(%eax),%eax
c01085f5:	89 45 f4             	mov    %eax,-0xc(%ebp)
c01085f8:	83 7d f4 00          	cmpl   $0x0,-0xc(%ebp)
c01085fc:	75 c0                	jne    c01085be <unregister_stream_dev+0x23>
c01085fe:	83 ec 0c             	sub    $0xc,%esp
c0108601:	68 60 30 11 c0       	push   $0xc0113060
c0108606:	e8 98 9b 00 00       	call   c01121a3 <panic>
c010860b:	83 c4 10             	add    $0x10,%esp
c010860e:	a1 c8 28 10 c0       	mov    0xc01028c8,%eax
c0108613:	83 ec 0c             	sub    $0xc,%esp
c0108616:	50                   	push   %eax
c0108617:	e8 65 3e 00 00       	call   c010c481 <kql_release>
c010861c:	83 c4 10             	add    $0x10,%esp
c010861f:	c9                   	leave  
c0108620:	c3                   	ret    

c0108621 <unregister_block_dev>:
c0108621:	55                   	push   %ebp
c0108622:	89 e5                	mov    %esp,%ebp
c0108624:	90                   	nop
c0108625:	5d                   	pop    %ebp
c0108626:	c3                   	ret    

c0108627 <vga_entry>:
c0108627:	55                   	push   %ebp
c0108628:	89 e5                	mov    %esp,%ebp
c010862a:	83 ec 08             	sub    $0x8,%esp
c010862d:	8b 55 08             	mov    0x8(%ebp),%edx
c0108630:	8b 45 0c             	mov    0xc(%ebp),%eax
c0108633:	88 55 fc             	mov    %dl,-0x4(%ebp)
c0108636:	88 45 f8             	mov    %al,-0x8(%ebp)
c0108639:	0f b6 45 fc          	movzbl -0x4(%ebp),%eax
c010863d:	c1 e0 08             	shl    $0x8,%eax
c0108640:	89 c2                	mov    %eax,%edx
c0108642:	66 0f be 45 f8       	movsbw -0x8(%ebp),%ax
c0108647:	09 d0                	or     %edx,%eax
c0108649:	c9                   	leave  
c010864a:	c3                   	ret    

c010864b <set_vga_buffer>:
c010864b:	55                   	push   %ebp
c010864c:	89 e5                	mov    %esp,%ebp
c010864e:	53                   	push   %ebx
c010864f:	83 ec 18             	sub    $0x18,%esp
c0108652:	8b 55 10             	mov    0x10(%ebp),%edx
c0108655:	8b 45 14             	mov    0x14(%ebp),%eax
c0108658:	88 55 e8             	mov    %dl,-0x18(%ebp)
c010865b:	88 45 e4             	mov    %al,-0x1c(%ebp)
c010865e:	8b 55 08             	mov    0x8(%ebp),%edx
c0108661:	89 d0                	mov    %edx,%eax
c0108663:	c1 e0 02             	shl    $0x2,%eax
c0108666:	01 d0                	add    %edx,%eax
c0108668:	c1 e0 04             	shl    $0x4,%eax
c010866b:	89 c2                	mov    %eax,%edx
c010866d:	8b 45 0c             	mov    0xc(%ebp),%eax
c0108670:	01 d0                	add    %edx,%eax
c0108672:	89 45 f8             	mov    %eax,-0x8(%ebp)
c0108675:	0f be 55 e4          	movsbl -0x1c(%ebp),%edx
c0108679:	0f b6 45 e8          	movzbl -0x18(%ebp),%eax
c010867d:	8b 1d 04 60 11 c0    	mov    0xc0116004,%ebx
c0108683:	8b 4d f8             	mov    -0x8(%ebp),%ecx
c0108686:	01 c9                	add    %ecx,%ecx
c0108688:	01 cb                	add    %ecx,%ebx
c010868a:	52                   	push   %edx
c010868b:	50                   	push   %eax
c010868c:	e8 96 ff ff ff       	call   c0108627 <vga_entry>
c0108691:	83 c4 08             	add    $0x8,%esp
c0108694:	66 89 03             	mov    %ax,(%ebx)
c0108697:	90                   	nop
c0108698:	8b 5d fc             	mov    -0x4(%ebp),%ebx
c010869b:	c9                   	leave  
c010869c:	c3                   	ret    

c010869d <clear_screen>:
c010869d:	55                   	push   %ebp
c010869e:	89 e5                	mov    %esp,%ebp
c01086a0:	83 ec 10             	sub    $0x10,%esp
c01086a3:	c7 45 fc 00 00 00 00 	movl   $0x0,-0x4(%ebp)
c01086aa:	eb 32                	jmp    c01086de <clear_screen+0x41>
c01086ac:	c7 45 f8 00 00 00 00 	movl   $0x0,-0x8(%ebp)
c01086b3:	eb 1f                	jmp    c01086d4 <clear_screen+0x37>
c01086b5:	0f b6 05 08 60 11 c0 	movzbl 0xc0116008,%eax
c01086bc:	0f b6 c0             	movzbl %al,%eax
c01086bf:	6a 20                	push   $0x20
c01086c1:	50                   	push   %eax
c01086c2:	ff 75 fc             	pushl  -0x4(%ebp)
c01086c5:	ff 75 f8             	pushl  -0x8(%ebp)
c01086c8:	e8 7e ff ff ff       	call   c010864b <set_vga_buffer>
c01086cd:	83 c4 10             	add    $0x10,%esp
c01086d0:	83 45 f8 01          	addl   $0x1,-0x8(%ebp)
c01086d4:	83 7d f8 18          	cmpl   $0x18,-0x8(%ebp)
c01086d8:	7e db                	jle    c01086b5 <clear_screen+0x18>
c01086da:	83 45 fc 01          	addl   $0x1,-0x4(%ebp)
c01086de:	83 7d fc 4f          	cmpl   $0x4f,-0x4(%ebp)
c01086e2:	7e c8                	jle    c01086ac <clear_screen+0xf>
c01086e4:	90                   	nop
c01086e5:	90                   	nop
c01086e6:	c9                   	leave  
c01086e7:	c3                   	ret    

c01086e8 <enable_cursor>:
c01086e8:	55                   	push   %ebp
c01086e9:	89 e5                	mov    %esp,%ebp
c01086eb:	83 ec 18             	sub    $0x18,%esp
c01086ee:	83 ec 08             	sub    $0x8,%esp
c01086f1:	6a 0a                	push   $0xa
c01086f3:	68 d4 03 00 00       	push   $0x3d4
c01086f8:	e8 62 0a 00 00       	call   c010915f <port_int8_out>
c01086fd:	83 c4 10             	add    $0x10,%esp
c0108700:	83 ec 0c             	sub    $0xc,%esp
c0108703:	68 d5 03 00 00       	push   $0x3d5
c0108708:	e8 3c 0a 00 00       	call   c0109149 <port_int8_in>
c010870d:	83 c4 10             	add    $0x10,%esp
c0108710:	88 45 f7             	mov    %al,-0x9(%ebp)
c0108713:	0f b6 45 f7          	movzbl -0x9(%ebp),%eax
c0108717:	83 e0 c0             	and    $0xffffffc0,%eax
c010871a:	83 c8 0d             	or     $0xd,%eax
c010871d:	0f b6 c0             	movzbl %al,%eax
c0108720:	83 ec 08             	sub    $0x8,%esp
c0108723:	50                   	push   %eax
c0108724:	68 d5 03 00 00       	push   $0x3d5
c0108729:	e8 31 0a 00 00       	call   c010915f <port_int8_out>
c010872e:	83 c4 10             	add    $0x10,%esp
c0108731:	83 ec 08             	sub    $0x8,%esp
c0108734:	6a 0b                	push   $0xb
c0108736:	68 d4 03 00 00       	push   $0x3d4
c010873b:	e8 1f 0a 00 00       	call   c010915f <port_int8_out>
c0108740:	83 c4 10             	add    $0x10,%esp
c0108743:	83 ec 0c             	sub    $0xc,%esp
c0108746:	68 d5 03 00 00       	push   $0x3d5
c010874b:	e8 f9 09 00 00       	call   c0109149 <port_int8_in>
c0108750:	83 c4 10             	add    $0x10,%esp
c0108753:	88 45 f7             	mov    %al,-0x9(%ebp)
c0108756:	0f b6 45 f7          	movzbl -0x9(%ebp),%eax
c010875a:	83 e0 e0             	and    $0xffffffe0,%eax
c010875d:	83 c8 0f             	or     $0xf,%eax
c0108760:	0f b6 c0             	movzbl %al,%eax
c0108763:	83 ec 08             	sub    $0x8,%esp
c0108766:	50                   	push   %eax
c0108767:	68 d5 03 00 00       	push   $0x3d5
c010876c:	e8 ee 09 00 00       	call   c010915f <port_int8_out>
c0108771:	83 c4 10             	add    $0x10,%esp
c0108774:	90                   	nop
c0108775:	c9                   	leave  
c0108776:	c3                   	ret    

c0108777 <disable_cursor>:
c0108777:	55                   	push   %ebp
c0108778:	89 e5                	mov    %esp,%ebp
c010877a:	83 ec 08             	sub    $0x8,%esp
c010877d:	83 ec 08             	sub    $0x8,%esp
c0108780:	6a 0a                	push   $0xa
c0108782:	68 d4 03 00 00       	push   $0x3d4
c0108787:	e8 d3 09 00 00       	call   c010915f <port_int8_out>
c010878c:	83 c4 10             	add    $0x10,%esp
c010878f:	83 ec 08             	sub    $0x8,%esp
c0108792:	6a 20                	push   $0x20
c0108794:	68 d5 03 00 00       	push   $0x3d5
c0108799:	e8 c1 09 00 00       	call   c010915f <port_int8_out>
c010879e:	83 c4 10             	add    $0x10,%esp
c01087a1:	90                   	nop
c01087a2:	c9                   	leave  
c01087a3:	c3                   	ret    

c01087a4 <move_cursor>:
c01087a4:	55                   	push   %ebp
c01087a5:	89 e5                	mov    %esp,%ebp
c01087a7:	83 ec 18             	sub    $0x18,%esp
c01087aa:	8b 45 08             	mov    0x8(%ebp),%eax
c01087ad:	89 c2                	mov    %eax,%edx
c01087af:	89 d0                	mov    %edx,%eax
c01087b1:	c1 e0 02             	shl    $0x2,%eax
c01087b4:	01 d0                	add    %edx,%eax
c01087b6:	c1 e0 04             	shl    $0x4,%eax
c01087b9:	89 c2                	mov    %eax,%edx
c01087bb:	8b 45 0c             	mov    0xc(%ebp),%eax
c01087be:	01 d0                	add    %edx,%eax
c01087c0:	66 89 45 f6          	mov    %ax,-0xa(%ebp)
c01087c4:	83 ec 08             	sub    $0x8,%esp
c01087c7:	6a 0f                	push   $0xf
c01087c9:	68 d4 03 00 00       	push   $0x3d4
c01087ce:	e8 8c 09 00 00       	call   c010915f <port_int8_out>
c01087d3:	83 c4 10             	add    $0x10,%esp
c01087d6:	0f b7 45 f6          	movzwl -0xa(%ebp),%eax
c01087da:	0f b6 c0             	movzbl %al,%eax
c01087dd:	83 ec 08             	sub    $0x8,%esp
c01087e0:	50                   	push   %eax
c01087e1:	68 d5 03 00 00       	push   $0x3d5
c01087e6:	e8 74 09 00 00       	call   c010915f <port_int8_out>
c01087eb:	83 c4 10             	add    $0x10,%esp
c01087ee:	83 ec 08             	sub    $0x8,%esp
c01087f1:	6a 0e                	push   $0xe
c01087f3:	68 d4 03 00 00       	push   $0x3d4
c01087f8:	e8 62 09 00 00       	call   c010915f <port_int8_out>
c01087fd:	83 c4 10             	add    $0x10,%esp
c0108800:	0f b7 45 f6          	movzwl -0xa(%ebp),%eax
c0108804:	66 c1 e8 08          	shr    $0x8,%ax
c0108808:	0f b6 c0             	movzbl %al,%eax
c010880b:	83 ec 08             	sub    $0x8,%esp
c010880e:	50                   	push   %eax
c010880f:	68 d5 03 00 00       	push   $0x3d5
c0108814:	e8 46 09 00 00       	call   c010915f <port_int8_out>
c0108819:	83 c4 10             	add    $0x10,%esp
c010881c:	90                   	nop
c010881d:	c9                   	leave  
c010881e:	c3                   	ret    

c010881f <start_init_vga_driver>:
c010881f:	55                   	push   %ebp
c0108820:	89 e5                	mov    %esp,%ebp
c0108822:	83 ec 08             	sub    $0x8,%esp
c0108825:	e8 73 fe ff ff       	call   c010869d <clear_screen>
c010882a:	e8 b9 fe ff ff       	call   c01086e8 <enable_cursor>
c010882f:	83 ec 08             	sub    $0x8,%esp
c0108832:	6a 00                	push   $0x0
c0108834:	6a 00                	push   $0x0
c0108836:	e8 69 ff ff ff       	call   c01087a4 <move_cursor>
c010883b:	83 c4 10             	add    $0x10,%esp
c010883e:	90                   	nop
c010883f:	c9                   	leave  
c0108840:	c3                   	ret    

c0108841 <private_putchar>:
c0108841:	55                   	push   %ebp
c0108842:	89 e5                	mov    %esp,%ebp
c0108844:	53                   	push   %ebx
c0108845:	83 ec 04             	sub    $0x4,%esp
c0108848:	8b 45 08             	mov    0x8(%ebp),%eax
c010884b:	88 45 f8             	mov    %al,-0x8(%ebp)
c010884e:	a1 e4 28 10 c0       	mov    0xc01028e4,%eax
c0108853:	83 f8 18             	cmp    $0x18,%eax
c0108856:	76 19                	jbe    c0108871 <private_putchar+0x30>
c0108858:	c7 05 e0 28 10 c0 00 	movl   $0x0,0xc01028e0
c010885f:	00 00 00 
c0108862:	c7 05 e4 28 10 c0 00 	movl   $0x0,0xc01028e4
c0108869:	00 00 00 
c010886c:	e8 2c fe ff ff       	call   c010869d <clear_screen>
c0108871:	0f be 45 f8          	movsbl -0x8(%ebp),%eax
c0108875:	83 f8 0d             	cmp    $0xd,%eax
c0108878:	74 0f                	je     c0108889 <private_putchar+0x48>
c010887a:	83 f8 0d             	cmp    $0xd,%eax
c010887d:	7f 3f                	jg     c01088be <private_putchar+0x7d>
c010887f:	83 f8 09             	cmp    $0x9,%eax
c0108882:	74 1e                	je     c01088a2 <private_putchar+0x61>
c0108884:	83 f8 0a             	cmp    $0xa,%eax
c0108887:	75 35                	jne    c01088be <private_putchar+0x7d>
c0108889:	a1 e4 28 10 c0       	mov    0xc01028e4,%eax
c010888e:	83 c0 01             	add    $0x1,%eax
c0108891:	a3 e4 28 10 c0       	mov    %eax,0xc01028e4
c0108896:	c7 05 e0 28 10 c0 00 	movl   $0x0,0xc01028e0
c010889d:	00 00 00 
c01088a0:	eb 52                	jmp    c01088f4 <private_putchar+0xb3>
c01088a2:	a1 e0 28 10 c0       	mov    0xc01028e0,%eax
c01088a7:	83 e0 f8             	and    $0xfffffff8,%eax
c01088aa:	a3 e0 28 10 c0       	mov    %eax,0xc01028e0
c01088af:	a1 e0 28 10 c0       	mov    0xc01028e0,%eax
c01088b4:	83 c0 08             	add    $0x8,%eax
c01088b7:	a3 e0 28 10 c0       	mov    %eax,0xc01028e0
c01088bc:	eb 36                	jmp    c01088f4 <private_putchar+0xb3>
c01088be:	0f be 55 f8          	movsbl -0x8(%ebp),%edx
c01088c2:	0f b6 05 08 60 11 c0 	movzbl 0xc0116008,%eax
c01088c9:	0f b6 c0             	movzbl %al,%eax
c01088cc:	8b 0d e0 28 10 c0    	mov    0xc01028e0,%ecx
c01088d2:	89 cb                	mov    %ecx,%ebx
c01088d4:	8b 0d e4 28 10 c0    	mov    0xc01028e4,%ecx
c01088da:	52                   	push   %edx
c01088db:	50                   	push   %eax
c01088dc:	53                   	push   %ebx
c01088dd:	51                   	push   %ecx
c01088de:	e8 68 fd ff ff       	call   c010864b <set_vga_buffer>
c01088e3:	83 c4 10             	add    $0x10,%esp
c01088e6:	a1 e0 28 10 c0       	mov    0xc01028e0,%eax
c01088eb:	83 c0 01             	add    $0x1,%eax
c01088ee:	a3 e0 28 10 c0       	mov    %eax,0xc01028e0
c01088f3:	90                   	nop
c01088f4:	a1 e0 28 10 c0       	mov    0xc01028e0,%eax
c01088f9:	83 f8 4f             	cmp    $0x4f,%eax
c01088fc:	76 17                	jbe    c0108915 <private_putchar+0xd4>
c01088fe:	c7 05 e0 28 10 c0 00 	movl   $0x0,0xc01028e0
c0108905:	00 00 00 
c0108908:	a1 e4 28 10 c0       	mov    0xc01028e4,%eax
c010890d:	83 c0 01             	add    $0x1,%eax
c0108910:	a3 e4 28 10 c0       	mov    %eax,0xc01028e4
c0108915:	90                   	nop
c0108916:	8b 5d fc             	mov    -0x4(%ebp),%ebx
c0108919:	c9                   	leave  
c010891a:	c3                   	ret    

c010891b <vga_putchar>:
c010891b:	55                   	push   %ebp
c010891c:	89 e5                	mov    %esp,%ebp
c010891e:	83 ec 18             	sub    $0x18,%esp
c0108921:	8b 45 08             	mov    0x8(%ebp),%eax
c0108924:	88 45 f4             	mov    %al,-0xc(%ebp)
c0108927:	0f be 45 f4          	movsbl -0xc(%ebp),%eax
c010892b:	50                   	push   %eax
c010892c:	e8 10 ff ff ff       	call   c0108841 <private_putchar>
c0108931:	83 c4 04             	add    $0x4,%esp
c0108934:	a1 e0 28 10 c0       	mov    0xc01028e0,%eax
c0108939:	89 c2                	mov    %eax,%edx
c010893b:	a1 e4 28 10 c0       	mov    0xc01028e4,%eax
c0108940:	83 ec 08             	sub    $0x8,%esp
c0108943:	52                   	push   %edx
c0108944:	50                   	push   %eax
c0108945:	e8 5a fe ff ff       	call   c01087a4 <move_cursor>
c010894a:	83 c4 10             	add    $0x10,%esp
c010894d:	90                   	nop
c010894e:	c9                   	leave  
c010894f:	c3                   	ret    

c0108950 <vga_print_mem>:
c0108950:	55                   	push   %ebp
c0108951:	89 e5                	mov    %esp,%ebp
c0108953:	83 ec 10             	sub    $0x10,%esp
c0108956:	c7 45 fc 00 00 00 00 	movl   $0x0,-0x4(%ebp)
c010895d:	eb 56                	jmp    c01089b5 <vga_print_mem+0x65>
c010895f:	8b 55 08             	mov    0x8(%ebp),%edx
c0108962:	8b 45 fc             	mov    -0x4(%ebp),%eax
c0108965:	01 d0                	add    %edx,%eax
c0108967:	0f b6 00             	movzbl (%eax),%eax
c010896a:	88 45 fb             	mov    %al,-0x5(%ebp)
c010896d:	0f b6 45 fb          	movzbl -0x5(%ebp),%eax
c0108971:	c0 e8 04             	shr    $0x4,%al
c0108974:	0f b6 c0             	movzbl %al,%eax
c0108977:	83 e0 0f             	and    $0xf,%eax
c010897a:	0f b6 80 0c 60 11 c0 	movzbl -0x3fee9ff4(%eax),%eax
c0108981:	0f be c0             	movsbl %al,%eax
c0108984:	50                   	push   %eax
c0108985:	e8 b7 fe ff ff       	call   c0108841 <private_putchar>
c010898a:	83 c4 04             	add    $0x4,%esp
c010898d:	0f b6 45 fb          	movzbl -0x5(%ebp),%eax
c0108991:	83 e0 0f             	and    $0xf,%eax
c0108994:	0f b6 80 0c 60 11 c0 	movzbl -0x3fee9ff4(%eax),%eax
c010899b:	0f be c0             	movsbl %al,%eax
c010899e:	50                   	push   %eax
c010899f:	e8 9d fe ff ff       	call   c0108841 <private_putchar>
c01089a4:	83 c4 04             	add    $0x4,%esp
c01089a7:	6a 20                	push   $0x20
c01089a9:	e8 93 fe ff ff       	call   c0108841 <private_putchar>
c01089ae:	83 c4 04             	add    $0x4,%esp
c01089b1:	83 45 fc 01          	addl   $0x1,-0x4(%ebp)
c01089b5:	8b 45 fc             	mov    -0x4(%ebp),%eax
c01089b8:	3b 45 0c             	cmp    0xc(%ebp),%eax
c01089bb:	72 a2                	jb     c010895f <vga_print_mem+0xf>
c01089bd:	90                   	nop
c01089be:	90                   	nop
c01089bf:	c9                   	leave  
c01089c0:	c3                   	ret    

c01089c1 <vga_print>:
c01089c1:	55                   	push   %ebp
c01089c2:	89 e5                	mov    %esp,%ebp
c01089c4:	83 ec 18             	sub    $0x18,%esp
c01089c7:	c7 45 f4 00 00 00 00 	movl   $0x0,-0xc(%ebp)
c01089ce:	eb 1b                	jmp    c01089eb <vga_print+0x2a>
c01089d0:	8b 55 08             	mov    0x8(%ebp),%edx
c01089d3:	8b 45 f4             	mov    -0xc(%ebp),%eax
c01089d6:	01 d0                	add    %edx,%eax
c01089d8:	0f b6 00             	movzbl (%eax),%eax
c01089db:	0f be c0             	movsbl %al,%eax
c01089de:	50                   	push   %eax
c01089df:	e8 5d fe ff ff       	call   c0108841 <private_putchar>
c01089e4:	83 c4 04             	add    $0x4,%esp
c01089e7:	83 45 f4 01          	addl   $0x1,-0xc(%ebp)
c01089eb:	8b 55 08             	mov    0x8(%ebp),%edx
c01089ee:	8b 45 f4             	mov    -0xc(%ebp),%eax
c01089f1:	01 d0                	add    %edx,%eax
c01089f3:	0f b6 00             	movzbl (%eax),%eax
c01089f6:	84 c0                	test   %al,%al
c01089f8:	75 d6                	jne    c01089d0 <vga_print+0xf>
c01089fa:	a1 e0 28 10 c0       	mov    0xc01028e0,%eax
c01089ff:	89 c2                	mov    %eax,%edx
c0108a01:	a1 e4 28 10 c0       	mov    0xc01028e4,%eax
c0108a06:	83 ec 08             	sub    $0x8,%esp
c0108a09:	52                   	push   %edx
c0108a0a:	50                   	push   %eax
c0108a0b:	e8 94 fd ff ff       	call   c01087a4 <move_cursor>
c0108a10:	83 c4 10             	add    $0x10,%esp
c0108a13:	90                   	nop
c0108a14:	c9                   	leave  
c0108a15:	c3                   	ret    

c0108a16 <min>:
c0108a16:	55                   	push   %ebp
c0108a17:	89 e5                	mov    %esp,%ebp
c0108a19:	8b 45 08             	mov    0x8(%ebp),%eax
c0108a1c:	39 45 0c             	cmp    %eax,0xc(%ebp)
c0108a1f:	0f 46 45 0c          	cmovbe 0xc(%ebp),%eax
c0108a23:	5d                   	pop    %ebp
c0108a24:	c3                   	ret    

c0108a25 <vga_write_buffer>:
c0108a25:	55                   	push   %ebp
c0108a26:	89 e5                	mov    %esp,%ebp
c0108a28:	83 ec 18             	sub    $0x18,%esp
c0108a2b:	a1 d8 28 10 c0       	mov    0xc01028d8,%eax
c0108a30:	83 ec 08             	sub    $0x8,%esp
c0108a33:	50                   	push   %eax
c0108a34:	68 8c 30 11 c0       	push   $0xc011308c
c0108a39:	e8 e5 91 00 00       	call   c0111c23 <printf>
c0108a3e:	83 c4 10             	add    $0x10,%esp
c0108a41:	a1 dc 28 10 c0       	mov    0xc01028dc,%eax
c0108a46:	83 ec 0c             	sub    $0xc,%esp
c0108a49:	50                   	push   %eax
c0108a4a:	e8 7c 39 00 00       	call   c010c3cb <kql_acquire>
c0108a4f:	83 c4 10             	add    $0x10,%esp
c0108a52:	c7 45 f4 00 00 00 00 	movl   $0x0,-0xc(%ebp)
c0108a59:	a1 d8 28 10 c0       	mov    0xc01028d8,%eax
c0108a5e:	85 c0                	test   %eax,%eax
c0108a60:	75 1b                	jne    c0108a7d <vga_write_buffer+0x58>
c0108a62:	83 7d 0c 00          	cmpl   $0x0,0xc(%ebp)
c0108a66:	74 15                	je     c0108a7d <vga_write_buffer+0x58>
c0108a68:	83 45 f4 01          	addl   $0x1,-0xc(%ebp)
c0108a6c:	a1 d8 28 10 c0       	mov    0xc01028d8,%eax
c0108a71:	83 c0 01             	add    $0x1,%eax
c0108a74:	a3 d8 28 10 c0       	mov    %eax,0xc01028d8
c0108a79:	83 6d 0c 01          	subl   $0x1,0xc(%ebp)
c0108a7d:	a1 d8 28 10 c0       	mov    0xc01028d8,%eax
c0108a82:	83 f8 01             	cmp    $0x1,%eax
c0108a85:	75 1b                	jne    c0108aa2 <vga_write_buffer+0x7d>
c0108a87:	83 7d 0c 00          	cmpl   $0x0,0xc(%ebp)
c0108a8b:	74 15                	je     c0108aa2 <vga_write_buffer+0x7d>
c0108a8d:	83 45 f4 01          	addl   $0x1,-0xc(%ebp)
c0108a91:	a1 d8 28 10 c0       	mov    0xc01028d8,%eax
c0108a96:	83 c0 01             	add    $0x1,%eax
c0108a99:	a3 d8 28 10 c0       	mov    %eax,0xc01028d8
c0108a9e:	83 6d 0c 01          	subl   $0x1,0xc(%ebp)
c0108aa2:	a1 d8 28 10 c0       	mov    0xc01028d8,%eax
c0108aa7:	83 f8 02             	cmp    $0x2,%eax
c0108aaa:	75 47                	jne    c0108af3 <vga_write_buffer+0xce>
c0108aac:	83 7d 0c 00          	cmpl   $0x0,0xc(%ebp)
c0108ab0:	74 41                	je     c0108af3 <vga_write_buffer+0xce>
c0108ab2:	8b 55 08             	mov    0x8(%ebp),%edx
c0108ab5:	8b 45 f4             	mov    -0xc(%ebp),%eax
c0108ab8:	01 d0                	add    %edx,%eax
c0108aba:	0f b6 00             	movzbl (%eax),%eax
c0108abd:	0f b6 c0             	movzbl %al,%eax
c0108ac0:	a3 e4 28 10 c0       	mov    %eax,0xc01028e4
c0108ac5:	83 45 f4 01          	addl   $0x1,-0xc(%ebp)
c0108ac9:	a1 d8 28 10 c0       	mov    0xc01028d8,%eax
c0108ace:	83 c0 01             	add    $0x1,%eax
c0108ad1:	a3 d8 28 10 c0       	mov    %eax,0xc01028d8
c0108ad6:	83 6d 0c 01          	subl   $0x1,0xc(%ebp)
c0108ada:	a1 e0 28 10 c0       	mov    0xc01028e0,%eax
c0108adf:	89 c2                	mov    %eax,%edx
c0108ae1:	a1 e4 28 10 c0       	mov    0xc01028e4,%eax
c0108ae6:	83 ec 08             	sub    $0x8,%esp
c0108ae9:	52                   	push   %edx
c0108aea:	50                   	push   %eax
c0108aeb:	e8 b4 fc ff ff       	call   c01087a4 <move_cursor>
c0108af0:	83 c4 10             	add    $0x10,%esp
c0108af3:	a1 d8 28 10 c0       	mov    0xc01028d8,%eax
c0108af8:	83 f8 03             	cmp    $0x3,%eax
c0108afb:	75 47                	jne    c0108b44 <vga_write_buffer+0x11f>
c0108afd:	83 7d 0c 00          	cmpl   $0x0,0xc(%ebp)
c0108b01:	74 41                	je     c0108b44 <vga_write_buffer+0x11f>
c0108b03:	8b 55 08             	mov    0x8(%ebp),%edx
c0108b06:	8b 45 f4             	mov    -0xc(%ebp),%eax
c0108b09:	01 d0                	add    %edx,%eax
c0108b0b:	0f b6 00             	movzbl (%eax),%eax
c0108b0e:	0f b6 c0             	movzbl %al,%eax
c0108b11:	a3 e0 28 10 c0       	mov    %eax,0xc01028e0
c0108b16:	83 45 f4 01          	addl   $0x1,-0xc(%ebp)
c0108b1a:	a1 d8 28 10 c0       	mov    0xc01028d8,%eax
c0108b1f:	83 c0 01             	add    $0x1,%eax
c0108b22:	a3 d8 28 10 c0       	mov    %eax,0xc01028d8
c0108b27:	83 6d 0c 01          	subl   $0x1,0xc(%ebp)
c0108b2b:	a1 e0 28 10 c0       	mov    0xc01028e0,%eax
c0108b30:	89 c2                	mov    %eax,%edx
c0108b32:	a1 e4 28 10 c0       	mov    0xc01028e4,%eax
c0108b37:	83 ec 08             	sub    $0x8,%esp
c0108b3a:	52                   	push   %edx
c0108b3b:	50                   	push   %eax
c0108b3c:	e8 63 fc ff ff       	call   c01087a4 <move_cursor>
c0108b41:	83 c4 10             	add    $0x10,%esp
c0108b44:	8b 15 d8 28 10 c0    	mov    0xc01028d8,%edx
c0108b4a:	b8 a4 0f 00 00       	mov    $0xfa4,%eax
c0108b4f:	29 d0                	sub    %edx,%eax
c0108b51:	83 ec 08             	sub    $0x8,%esp
c0108b54:	50                   	push   %eax
c0108b55:	ff 75 0c             	pushl  0xc(%ebp)
c0108b58:	e8 b9 fe ff ff       	call   c0108a16 <min>
c0108b5d:	83 c4 10             	add    $0x10,%esp
c0108b60:	89 45 0c             	mov    %eax,0xc(%ebp)
c0108b63:	8b 55 08             	mov    0x8(%ebp),%edx
c0108b66:	8b 45 f4             	mov    -0xc(%ebp),%eax
c0108b69:	01 c2                	add    %eax,%edx
c0108b6b:	8b 0d 04 60 11 c0    	mov    0xc0116004,%ecx
c0108b71:	a1 d8 28 10 c0       	mov    0xc01028d8,%eax
c0108b76:	83 e8 04             	sub    $0x4,%eax
c0108b79:	01 c8                	add    %ecx,%eax
c0108b7b:	83 ec 04             	sub    $0x4,%esp
c0108b7e:	ff 75 0c             	pushl  0xc(%ebp)
c0108b81:	52                   	push   %edx
c0108b82:	50                   	push   %eax
c0108b83:	e8 ce 95 00 00       	call   c0112156 <memcpy>
c0108b88:	83 c4 10             	add    $0x10,%esp
c0108b8b:	8b 15 d8 28 10 c0    	mov    0xc01028d8,%edx
c0108b91:	8b 45 0c             	mov    0xc(%ebp),%eax
c0108b94:	01 d0                	add    %edx,%eax
c0108b96:	a3 d8 28 10 c0       	mov    %eax,0xc01028d8
c0108b9b:	a1 dc 28 10 c0       	mov    0xc01028dc,%eax
c0108ba0:	83 ec 0c             	sub    $0xc,%esp
c0108ba3:	50                   	push   %eax
c0108ba4:	e8 d8 38 00 00       	call   c010c481 <kql_release>
c0108ba9:	83 c4 10             	add    $0x10,%esp
c0108bac:	b8 00 00 00 00       	mov    $0x0,%eax
c0108bb1:	c9                   	leave  
c0108bb2:	c3                   	ret    

c0108bb3 <vga_read_buffer>:
c0108bb3:	55                   	push   %ebp
c0108bb4:	89 e5                	mov    %esp,%ebp
c0108bb6:	83 ec 18             	sub    $0x18,%esp
c0108bb9:	a1 dc 28 10 c0       	mov    0xc01028dc,%eax
c0108bbe:	83 ec 0c             	sub    $0xc,%esp
c0108bc1:	50                   	push   %eax
c0108bc2:	e8 04 38 00 00       	call   c010c3cb <kql_acquire>
c0108bc7:	83 c4 10             	add    $0x10,%esp
c0108bca:	c7 45 f4 00 00 00 00 	movl   $0x0,-0xc(%ebp)
c0108bd1:	a1 d8 28 10 c0       	mov    0xc01028d8,%eax
c0108bd6:	85 c0                	test   %eax,%eax
c0108bd8:	75 26                	jne    c0108c00 <vga_read_buffer+0x4d>
c0108bda:	83 7d 0c 00          	cmpl   $0x0,0xc(%ebp)
c0108bde:	74 20                	je     c0108c00 <vga_read_buffer+0x4d>
c0108be0:	8b 55 08             	mov    0x8(%ebp),%edx
c0108be3:	8b 45 f4             	mov    -0xc(%ebp),%eax
c0108be6:	01 d0                	add    %edx,%eax
c0108be8:	c6 00 19             	movb   $0x19,(%eax)
c0108beb:	83 45 f4 01          	addl   $0x1,-0xc(%ebp)
c0108bef:	a1 d8 28 10 c0       	mov    0xc01028d8,%eax
c0108bf4:	83 c0 01             	add    $0x1,%eax
c0108bf7:	a3 d8 28 10 c0       	mov    %eax,0xc01028d8
c0108bfc:	83 6d 0c 01          	subl   $0x1,0xc(%ebp)
c0108c00:	a1 d8 28 10 c0       	mov    0xc01028d8,%eax
c0108c05:	83 f8 01             	cmp    $0x1,%eax
c0108c08:	75 26                	jne    c0108c30 <vga_read_buffer+0x7d>
c0108c0a:	83 7d 0c 00          	cmpl   $0x0,0xc(%ebp)
c0108c0e:	74 20                	je     c0108c30 <vga_read_buffer+0x7d>
c0108c10:	8b 55 08             	mov    0x8(%ebp),%edx
c0108c13:	8b 45 f4             	mov    -0xc(%ebp),%eax
c0108c16:	01 d0                	add    %edx,%eax
c0108c18:	c6 00 50             	movb   $0x50,(%eax)
c0108c1b:	83 45 f4 01          	addl   $0x1,-0xc(%ebp)
c0108c1f:	a1 d8 28 10 c0       	mov    0xc01028d8,%eax
c0108c24:	83 c0 01             	add    $0x1,%eax
c0108c27:	a3 d8 28 10 c0       	mov    %eax,0xc01028d8
c0108c2c:	83 6d 0c 01          	subl   $0x1,0xc(%ebp)
c0108c30:	a1 d8 28 10 c0       	mov    0xc01028d8,%eax
c0108c35:	83 f8 02             	cmp    $0x2,%eax
c0108c38:	75 2b                	jne    c0108c65 <vga_read_buffer+0xb2>
c0108c3a:	83 7d 0c 00          	cmpl   $0x0,0xc(%ebp)
c0108c3e:	74 25                	je     c0108c65 <vga_read_buffer+0xb2>
c0108c40:	8b 15 e4 28 10 c0    	mov    0xc01028e4,%edx
c0108c46:	8b 4d 08             	mov    0x8(%ebp),%ecx
c0108c49:	8b 45 f4             	mov    -0xc(%ebp),%eax
c0108c4c:	01 c8                	add    %ecx,%eax
c0108c4e:	88 10                	mov    %dl,(%eax)
c0108c50:	83 45 f4 01          	addl   $0x1,-0xc(%ebp)
c0108c54:	a1 d8 28 10 c0       	mov    0xc01028d8,%eax
c0108c59:	83 c0 01             	add    $0x1,%eax
c0108c5c:	a3 d8 28 10 c0       	mov    %eax,0xc01028d8
c0108c61:	83 6d 0c 01          	subl   $0x1,0xc(%ebp)
c0108c65:	a1 d8 28 10 c0       	mov    0xc01028d8,%eax
c0108c6a:	83 f8 03             	cmp    $0x3,%eax
c0108c6d:	75 2b                	jne    c0108c9a <vga_read_buffer+0xe7>
c0108c6f:	83 7d 0c 00          	cmpl   $0x0,0xc(%ebp)
c0108c73:	74 25                	je     c0108c9a <vga_read_buffer+0xe7>
c0108c75:	8b 15 e0 28 10 c0    	mov    0xc01028e0,%edx
c0108c7b:	8b 4d 08             	mov    0x8(%ebp),%ecx
c0108c7e:	8b 45 f4             	mov    -0xc(%ebp),%eax
c0108c81:	01 c8                	add    %ecx,%eax
c0108c83:	88 10                	mov    %dl,(%eax)
c0108c85:	83 45 f4 01          	addl   $0x1,-0xc(%ebp)
c0108c89:	a1 d8 28 10 c0       	mov    0xc01028d8,%eax
c0108c8e:	83 c0 01             	add    $0x1,%eax
c0108c91:	a3 d8 28 10 c0       	mov    %eax,0xc01028d8
c0108c96:	83 6d 0c 01          	subl   $0x1,0xc(%ebp)
c0108c9a:	8b 15 d8 28 10 c0    	mov    0xc01028d8,%edx
c0108ca0:	b8 a4 0f 00 00       	mov    $0xfa4,%eax
c0108ca5:	29 d0                	sub    %edx,%eax
c0108ca7:	83 ec 08             	sub    $0x8,%esp
c0108caa:	50                   	push   %eax
c0108cab:	ff 75 0c             	pushl  0xc(%ebp)
c0108cae:	e8 63 fd ff ff       	call   c0108a16 <min>
c0108cb3:	83 c4 10             	add    $0x10,%esp
c0108cb6:	89 45 0c             	mov    %eax,0xc(%ebp)
c0108cb9:	8b 15 04 60 11 c0    	mov    0xc0116004,%edx
c0108cbf:	a1 d8 28 10 c0       	mov    0xc01028d8,%eax
c0108cc4:	83 e8 04             	sub    $0x4,%eax
c0108cc7:	01 c2                	add    %eax,%edx
c0108cc9:	8b 4d 08             	mov    0x8(%ebp),%ecx
c0108ccc:	8b 45 f4             	mov    -0xc(%ebp),%eax
c0108ccf:	01 c8                	add    %ecx,%eax
c0108cd1:	83 ec 04             	sub    $0x4,%esp
c0108cd4:	ff 75 0c             	pushl  0xc(%ebp)
c0108cd7:	52                   	push   %edx
c0108cd8:	50                   	push   %eax
c0108cd9:	e8 78 94 00 00       	call   c0112156 <memcpy>
c0108cde:	83 c4 10             	add    $0x10,%esp
c0108ce1:	8b 15 d8 28 10 c0    	mov    0xc01028d8,%edx
c0108ce7:	8b 45 0c             	mov    0xc(%ebp),%eax
c0108cea:	01 d0                	add    %edx,%eax
c0108cec:	a3 d8 28 10 c0       	mov    %eax,0xc01028d8
c0108cf1:	a1 dc 28 10 c0       	mov    0xc01028dc,%eax
c0108cf6:	83 ec 0c             	sub    $0xc,%esp
c0108cf9:	50                   	push   %eax
c0108cfa:	e8 82 37 00 00       	call   c010c481 <kql_release>
c0108cff:	83 c4 10             	add    $0x10,%esp
c0108d02:	b8 00 00 00 00       	mov    $0x0,%eax
c0108d07:	c9                   	leave  
c0108d08:	c3                   	ret    

c0108d09 <vga_seek_buffer>:
c0108d09:	55                   	push   %ebp
c0108d0a:	89 e5                	mov    %esp,%ebp
c0108d0c:	83 ec 18             	sub    $0x18,%esp
c0108d0f:	8b 45 0c             	mov    0xc(%ebp),%eax
c0108d12:	88 45 f4             	mov    %al,-0xc(%ebp)
c0108d15:	a1 dc 28 10 c0       	mov    0xc01028dc,%eax
c0108d1a:	83 ec 0c             	sub    $0xc,%esp
c0108d1d:	50                   	push   %eax
c0108d1e:	e8 a8 36 00 00       	call   c010c3cb <kql_acquire>
c0108d23:	83 c4 10             	add    $0x10,%esp
c0108d26:	0f b6 45 f4          	movzbl -0xc(%ebp),%eax
c0108d2a:	83 f8 03             	cmp    $0x3,%eax
c0108d2d:	74 2b                	je     c0108d5a <vga_seek_buffer+0x51>
c0108d2f:	83 f8 03             	cmp    $0x3,%eax
c0108d32:	7f 35                	jg     c0108d69 <vga_seek_buffer+0x60>
c0108d34:	83 f8 01             	cmp    $0x1,%eax
c0108d37:	74 17                	je     c0108d50 <vga_seek_buffer+0x47>
c0108d39:	83 f8 02             	cmp    $0x2,%eax
c0108d3c:	75 2b                	jne    c0108d69 <vga_seek_buffer+0x60>
c0108d3e:	8b 15 d8 28 10 c0    	mov    0xc01028d8,%edx
c0108d44:	8b 45 08             	mov    0x8(%ebp),%eax
c0108d47:	01 d0                	add    %edx,%eax
c0108d49:	a3 d8 28 10 c0       	mov    %eax,0xc01028d8
c0108d4e:	eb 29                	jmp    c0108d79 <vga_seek_buffer+0x70>
c0108d50:	8b 45 08             	mov    0x8(%ebp),%eax
c0108d53:	a3 d8 28 10 c0       	mov    %eax,0xc01028d8
c0108d58:	eb 1f                	jmp    c0108d79 <vga_seek_buffer+0x70>
c0108d5a:	8b 45 08             	mov    0x8(%ebp),%eax
c0108d5d:	05 a4 0f 00 00       	add    $0xfa4,%eax
c0108d62:	a3 d8 28 10 c0       	mov    %eax,0xc01028d8
c0108d67:	eb 10                	jmp    c0108d79 <vga_seek_buffer+0x70>
c0108d69:	83 ec 0c             	sub    $0xc,%esp
c0108d6c:	68 b0 30 11 c0       	push   $0xc01130b0
c0108d71:	e8 4b fc ff ff       	call   c01089c1 <vga_print>
c0108d76:	83 c4 10             	add    $0x10,%esp
c0108d79:	a1 dc 28 10 c0       	mov    0xc01028dc,%eax
c0108d7e:	83 ec 0c             	sub    $0xc,%esp
c0108d81:	50                   	push   %eax
c0108d82:	e8 fa 36 00 00       	call   c010c481 <kql_release>
c0108d87:	83 c4 10             	add    $0x10,%esp
c0108d8a:	90                   	nop
c0108d8b:	c9                   	leave  
c0108d8c:	c3                   	ret    

c0108d8d <vga_write>:
c0108d8d:	55                   	push   %ebp
c0108d8e:	89 e5                	mov    %esp,%ebp
c0108d90:	83 ec 18             	sub    $0x18,%esp
c0108d93:	a1 dc 28 10 c0       	mov    0xc01028dc,%eax
c0108d98:	83 ec 0c             	sub    $0xc,%esp
c0108d9b:	50                   	push   %eax
c0108d9c:	e8 2a 36 00 00       	call   c010c3cb <kql_acquire>
c0108da1:	83 c4 10             	add    $0x10,%esp
c0108da4:	c7 45 f4 00 00 00 00 	movl   $0x0,-0xc(%ebp)
c0108dab:	eb 1e                	jmp    c0108dcb <vga_write+0x3e>
c0108dad:	8b 55 f4             	mov    -0xc(%ebp),%edx
c0108db0:	8b 45 08             	mov    0x8(%ebp),%eax
c0108db3:	01 d0                	add    %edx,%eax
c0108db5:	0f b6 00             	movzbl (%eax),%eax
c0108db8:	0f be c0             	movsbl %al,%eax
c0108dbb:	83 ec 0c             	sub    $0xc,%esp
c0108dbe:	50                   	push   %eax
c0108dbf:	e8 7d fa ff ff       	call   c0108841 <private_putchar>
c0108dc4:	83 c4 10             	add    $0x10,%esp
c0108dc7:	83 45 f4 01          	addl   $0x1,-0xc(%ebp)
c0108dcb:	8b 45 f4             	mov    -0xc(%ebp),%eax
c0108dce:	39 45 0c             	cmp    %eax,0xc(%ebp)
c0108dd1:	77 da                	ja     c0108dad <vga_write+0x20>
c0108dd3:	a1 e0 28 10 c0       	mov    0xc01028e0,%eax
c0108dd8:	89 c2                	mov    %eax,%edx
c0108dda:	a1 e4 28 10 c0       	mov    0xc01028e4,%eax
c0108ddf:	83 ec 08             	sub    $0x8,%esp
c0108de2:	52                   	push   %edx
c0108de3:	50                   	push   %eax
c0108de4:	e8 bb f9 ff ff       	call   c01087a4 <move_cursor>
c0108de9:	83 c4 10             	add    $0x10,%esp
c0108dec:	a1 dc 28 10 c0       	mov    0xc01028dc,%eax
c0108df1:	83 ec 0c             	sub    $0xc,%esp
c0108df4:	50                   	push   %eax
c0108df5:	e8 87 36 00 00       	call   c010c481 <kql_release>
c0108dfa:	83 c4 10             	add    $0x10,%esp
c0108dfd:	8b 45 0c             	mov    0xc(%ebp),%eax
c0108e00:	c9                   	leave  
c0108e01:	c3                   	ret    

c0108e02 <finish_init_vga_driver>:
c0108e02:	55                   	push   %ebp
c0108e03:	89 e5                	mov    %esp,%ebp
c0108e05:	83 ec 18             	sub    $0x18,%esp
c0108e08:	e8 2d 35 00 00       	call   c010c33a <kql_create>
c0108e0d:	a3 dc 28 10 c0       	mov    %eax,0xc01028dc
c0108e12:	c7 05 d8 28 10 c0 00 	movl   $0x0,0xc01028d8
c0108e19:	00 00 00 
c0108e1c:	83 ec 0c             	sub    $0xc,%esp
c0108e1f:	6a 18                	push   $0x18
c0108e21:	e8 ca 19 00 00       	call   c010a7f0 <kmalloc>
c0108e26:	83 c4 10             	add    $0x10,%esp
c0108e29:	89 45 f4             	mov    %eax,-0xc(%ebp)
c0108e2c:	e8 09 35 00 00       	call   c010c33a <kql_create>
c0108e31:	8b 55 f4             	mov    -0xc(%ebp),%edx
c0108e34:	89 02                	mov    %eax,(%edx)
c0108e36:	8b 45 f4             	mov    -0xc(%ebp),%eax
c0108e39:	c7 40 04 cf 30 11 c0 	movl   $0xc01130cf,0x4(%eax)
c0108e40:	8b 45 f4             	mov    -0xc(%ebp),%eax
c0108e43:	c6 40 08 07          	movb   $0x7,0x8(%eax)
c0108e47:	8b 45 f4             	mov    -0xc(%ebp),%eax
c0108e4a:	c7 40 10 25 8a 10 c0 	movl   $0xc0108a25,0x10(%eax)
c0108e51:	8b 45 f4             	mov    -0xc(%ebp),%eax
c0108e54:	c7 40 0c b3 8b 10 c0 	movl   $0xc0108bb3,0xc(%eax)
c0108e5b:	8b 45 f4             	mov    -0xc(%ebp),%eax
c0108e5e:	c7 40 14 09 8d 10 c0 	movl   $0xc0108d09,0x14(%eax)
c0108e65:	83 ec 0c             	sub    $0xc,%esp
c0108e68:	ff 75 f4             	pushl  -0xc(%ebp)
c0108e6b:	e8 6e f6 ff ff       	call   c01084de <register_stream_dev>
c0108e70:	83 c4 10             	add    $0x10,%esp
c0108e73:	83 ec 0c             	sub    $0xc,%esp
c0108e76:	6a 18                	push   $0x18
c0108e78:	e8 73 19 00 00       	call   c010a7f0 <kmalloc>
c0108e7d:	83 c4 10             	add    $0x10,%esp
c0108e80:	89 45 f4             	mov    %eax,-0xc(%ebp)
c0108e83:	e8 b2 34 00 00       	call   c010c33a <kql_create>
c0108e88:	8b 55 f4             	mov    -0xc(%ebp),%edx
c0108e8b:	89 02                	mov    %eax,(%edx)
c0108e8d:	8b 45 f4             	mov    -0xc(%ebp),%eax
c0108e90:	c7 40 04 da 30 11 c0 	movl   $0xc01130da,0x4(%eax)
c0108e97:	8b 45 f4             	mov    -0xc(%ebp),%eax
c0108e9a:	c6 40 08 02          	movb   $0x2,0x8(%eax)
c0108e9e:	8b 45 f4             	mov    -0xc(%ebp),%eax
c0108ea1:	c7 40 10 8d 8d 10 c0 	movl   $0xc0108d8d,0x10(%eax)
c0108ea8:	83 ec 0c             	sub    $0xc,%esp
c0108eab:	ff 75 f4             	pushl  -0xc(%ebp)
c0108eae:	e8 2b f6 ff ff       	call   c01084de <register_stream_dev>
c0108eb3:	83 c4 10             	add    $0x10,%esp
c0108eb6:	90                   	nop
c0108eb7:	c9                   	leave  
c0108eb8:	c3                   	ret    

c0108eb9 <init_pic_driver>:
c0108eb9:	55                   	push   %ebp
c0108eba:	89 e5                	mov    %esp,%ebp
c0108ebc:	83 ec 08             	sub    $0x8,%esp
c0108ebf:	83 ec 08             	sub    $0x8,%esp
c0108ec2:	6a 11                	push   $0x11
c0108ec4:	6a 20                	push   $0x20
c0108ec6:	e8 94 02 00 00       	call   c010915f <port_int8_out>
c0108ecb:	83 c4 10             	add    $0x10,%esp
c0108ece:	83 ec 08             	sub    $0x8,%esp
c0108ed1:	6a 11                	push   $0x11
c0108ed3:	68 a0 00 00 00       	push   $0xa0
c0108ed8:	e8 82 02 00 00       	call   c010915f <port_int8_out>
c0108edd:	83 c4 10             	add    $0x10,%esp
c0108ee0:	83 ec 08             	sub    $0x8,%esp
c0108ee3:	6a 20                	push   $0x20
c0108ee5:	6a 21                	push   $0x21
c0108ee7:	e8 73 02 00 00       	call   c010915f <port_int8_out>
c0108eec:	83 c4 10             	add    $0x10,%esp
c0108eef:	83 ec 08             	sub    $0x8,%esp
c0108ef2:	6a 28                	push   $0x28
c0108ef4:	68 a1 00 00 00       	push   $0xa1
c0108ef9:	e8 61 02 00 00       	call   c010915f <port_int8_out>
c0108efe:	83 c4 10             	add    $0x10,%esp
c0108f01:	83 ec 08             	sub    $0x8,%esp
c0108f04:	6a 00                	push   $0x0
c0108f06:	6a 21                	push   $0x21
c0108f08:	e8 52 02 00 00       	call   c010915f <port_int8_out>
c0108f0d:	83 c4 10             	add    $0x10,%esp
c0108f10:	83 ec 08             	sub    $0x8,%esp
c0108f13:	6a 00                	push   $0x0
c0108f15:	68 a1 00 00 00       	push   $0xa1
c0108f1a:	e8 40 02 00 00       	call   c010915f <port_int8_out>
c0108f1f:	83 c4 10             	add    $0x10,%esp
c0108f22:	83 ec 08             	sub    $0x8,%esp
c0108f25:	6a 01                	push   $0x1
c0108f27:	6a 21                	push   $0x21
c0108f29:	e8 31 02 00 00       	call   c010915f <port_int8_out>
c0108f2e:	83 c4 10             	add    $0x10,%esp
c0108f31:	83 ec 08             	sub    $0x8,%esp
c0108f34:	6a 01                	push   $0x1
c0108f36:	68 a1 00 00 00       	push   $0xa1
c0108f3b:	e8 1f 02 00 00       	call   c010915f <port_int8_out>
c0108f40:	83 c4 10             	add    $0x10,%esp
c0108f43:	66 c7 05 e8 28 10 c0 	movw   $0x0,0xc01028e8
c0108f4a:	00 00 
c0108f4c:	0f b7 05 e8 28 10 c0 	movzwl 0xc01028e8,%eax
c0108f53:	0f b6 c0             	movzbl %al,%eax
c0108f56:	83 ec 08             	sub    $0x8,%esp
c0108f59:	50                   	push   %eax
c0108f5a:	6a 21                	push   $0x21
c0108f5c:	e8 fe 01 00 00       	call   c010915f <port_int8_out>
c0108f61:	83 c4 10             	add    $0x10,%esp
c0108f64:	0f b7 05 e8 28 10 c0 	movzwl 0xc01028e8,%eax
c0108f6b:	66 c1 e8 08          	shr    $0x8,%ax
c0108f6f:	0f b6 c0             	movzbl %al,%eax
c0108f72:	83 ec 08             	sub    $0x8,%esp
c0108f75:	50                   	push   %eax
c0108f76:	68 a1 00 00 00       	push   $0xa1
c0108f7b:	e8 df 01 00 00       	call   c010915f <port_int8_out>
c0108f80:	83 c4 10             	add    $0x10,%esp
c0108f83:	90                   	nop
c0108f84:	c9                   	leave  
c0108f85:	c3                   	ret    

c0108f86 <enable_irq>:
c0108f86:	55                   	push   %ebp
c0108f87:	89 e5                	mov    %esp,%ebp
c0108f89:	83 ec 18             	sub    $0x18,%esp
c0108f8c:	83 ec 0c             	sub    $0xc,%esp
c0108f8f:	6a 00                	push   $0x0
c0108f91:	e8 ef 7e 00 00       	call   c0110e85 <set_interrupt_flag>
c0108f96:	83 c4 10             	add    $0x10,%esp
c0108f99:	88 45 f7             	mov    %al,-0x9(%ebp)
c0108f9c:	83 7d 08 07          	cmpl   $0x7,0x8(%ebp)
c0108fa0:	77 3b                	ja     c0108fdd <enable_irq+0x57>
c0108fa2:	8b 45 08             	mov    0x8(%ebp),%eax
c0108fa5:	ba 01 00 00 00       	mov    $0x1,%edx
c0108faa:	89 c1                	mov    %eax,%ecx
c0108fac:	d3 e2                	shl    %cl,%edx
c0108fae:	89 d0                	mov    %edx,%eax
c0108fb0:	f7 d0                	not    %eax
c0108fb2:	89 c2                	mov    %eax,%edx
c0108fb4:	0f b7 05 e8 28 10 c0 	movzwl 0xc01028e8,%eax
c0108fbb:	21 d0                	and    %edx,%eax
c0108fbd:	66 a3 e8 28 10 c0    	mov    %ax,0xc01028e8
c0108fc3:	0f b7 05 e8 28 10 c0 	movzwl 0xc01028e8,%eax
c0108fca:	0f b6 c0             	movzbl %al,%eax
c0108fcd:	83 ec 08             	sub    $0x8,%esp
c0108fd0:	50                   	push   %eax
c0108fd1:	6a 21                	push   $0x21
c0108fd3:	e8 87 01 00 00       	call   c010915f <port_int8_out>
c0108fd8:	83 c4 10             	add    $0x10,%esp
c0108fdb:	eb 46                	jmp    c0109023 <enable_irq+0x9d>
c0108fdd:	83 7d 08 0f          	cmpl   $0xf,0x8(%ebp)
c0108fe1:	77 40                	ja     c0109023 <enable_irq+0x9d>
c0108fe3:	8b 45 08             	mov    0x8(%ebp),%eax
c0108fe6:	ba 01 00 00 00       	mov    $0x1,%edx
c0108feb:	89 c1                	mov    %eax,%ecx
c0108fed:	d3 e2                	shl    %cl,%edx
c0108fef:	89 d0                	mov    %edx,%eax
c0108ff1:	f7 d0                	not    %eax
c0108ff3:	89 c2                	mov    %eax,%edx
c0108ff5:	0f b7 05 e8 28 10 c0 	movzwl 0xc01028e8,%eax
c0108ffc:	21 d0                	and    %edx,%eax
c0108ffe:	66 a3 e8 28 10 c0    	mov    %ax,0xc01028e8
c0109004:	0f b7 05 e8 28 10 c0 	movzwl 0xc01028e8,%eax
c010900b:	66 c1 e8 08          	shr    $0x8,%ax
c010900f:	0f b6 c0             	movzbl %al,%eax
c0109012:	83 ec 08             	sub    $0x8,%esp
c0109015:	50                   	push   %eax
c0109016:	68 a1 00 00 00       	push   $0xa1
c010901b:	e8 3f 01 00 00       	call   c010915f <port_int8_out>
c0109020:	83 c4 10             	add    $0x10,%esp
c0109023:	0f b6 45 f7          	movzbl -0x9(%ebp),%eax
c0109027:	83 ec 0c             	sub    $0xc,%esp
c010902a:	50                   	push   %eax
c010902b:	e8 55 7e 00 00       	call   c0110e85 <set_interrupt_flag>
c0109030:	83 c4 10             	add    $0x10,%esp
c0109033:	90                   	nop
c0109034:	c9                   	leave  
c0109035:	c3                   	ret    

c0109036 <disable_irq>:
c0109036:	55                   	push   %ebp
c0109037:	89 e5                	mov    %esp,%ebp
c0109039:	83 ec 18             	sub    $0x18,%esp
c010903c:	83 ec 0c             	sub    $0xc,%esp
c010903f:	6a 00                	push   $0x0
c0109041:	e8 3f 7e 00 00       	call   c0110e85 <set_interrupt_flag>
c0109046:	83 c4 10             	add    $0x10,%esp
c0109049:	88 45 f7             	mov    %al,-0x9(%ebp)
c010904c:	83 7d 08 07          	cmpl   $0x7,0x8(%ebp)
c0109050:	77 39                	ja     c010908b <disable_irq+0x55>
c0109052:	8b 45 08             	mov    0x8(%ebp),%eax
c0109055:	ba 01 00 00 00       	mov    $0x1,%edx
c010905a:	89 c1                	mov    %eax,%ecx
c010905c:	d3 e2                	shl    %cl,%edx
c010905e:	89 d0                	mov    %edx,%eax
c0109060:	89 c2                	mov    %eax,%edx
c0109062:	0f b7 05 e8 28 10 c0 	movzwl 0xc01028e8,%eax
c0109069:	09 d0                	or     %edx,%eax
c010906b:	66 a3 e8 28 10 c0    	mov    %ax,0xc01028e8
c0109071:	0f b7 05 e8 28 10 c0 	movzwl 0xc01028e8,%eax
c0109078:	0f b6 c0             	movzbl %al,%eax
c010907b:	83 ec 08             	sub    $0x8,%esp
c010907e:	50                   	push   %eax
c010907f:	6a 21                	push   $0x21
c0109081:	e8 d9 00 00 00       	call   c010915f <port_int8_out>
c0109086:	83 c4 10             	add    $0x10,%esp
c0109089:	eb 44                	jmp    c01090cf <disable_irq+0x99>
c010908b:	83 7d 08 0f          	cmpl   $0xf,0x8(%ebp)
c010908f:	77 3e                	ja     c01090cf <disable_irq+0x99>
c0109091:	8b 45 08             	mov    0x8(%ebp),%eax
c0109094:	ba 01 00 00 00       	mov    $0x1,%edx
c0109099:	89 c1                	mov    %eax,%ecx
c010909b:	d3 e2                	shl    %cl,%edx
c010909d:	89 d0                	mov    %edx,%eax
c010909f:	89 c2                	mov    %eax,%edx
c01090a1:	0f b7 05 e8 28 10 c0 	movzwl 0xc01028e8,%eax
c01090a8:	09 d0                	or     %edx,%eax
c01090aa:	66 a3 e8 28 10 c0    	mov    %ax,0xc01028e8
c01090b0:	0f b7 05 e8 28 10 c0 	movzwl 0xc01028e8,%eax
c01090b7:	66 c1 e8 08          	shr    $0x8,%ax
c01090bb:	0f b6 c0             	movzbl %al,%eax
c01090be:	83 ec 08             	sub    $0x8,%esp
c01090c1:	50                   	push   %eax
c01090c2:	68 a1 00 00 00       	push   $0xa1
c01090c7:	e8 93 00 00 00       	call   c010915f <port_int8_out>
c01090cc:	83 c4 10             	add    $0x10,%esp
c01090cf:	0f b6 45 f7          	movzbl -0x9(%ebp),%eax
c01090d3:	83 ec 0c             	sub    $0xc,%esp
c01090d6:	50                   	push   %eax
c01090d7:	e8 a9 7d 00 00       	call   c0110e85 <set_interrupt_flag>
c01090dc:	83 c4 10             	add    $0x10,%esp
c01090df:	90                   	nop
c01090e0:	c9                   	leave  
c01090e1:	c3                   	ret    

c01090e2 <pic_eoi>:
c01090e2:	55                   	push   %ebp
c01090e3:	89 e5                	mov    %esp,%ebp
c01090e5:	83 ec 18             	sub    $0x18,%esp
c01090e8:	83 ec 0c             	sub    $0xc,%esp
c01090eb:	6a 00                	push   $0x0
c01090ed:	e8 93 7d 00 00       	call   c0110e85 <set_interrupt_flag>
c01090f2:	83 c4 10             	add    $0x10,%esp
c01090f5:	88 45 f7             	mov    %al,-0x9(%ebp)
c01090f8:	83 7d 08 07          	cmpl   $0x7,0x8(%ebp)
c01090fc:	77 11                	ja     c010910f <pic_eoi+0x2d>
c01090fe:	83 ec 08             	sub    $0x8,%esp
c0109101:	6a 20                	push   $0x20
c0109103:	6a 20                	push   $0x20
c0109105:	e8 55 00 00 00       	call   c010915f <port_int8_out>
c010910a:	83 c4 10             	add    $0x10,%esp
c010910d:	eb 27                	jmp    c0109136 <pic_eoi+0x54>
c010910f:	83 7d 08 0f          	cmpl   $0xf,0x8(%ebp)
c0109113:	77 21                	ja     c0109136 <pic_eoi+0x54>
c0109115:	83 ec 08             	sub    $0x8,%esp
c0109118:	6a 20                	push   $0x20
c010911a:	6a 20                	push   $0x20
c010911c:	e8 3e 00 00 00       	call   c010915f <port_int8_out>
c0109121:	83 c4 10             	add    $0x10,%esp
c0109124:	83 ec 08             	sub    $0x8,%esp
c0109127:	6a 20                	push   $0x20
c0109129:	68 a0 00 00 00       	push   $0xa0
c010912e:	e8 2c 00 00 00       	call   c010915f <port_int8_out>
c0109133:	83 c4 10             	add    $0x10,%esp
c0109136:	0f b6 45 f7          	movzbl -0x9(%ebp),%eax
c010913a:	83 ec 0c             	sub    $0xc,%esp
c010913d:	50                   	push   %eax
c010913e:	e8 42 7d 00 00       	call   c0110e85 <set_interrupt_flag>
c0109143:	83 c4 10             	add    $0x10,%esp
c0109146:	90                   	nop
c0109147:	c9                   	leave  
c0109148:	c3                   	ret    

c0109149 <port_int8_in>:
c0109149:	8b 54 24 04          	mov    0x4(%esp),%edx
c010914d:	ec                   	in     (%dx),%al
c010914e:	c3                   	ret    

c010914f <port_block_in>:
c010914f:	8b 54 24 04          	mov    0x4(%esp),%edx
c0109153:	8b 7c 24 08          	mov    0x8(%esp),%edi
c0109157:	8b 4c 24 0c          	mov    0xc(%esp),%ecx
c010915b:	fc                   	cld    
c010915c:	f3 6d                	rep insl (%dx),%es:(%edi)
c010915e:	c3                   	ret    

c010915f <port_int8_out>:
c010915f:	8b 54 24 04          	mov    0x4(%esp),%edx
c0109163:	8b 44 24 08          	mov    0x8(%esp),%eax
c0109167:	ee                   	out    %al,(%dx)
c0109168:	c3                   	ret    

c0109169 <port_int16_out>:
c0109169:	8b 54 24 04          	mov    0x4(%esp),%edx
c010916d:	8b 44 24 08          	mov    0x8(%esp),%eax
c0109171:	66 ef                	out    %ax,(%dx)
c0109173:	c3                   	ret    

c0109174 <port_int32_out>:
c0109174:	8b 54 24 04          	mov    0x4(%esp),%edx
c0109178:	8b 44 24 08          	mov    0x8(%esp),%eax
c010917c:	ef                   	out    %eax,(%dx)
c010917d:	c3                   	ret    

c010917e <port_block_out>:
c010917e:	8b 54 24 04          	mov    0x4(%esp),%edx
c0109182:	8b 74 24 08          	mov    0x8(%esp),%esi
c0109186:	8b 4c 24 0c          	mov    0xc(%esp),%ecx
c010918a:	fc                   	cld    
c010918b:	f3 6f                	rep outsl %ds:(%esi),(%dx)
c010918d:	c3                   	ret    

c010918e <init_kbd_maps>:
c010918e:	55                   	push   %ebp
c010918f:	89 e5                	mov    %esp,%ebp
c0109191:	83 ec 10             	sub    $0x10,%esp
c0109194:	c7 45 fc 00 00 00 00 	movl   $0x0,-0x4(%ebp)
c010919b:	eb 25                	jmp    c01091c2 <init_kbd_maps+0x34>
c010919d:	8b 45 fc             	mov    -0x4(%ebp),%eax
c01091a0:	05 00 29 10 c0       	add    $0xc0102900,%eax
c01091a5:	c6 00 00             	movb   $0x0,(%eax)
c01091a8:	8b 45 fc             	mov    -0x4(%ebp),%eax
c01091ab:	05 80 29 10 c0       	add    $0xc0102980,%eax
c01091b0:	c6 00 00             	movb   $0x0,(%eax)
c01091b3:	8b 45 fc             	mov    -0x4(%ebp),%eax
c01091b6:	05 00 2a 10 c0       	add    $0xc0102a00,%eax
c01091bb:	c6 00 00             	movb   $0x0,(%eax)
c01091be:	83 45 fc 01          	addl   $0x1,-0x4(%ebp)
c01091c2:	83 7d fc 7f          	cmpl   $0x7f,-0x4(%ebp)
c01091c6:	7e d5                	jle    c010919d <init_kbd_maps+0xf>
c01091c8:	c6 05 01 29 10 c0 1b 	movb   $0x1b,0xc0102901
c01091cf:	c6 05 02 29 10 c0 26 	movb   $0x26,0xc0102902
c01091d6:	c6 05 04 29 10 c0 22 	movb   $0x22,0xc0102904
c01091dd:	c6 05 05 29 10 c0 27 	movb   $0x27,0xc0102905
c01091e4:	c6 05 06 29 10 c0 28 	movb   $0x28,0xc0102906
c01091eb:	c6 05 07 29 10 c0 2d 	movb   $0x2d,0xc0102907
c01091f2:	c6 05 09 29 10 c0 5f 	movb   $0x5f,0xc0102909
c01091f9:	c6 05 0c 29 10 c0 29 	movb   $0x29,0xc010290c
c0109200:	c6 05 0d 29 10 c0 3d 	movb   $0x3d,0xc010290d
c0109207:	c6 05 0e 29 10 c0 08 	movb   $0x8,0xc010290e
c010920e:	c6 05 10 29 10 c0 61 	movb   $0x61,0xc0102910
c0109215:	c6 05 11 29 10 c0 7a 	movb   $0x7a,0xc0102911
c010921c:	c6 05 12 29 10 c0 65 	movb   $0x65,0xc0102912
c0109223:	c6 05 13 29 10 c0 72 	movb   $0x72,0xc0102913
c010922a:	c6 05 14 29 10 c0 74 	movb   $0x74,0xc0102914
c0109231:	c6 05 15 29 10 c0 79 	movb   $0x79,0xc0102915
c0109238:	c6 05 16 29 10 c0 75 	movb   $0x75,0xc0102916
c010923f:	c6 05 17 29 10 c0 69 	movb   $0x69,0xc0102917
c0109246:	c6 05 18 29 10 c0 6f 	movb   $0x6f,0xc0102918
c010924d:	c6 05 19 29 10 c0 70 	movb   $0x70,0xc0102919
c0109254:	c6 05 1a 29 10 c0 5e 	movb   $0x5e,0xc010291a
c010925b:	c6 05 1b 29 10 c0 24 	movb   $0x24,0xc010291b
c0109262:	c6 05 1c 29 10 c0 0a 	movb   $0xa,0xc010291c
c0109269:	c6 05 1e 29 10 c0 71 	movb   $0x71,0xc010291e
c0109270:	c6 05 1f 29 10 c0 73 	movb   $0x73,0xc010291f
c0109277:	c6 05 20 29 10 c0 64 	movb   $0x64,0xc0102920
c010927e:	c6 05 21 29 10 c0 66 	movb   $0x66,0xc0102921
c0109285:	c6 05 22 29 10 c0 67 	movb   $0x67,0xc0102922
c010928c:	c6 05 23 29 10 c0 68 	movb   $0x68,0xc0102923
c0109293:	c6 05 24 29 10 c0 6a 	movb   $0x6a,0xc0102924
c010929a:	c6 05 25 29 10 c0 6b 	movb   $0x6b,0xc0102925
c01092a1:	c6 05 26 29 10 c0 6c 	movb   $0x6c,0xc0102926
c01092a8:	c6 05 27 29 10 c0 6d 	movb   $0x6d,0xc0102927
c01092af:	c6 05 2b 29 10 c0 2a 	movb   $0x2a,0xc010292b
c01092b6:	c6 05 56 29 10 c0 3c 	movb   $0x3c,0xc0102956
c01092bd:	c6 05 2c 29 10 c0 77 	movb   $0x77,0xc010292c
c01092c4:	c6 05 2d 29 10 c0 78 	movb   $0x78,0xc010292d
c01092cb:	c6 05 2e 29 10 c0 63 	movb   $0x63,0xc010292e
c01092d2:	c6 05 2f 29 10 c0 76 	movb   $0x76,0xc010292f
c01092d9:	c6 05 30 29 10 c0 62 	movb   $0x62,0xc0102930
c01092e0:	c6 05 31 29 10 c0 6e 	movb   $0x6e,0xc0102931
c01092e7:	c6 05 32 29 10 c0 2c 	movb   $0x2c,0xc0102932
c01092ee:	c6 05 33 29 10 c0 3b 	movb   $0x3b,0xc0102933
c01092f5:	c6 05 34 29 10 c0 3a 	movb   $0x3a,0xc0102934
c01092fc:	c6 05 35 29 10 c0 21 	movb   $0x21,0xc0102935
c0109303:	c6 05 39 29 10 c0 20 	movb   $0x20,0xc0102939
c010930a:	c6 05 82 29 10 c0 31 	movb   $0x31,0xc0102982
c0109311:	c6 05 83 29 10 c0 32 	movb   $0x32,0xc0102983
c0109318:	c6 05 84 29 10 c0 33 	movb   $0x33,0xc0102984
c010931f:	c6 05 85 29 10 c0 34 	movb   $0x34,0xc0102985
c0109326:	c6 05 86 29 10 c0 35 	movb   $0x35,0xc0102986
c010932d:	c6 05 87 29 10 c0 36 	movb   $0x36,0xc0102987
c0109334:	c6 05 88 29 10 c0 37 	movb   $0x37,0xc0102988
c010933b:	c6 05 89 29 10 c0 38 	movb   $0x38,0xc0102989
c0109342:	c6 05 8a 29 10 c0 39 	movb   $0x39,0xc010298a
c0109349:	c6 05 8b 29 10 c0 30 	movb   $0x30,0xc010298b
c0109350:	c6 05 8d 29 10 c0 2b 	movb   $0x2b,0xc010298d
c0109357:	c6 05 90 29 10 c0 41 	movb   $0x41,0xc0102990
c010935e:	c6 05 91 29 10 c0 5a 	movb   $0x5a,0xc0102991
c0109365:	c6 05 92 29 10 c0 45 	movb   $0x45,0xc0102992
c010936c:	c6 05 93 29 10 c0 52 	movb   $0x52,0xc0102993
c0109373:	c6 05 94 29 10 c0 54 	movb   $0x54,0xc0102994
c010937a:	c6 05 95 29 10 c0 59 	movb   $0x59,0xc0102995
c0109381:	c6 05 96 29 10 c0 55 	movb   $0x55,0xc0102996
c0109388:	c6 05 97 29 10 c0 49 	movb   $0x49,0xc0102997
c010938f:	c6 05 98 29 10 c0 4f 	movb   $0x4f,0xc0102998
c0109396:	c6 05 99 29 10 c0 50 	movb   $0x50,0xc0102999
c010939d:	c6 05 9e 29 10 c0 51 	movb   $0x51,0xc010299e
c01093a4:	c6 05 9f 29 10 c0 53 	movb   $0x53,0xc010299f
c01093ab:	c6 05 a0 29 10 c0 44 	movb   $0x44,0xc01029a0
c01093b2:	c6 05 a1 29 10 c0 46 	movb   $0x46,0xc01029a1
c01093b9:	c6 05 a2 29 10 c0 47 	movb   $0x47,0xc01029a2
c01093c0:	c6 05 a3 29 10 c0 48 	movb   $0x48,0xc01029a3
c01093c7:	c6 05 a4 29 10 c0 4a 	movb   $0x4a,0xc01029a4
c01093ce:	c6 05 a5 29 10 c0 4b 	movb   $0x4b,0xc01029a5
c01093d5:	c6 05 a6 29 10 c0 4c 	movb   $0x4c,0xc01029a6
c01093dc:	c6 05 a7 29 10 c0 4d 	movb   $0x4d,0xc01029a7
c01093e3:	c6 05 a8 29 10 c0 25 	movb   $0x25,0xc01029a8
c01093ea:	c6 05 d6 29 10 c0 3e 	movb   $0x3e,0xc01029d6
c01093f1:	c6 05 ac 29 10 c0 57 	movb   $0x57,0xc01029ac
c01093f8:	c6 05 ad 29 10 c0 58 	movb   $0x58,0xc01029ad
c01093ff:	c6 05 ae 29 10 c0 43 	movb   $0x43,0xc01029ae
c0109406:	c6 05 af 29 10 c0 56 	movb   $0x56,0xc01029af
c010940d:	c6 05 b0 29 10 c0 42 	movb   $0x42,0xc01029b0
c0109414:	c6 05 b1 29 10 c0 4e 	movb   $0x4e,0xc01029b1
c010941b:	c6 05 b2 29 10 c0 3f 	movb   $0x3f,0xc01029b2
c0109422:	c6 05 b3 29 10 c0 2e 	movb   $0x2e,0xc01029b3
c0109429:	c6 05 b4 29 10 c0 2f 	movb   $0x2f,0xc01029b4
c0109430:	c6 05 b9 29 10 c0 20 	movb   $0x20,0xc01029b9
c0109437:	c6 05 03 2a 10 c0 7e 	movb   $0x7e,0xc0102a03
c010943e:	c6 05 04 2a 10 c0 23 	movb   $0x23,0xc0102a04
c0109445:	c6 05 05 2a 10 c0 7b 	movb   $0x7b,0xc0102a05
c010944c:	c6 05 06 2a 10 c0 5b 	movb   $0x5b,0xc0102a06
c0109453:	c6 05 07 2a 10 c0 7c 	movb   $0x7c,0xc0102a07
c010945a:	c6 05 08 2a 10 c0 60 	movb   $0x60,0xc0102a08
c0109461:	c6 05 09 2a 10 c0 5c 	movb   $0x5c,0xc0102a09
c0109468:	c6 05 0a 2a 10 c0 5e 	movb   $0x5e,0xc0102a0a
c010946f:	c6 05 0b 2a 10 c0 40 	movb   $0x40,0xc0102a0b
c0109476:	c6 05 0c 2a 10 c0 5d 	movb   $0x5d,0xc0102a0c
c010947d:	c6 05 0d 2a 10 c0 7d 	movb   $0x7d,0xc0102a0d
c0109484:	c6 05 39 2a 10 c0 20 	movb   $0x20,0xc0102a39
c010948b:	90                   	nop
c010948c:	c9                   	leave  
c010948d:	c3                   	ret    

c010948e <kbd_read>:
c010948e:	55                   	push   %ebp
c010948f:	89 e5                	mov    %esp,%ebp
c0109491:	83 ec 18             	sub    $0x18,%esp
c0109494:	a1 80 2a 10 c0       	mov    0xc0102a80,%eax
c0109499:	83 ec 0c             	sub    $0xc,%esp
c010949c:	50                   	push   %eax
c010949d:	e8 29 2f 00 00       	call   c010c3cb <kql_acquire>
c01094a2:	83 c4 10             	add    $0x10,%esp
c01094a5:	b8 00 00 00 00       	mov    $0x0,%eax
c01094aa:	a2 90 2a 10 c0       	mov    %al,0xc0102a90
c01094af:	90                   	nop
c01094b0:	0f b6 05 90 2a 10 c0 	movzbl 0xc0102a90,%eax
c01094b7:	84 c0                	test   %al,%al
c01094b9:	74 f5                	je     c01094b0 <kbd_read+0x22>
c01094bb:	a1 88 2a 10 c0       	mov    0xc0102a88,%eax
c01094c0:	88 45 f7             	mov    %al,-0x9(%ebp)
c01094c3:	83 ec 04             	sub    $0x4,%esp
c01094c6:	6a 01                	push   $0x1
c01094c8:	8d 45 f7             	lea    -0x9(%ebp),%eax
c01094cb:	50                   	push   %eax
c01094cc:	ff 75 08             	pushl  0x8(%ebp)
c01094cf:	e8 82 8c 00 00       	call   c0112156 <memcpy>
c01094d4:	83 c4 10             	add    $0x10,%esp
c01094d7:	a1 80 2a 10 c0       	mov    0xc0102a80,%eax
c01094dc:	83 ec 0c             	sub    $0xc,%esp
c01094df:	50                   	push   %eax
c01094e0:	e8 9c 2f 00 00       	call   c010c481 <kql_release>
c01094e5:	83 c4 10             	add    $0x10,%esp
c01094e8:	b8 01 00 00 00       	mov    $0x1,%eax
c01094ed:	c9                   	leave  
c01094ee:	c3                   	ret    

c01094ef <init_kbd_driver>:
c01094ef:	55                   	push   %ebp
c01094f0:	89 e5                	mov    %esp,%ebp
c01094f2:	83 ec 18             	sub    $0x18,%esp
c01094f5:	e8 40 2e 00 00       	call   c010c33a <kql_create>
c01094fa:	a3 80 2a 10 c0       	mov    %eax,0xc0102a80
c01094ff:	e8 8a fc ff ff       	call   c010918e <init_kbd_maps>
c0109504:	c6 05 84 2a 10 c0 00 	movb   $0x0,0xc0102a84
c010950b:	c6 05 90 2a 10 c0 00 	movb   $0x0,0xc0102a90
c0109512:	83 ec 0c             	sub    $0xc,%esp
c0109515:	6a 18                	push   $0x18
c0109517:	e8 d4 12 00 00       	call   c010a7f0 <kmalloc>
c010951c:	83 c4 10             	add    $0x10,%esp
c010951f:	89 45 f4             	mov    %eax,-0xc(%ebp)
c0109522:	e8 13 2e 00 00       	call   c010c33a <kql_create>
c0109527:	8b 55 f4             	mov    -0xc(%ebp),%edx
c010952a:	89 02                	mov    %eax,(%edx)
c010952c:	8b 45 f4             	mov    -0xc(%ebp),%eax
c010952f:	c7 40 04 de 30 11 c0 	movl   $0xc01130de,0x4(%eax)
c0109536:	8b 45 f4             	mov    -0xc(%ebp),%eax
c0109539:	c6 40 08 01          	movb   $0x1,0x8(%eax)
c010953d:	8b 45 f4             	mov    -0xc(%ebp),%eax
c0109540:	c7 40 0c 8e 94 10 c0 	movl   $0xc010948e,0xc(%eax)
c0109547:	83 ec 0c             	sub    $0xc,%esp
c010954a:	ff 75 f4             	pushl  -0xc(%ebp)
c010954d:	e8 8c ef ff ff       	call   c01084de <register_stream_dev>
c0109552:	83 c4 10             	add    $0x10,%esp
c0109555:	90                   	nop
c0109556:	c9                   	leave  
c0109557:	c3                   	ret    

c0109558 <key_released>:
c0109558:	55                   	push   %ebp
c0109559:	89 e5                	mov    %esp,%ebp
c010955b:	83 ec 04             	sub    $0x4,%esp
c010955e:	8b 45 08             	mov    0x8(%ebp),%eax
c0109561:	88 45 fc             	mov    %al,-0x4(%ebp)
c0109564:	0f b6 45 fc          	movzbl -0x4(%ebp),%eax
c0109568:	83 f8 38             	cmp    $0x38,%eax
c010956b:	74 1b                	je     c0109588 <key_released+0x30>
c010956d:	83 f8 38             	cmp    $0x38,%eax
c0109570:	7f 59                	jg     c01095cb <key_released+0x73>
c0109572:	83 f8 36             	cmp    $0x36,%eax
c0109575:	74 44                	je     c01095bb <key_released+0x63>
c0109577:	83 f8 36             	cmp    $0x36,%eax
c010957a:	7f 4f                	jg     c01095cb <key_released+0x73>
c010957c:	83 f8 1d             	cmp    $0x1d,%eax
c010957f:	74 18                	je     c0109599 <key_released+0x41>
c0109581:	83 f8 2a             	cmp    $0x2a,%eax
c0109584:	74 24                	je     c01095aa <key_released+0x52>
c0109586:	eb 43                	jmp    c01095cb <key_released+0x73>
c0109588:	0f b6 05 84 2a 10 c0 	movzbl 0xc0102a84,%eax
c010958f:	83 e0 fd             	and    $0xfffffffd,%eax
c0109592:	a2 84 2a 10 c0       	mov    %al,0xc0102a84
c0109597:	eb 32                	jmp    c01095cb <key_released+0x73>
c0109599:	0f b6 05 84 2a 10 c0 	movzbl 0xc0102a84,%eax
c01095a0:	83 e0 fe             	and    $0xfffffffe,%eax
c01095a3:	a2 84 2a 10 c0       	mov    %al,0xc0102a84
c01095a8:	eb 21                	jmp    c01095cb <key_released+0x73>
c01095aa:	0f b6 05 84 2a 10 c0 	movzbl 0xc0102a84,%eax
c01095b1:	83 e0 fb             	and    $0xfffffffb,%eax
c01095b4:	a2 84 2a 10 c0       	mov    %al,0xc0102a84
c01095b9:	eb 10                	jmp    c01095cb <key_released+0x73>
c01095bb:	0f b6 05 84 2a 10 c0 	movzbl 0xc0102a84,%eax
c01095c2:	83 e0 f7             	and    $0xfffffff7,%eax
c01095c5:	a2 84 2a 10 c0       	mov    %al,0xc0102a84
c01095ca:	90                   	nop
c01095cb:	90                   	nop
c01095cc:	c9                   	leave  
c01095cd:	c3                   	ret    

c01095ce <key_pressed>:
c01095ce:	55                   	push   %ebp
c01095cf:	89 e5                	mov    %esp,%ebp
c01095d1:	83 ec 04             	sub    $0x4,%esp
c01095d4:	8b 45 08             	mov    0x8(%ebp),%eax
c01095d7:	88 45 fc             	mov    %al,-0x4(%ebp)
c01095da:	0f b6 45 fc          	movzbl -0x4(%ebp),%eax
c01095de:	83 f8 38             	cmp    $0x38,%eax
c01095e1:	74 1b                	je     c01095fe <key_pressed+0x30>
c01095e3:	83 f8 38             	cmp    $0x38,%eax
c01095e6:	7f 63                	jg     c010964b <key_pressed+0x7d>
c01095e8:	83 f8 36             	cmp    $0x36,%eax
c01095eb:	74 4d                	je     c010963a <key_pressed+0x6c>
c01095ed:	83 f8 36             	cmp    $0x36,%eax
c01095f0:	7f 59                	jg     c010964b <key_pressed+0x7d>
c01095f2:	83 f8 1d             	cmp    $0x1d,%eax
c01095f5:	74 1b                	je     c0109612 <key_pressed+0x44>
c01095f7:	83 f8 2a             	cmp    $0x2a,%eax
c01095fa:	74 2a                	je     c0109626 <key_pressed+0x58>
c01095fc:	eb 4d                	jmp    c010964b <key_pressed+0x7d>
c01095fe:	0f b6 05 84 2a 10 c0 	movzbl 0xc0102a84,%eax
c0109605:	83 c8 02             	or     $0x2,%eax
c0109608:	a2 84 2a 10 c0       	mov    %al,0xc0102a84
c010960d:	e9 b1 00 00 00       	jmp    c01096c3 <key_pressed+0xf5>
c0109612:	0f b6 05 84 2a 10 c0 	movzbl 0xc0102a84,%eax
c0109619:	83 c8 01             	or     $0x1,%eax
c010961c:	a2 84 2a 10 c0       	mov    %al,0xc0102a84
c0109621:	e9 9d 00 00 00       	jmp    c01096c3 <key_pressed+0xf5>
c0109626:	0f b6 05 84 2a 10 c0 	movzbl 0xc0102a84,%eax
c010962d:	83 c8 04             	or     $0x4,%eax
c0109630:	a2 84 2a 10 c0       	mov    %al,0xc0102a84
c0109635:	e9 89 00 00 00       	jmp    c01096c3 <key_pressed+0xf5>
c010963a:	0f b6 05 84 2a 10 c0 	movzbl 0xc0102a84,%eax
c0109641:	83 c8 08             	or     $0x8,%eax
c0109644:	a2 84 2a 10 c0       	mov    %al,0xc0102a84
c0109649:	eb 78                	jmp    c01096c3 <key_pressed+0xf5>
c010964b:	0f b6 05 84 2a 10 c0 	movzbl 0xc0102a84,%eax
c0109652:	0f b6 c0             	movzbl %al,%eax
c0109655:	83 e0 04             	and    $0x4,%eax
c0109658:	85 c0                	test   %eax,%eax
c010965a:	75 11                	jne    c010966d <key_pressed+0x9f>
c010965c:	0f b6 05 84 2a 10 c0 	movzbl 0xc0102a84,%eax
c0109663:	0f b6 c0             	movzbl %al,%eax
c0109666:	83 e0 08             	and    $0x8,%eax
c0109669:	85 c0                	test   %eax,%eax
c010966b:	74 15                	je     c0109682 <key_pressed+0xb4>
c010966d:	0f b6 45 fc          	movzbl -0x4(%ebp),%eax
c0109671:	0f b6 80 80 29 10 c0 	movzbl -0x3fefd680(%eax),%eax
c0109678:	0f be c0             	movsbl %al,%eax
c010967b:	a3 88 2a 10 c0       	mov    %eax,0xc0102a88
c0109680:	eb 39                	jmp    c01096bb <key_pressed+0xed>
c0109682:	0f b6 05 84 2a 10 c0 	movzbl 0xc0102a84,%eax
c0109689:	0f b6 c0             	movzbl %al,%eax
c010968c:	83 e0 02             	and    $0x2,%eax
c010968f:	85 c0                	test   %eax,%eax
c0109691:	74 15                	je     c01096a8 <key_pressed+0xda>
c0109693:	0f b6 45 fc          	movzbl -0x4(%ebp),%eax
c0109697:	0f b6 80 00 2a 10 c0 	movzbl -0x3fefd600(%eax),%eax
c010969e:	0f be c0             	movsbl %al,%eax
c01096a1:	a3 88 2a 10 c0       	mov    %eax,0xc0102a88
c01096a6:	eb 13                	jmp    c01096bb <key_pressed+0xed>
c01096a8:	0f b6 45 fc          	movzbl -0x4(%ebp),%eax
c01096ac:	0f b6 80 00 29 10 c0 	movzbl -0x3fefd700(%eax),%eax
c01096b3:	0f be c0             	movsbl %al,%eax
c01096b6:	a3 88 2a 10 c0       	mov    %eax,0xc0102a88
c01096bb:	c6 05 90 2a 10 c0 01 	movb   $0x1,0xc0102a90
c01096c2:	90                   	nop
c01096c3:	90                   	nop
c01096c4:	c9                   	leave  
c01096c5:	c3                   	ret    

c01096c6 <kbd_interrupt>:
c01096c6:	55                   	push   %ebp
c01096c7:	89 e5                	mov    %esp,%ebp
c01096c9:	83 ec 18             	sub    $0x18,%esp
c01096cc:	83 ec 0c             	sub    $0xc,%esp
c01096cf:	6a 64                	push   $0x64
c01096d1:	e8 73 fa ff ff       	call   c0109149 <port_int8_in>
c01096d6:	83 c4 10             	add    $0x10,%esp
c01096d9:	88 45 f7             	mov    %al,-0x9(%ebp)
c01096dc:	0f b6 45 f7          	movzbl -0x9(%ebp),%eax
c01096e0:	83 e0 01             	and    $0x1,%eax
c01096e3:	85 c0                	test   %eax,%eax
c01096e5:	74 3e                	je     c0109725 <kbd_interrupt+0x5f>
c01096e7:	83 ec 0c             	sub    $0xc,%esp
c01096ea:	6a 60                	push   $0x60
c01096ec:	e8 58 fa ff ff       	call   c0109149 <port_int8_in>
c01096f1:	83 c4 10             	add    $0x10,%esp
c01096f4:	88 45 f6             	mov    %al,-0xa(%ebp)
c01096f7:	0f b6 45 f6          	movzbl -0xa(%ebp),%eax
c01096fb:	84 c0                	test   %al,%al
c01096fd:	79 16                	jns    c0109715 <kbd_interrupt+0x4f>
c01096ff:	80 65 f6 7f          	andb   $0x7f,-0xa(%ebp)
c0109703:	0f b6 45 f6          	movzbl -0xa(%ebp),%eax
c0109707:	83 ec 0c             	sub    $0xc,%esp
c010970a:	50                   	push   %eax
c010970b:	e8 48 fe ff ff       	call   c0109558 <key_released>
c0109710:	83 c4 10             	add    $0x10,%esp
c0109713:	eb 10                	jmp    c0109725 <kbd_interrupt+0x5f>
c0109715:	0f b6 45 f6          	movzbl -0xa(%ebp),%eax
c0109719:	83 ec 0c             	sub    $0xc,%esp
c010971c:	50                   	push   %eax
c010971d:	e8 ac fe ff ff       	call   c01095ce <key_pressed>
c0109722:	83 c4 10             	add    $0x10,%esp
c0109725:	90                   	nop
c0109726:	c9                   	leave  
c0109727:	c3                   	ret    

c0109728 <init_pit>:
c0109728:	55                   	push   %ebp
c0109729:	89 e5                	mov    %esp,%ebp
c010972b:	83 ec 28             	sub    $0x28,%esp
c010972e:	d9 45 08             	flds   0x8(%ebp)
c0109731:	dd 05 e8 30 11 c0    	fldl   0xc01130e8
c0109737:	df f1                	fcomip %st(1),%st
c0109739:	dd d8                	fstp   %st(0)
c010973b:	76 09                	jbe    c0109746 <init_pit+0x1e>
c010973d:	d9 05 f0 30 11 c0    	flds   0xc01130f0
c0109743:	d9 5d 08             	fstps  0x8(%ebp)
c0109746:	dd 05 f8 30 11 c0    	fldl   0xc01130f8
c010974c:	d9 45 08             	flds   0x8(%ebp)
c010974f:	df f1                	fcomip %st(1),%st
c0109751:	dd d8                	fstp   %st(0)
c0109753:	76 09                	jbe    c010975e <init_pit+0x36>
c0109755:	d9 05 00 31 11 c0    	flds   0xc0113100
c010975b:	d9 5d 08             	fstps  0x8(%ebp)
c010975e:	d9 45 08             	flds   0x8(%ebp)
c0109761:	dd 05 f8 30 11 c0    	fldl   0xc01130f8
c0109767:	de f1                	fdivp  %st,%st(1)
c0109769:	d9 7d e6             	fnstcw -0x1a(%ebp)
c010976c:	0f b7 45 e6          	movzwl -0x1a(%ebp),%eax
c0109770:	80 cc 0c             	or     $0xc,%ah
c0109773:	66 89 45 e4          	mov    %ax,-0x1c(%ebp)
c0109777:	d9 6d e4             	fldcw  -0x1c(%ebp)
c010977a:	db 5d e0             	fistpl -0x20(%ebp)
c010977d:	d9 6d e6             	fldcw  -0x1a(%ebp)
c0109780:	8b 45 e0             	mov    -0x20(%ebp),%eax
c0109783:	66 89 45 f6          	mov    %ax,-0xa(%ebp)
c0109787:	66 83 65 f6 fe       	andw   $0xfffe,-0xa(%ebp)
c010978c:	83 ec 08             	sub    $0x8,%esp
c010978f:	6a 36                	push   $0x36
c0109791:	6a 43                	push   $0x43
c0109793:	e8 c7 f9 ff ff       	call   c010915f <port_int8_out>
c0109798:	83 c4 10             	add    $0x10,%esp
c010979b:	0f b7 45 f6          	movzwl -0xa(%ebp),%eax
c010979f:	0f b6 c0             	movzbl %al,%eax
c01097a2:	83 ec 08             	sub    $0x8,%esp
c01097a5:	50                   	push   %eax
c01097a6:	6a 40                	push   $0x40
c01097a8:	e8 b2 f9 ff ff       	call   c010915f <port_int8_out>
c01097ad:	83 c4 10             	add    $0x10,%esp
c01097b0:	0f b7 45 f6          	movzwl -0xa(%ebp),%eax
c01097b4:	66 c1 e8 08          	shr    $0x8,%ax
c01097b8:	0f b6 c0             	movzbl %al,%eax
c01097bb:	83 ec 08             	sub    $0x8,%esp
c01097be:	50                   	push   %eax
c01097bf:	6a 40                	push   $0x40
c01097c1:	e8 99 f9 ff ff       	call   c010915f <port_int8_out>
c01097c6:	83 c4 10             	add    $0x10,%esp
c01097c9:	0f b7 45 f6          	movzwl -0xa(%ebp),%eax
c01097cd:	89 45 e0             	mov    %eax,-0x20(%ebp)
c01097d0:	db 45 e0             	fildl  -0x20(%ebp)
c01097d3:	dd 05 f8 30 11 c0    	fldl   0xc01130f8
c01097d9:	de f1                	fdivp  %st,%st(1)
c01097db:	d9 5d e0             	fstps  -0x20(%ebp)
c01097de:	d9 45 e0             	flds   -0x20(%ebp)
c01097e1:	c9                   	leave  
c01097e2:	c3                   	ret    

c01097e3 <init_ata_driver>:
c01097e3:	55                   	push   %ebp
c01097e4:	89 e5                	mov    %esp,%ebp
c01097e6:	83 ec 08             	sub    $0x8,%esp
c01097e9:	e8 4c 2b 00 00       	call   c010c33a <kql_create>
c01097ee:	a3 94 2a 10 c0       	mov    %eax,0xc0102a94
c01097f3:	90                   	nop
c01097f4:	c9                   	leave  
c01097f5:	c3                   	ret    

c01097f6 <ata_wait>:
c01097f6:	55                   	push   %ebp
c01097f7:	89 e5                	mov    %esp,%ebp
c01097f9:	83 ec 28             	sub    $0x28,%esp
c01097fc:	8b 45 08             	mov    0x8(%ebp),%eax
c01097ff:	88 45 e4             	mov    %al,-0x1c(%ebp)
c0109802:	90                   	nop
c0109803:	83 ec 0c             	sub    $0xc,%esp
c0109806:	68 f7 01 00 00       	push   $0x1f7
c010980b:	e8 39 f9 ff ff       	call   c0109149 <port_int8_in>
c0109810:	83 c4 10             	add    $0x10,%esp
c0109813:	0f b6 c0             	movzbl %al,%eax
c0109816:	89 45 f4             	mov    %eax,-0xc(%ebp)
c0109819:	8b 45 f4             	mov    -0xc(%ebp),%eax
c010981c:	25 c0 00 00 00       	and    $0xc0,%eax
c0109821:	83 f8 40             	cmp    $0x40,%eax
c0109824:	75 dd                	jne    c0109803 <ata_wait+0xd>
c0109826:	80 7d e4 00          	cmpb   $0x0,-0x1c(%ebp)
c010982a:	74 11                	je     c010983d <ata_wait+0x47>
c010982c:	8b 45 f4             	mov    -0xc(%ebp),%eax
c010982f:	83 e0 21             	and    $0x21,%eax
c0109832:	85 c0                	test   %eax,%eax
c0109834:	74 07                	je     c010983d <ata_wait+0x47>
c0109836:	b8 ff ff ff ff       	mov    $0xffffffff,%eax
c010983b:	eb 05                	jmp    c0109842 <ata_wait+0x4c>
c010983d:	b8 00 00 00 00       	mov    $0x0,%eax
c0109842:	c9                   	leave  
c0109843:	c3                   	ret    

c0109844 <rw_sector>:
c0109844:	55                   	push   %ebp
c0109845:	89 e5                	mov    %esp,%ebp
c0109847:	83 ec 18             	sub    $0x18,%esp
c010984a:	8b 45 10             	mov    0x10(%ebp),%eax
c010984d:	88 45 f4             	mov    %al,-0xc(%ebp)
c0109850:	83 ec 0c             	sub    $0xc,%esp
c0109853:	6a 01                	push   $0x1
c0109855:	e8 9c ff ff ff       	call   c01097f6 <ata_wait>
c010985a:	83 c4 10             	add    $0x10,%esp
c010985d:	85 c0                	test   %eax,%eax
c010985f:	74 0a                	je     c010986b <rw_sector+0x27>
c0109861:	b8 ff ff ff ff       	mov    $0xffffffff,%eax
c0109866:	e9 f5 00 00 00       	jmp    c0109960 <rw_sector+0x11c>
c010986b:	83 ec 08             	sub    $0x8,%esp
c010986e:	6a 01                	push   $0x1
c0109870:	68 f2 01 00 00       	push   $0x1f2
c0109875:	e8 e5 f8 ff ff       	call   c010915f <port_int8_out>
c010987a:	83 c4 10             	add    $0x10,%esp
c010987d:	8b 45 08             	mov    0x8(%ebp),%eax
c0109880:	0f b6 c0             	movzbl %al,%eax
c0109883:	83 ec 08             	sub    $0x8,%esp
c0109886:	50                   	push   %eax
c0109887:	68 f3 01 00 00       	push   $0x1f3
c010988c:	e8 ce f8 ff ff       	call   c010915f <port_int8_out>
c0109891:	83 c4 10             	add    $0x10,%esp
c0109894:	8b 45 08             	mov    0x8(%ebp),%eax
c0109897:	c1 e8 08             	shr    $0x8,%eax
c010989a:	0f b6 c0             	movzbl %al,%eax
c010989d:	83 ec 08             	sub    $0x8,%esp
c01098a0:	50                   	push   %eax
c01098a1:	68 f4 01 00 00       	push   $0x1f4
c01098a6:	e8 b4 f8 ff ff       	call   c010915f <port_int8_out>
c01098ab:	83 c4 10             	add    $0x10,%esp
c01098ae:	8b 45 08             	mov    0x8(%ebp),%eax
c01098b1:	c1 e8 10             	shr    $0x10,%eax
c01098b4:	0f b6 c0             	movzbl %al,%eax
c01098b7:	83 ec 08             	sub    $0x8,%esp
c01098ba:	50                   	push   %eax
c01098bb:	68 f5 01 00 00       	push   $0x1f5
c01098c0:	e8 9a f8 ff ff       	call   c010915f <port_int8_out>
c01098c5:	83 c4 10             	add    $0x10,%esp
c01098c8:	8b 45 08             	mov    0x8(%ebp),%eax
c01098cb:	c1 e8 18             	shr    $0x18,%eax
c01098ce:	83 e0 0f             	and    $0xf,%eax
c01098d1:	83 c8 e0             	or     $0xffffffe0,%eax
c01098d4:	0f b6 c0             	movzbl %al,%eax
c01098d7:	83 ec 08             	sub    $0x8,%esp
c01098da:	50                   	push   %eax
c01098db:	68 f6 01 00 00       	push   $0x1f6
c01098e0:	e8 7a f8 ff ff       	call   c010915f <port_int8_out>
c01098e5:	83 c4 10             	add    $0x10,%esp
c01098e8:	80 7d f4 00          	cmpb   $0x0,-0xc(%ebp)
c01098ec:	74 07                	je     c01098f5 <rw_sector+0xb1>
c01098ee:	b8 30 00 00 00       	mov    $0x30,%eax
c01098f3:	eb 05                	jmp    c01098fa <rw_sector+0xb6>
c01098f5:	b8 20 00 00 00       	mov    $0x20,%eax
c01098fa:	83 ec 08             	sub    $0x8,%esp
c01098fd:	50                   	push   %eax
c01098fe:	68 f7 01 00 00       	push   $0x1f7
c0109903:	e8 57 f8 ff ff       	call   c010915f <port_int8_out>
c0109908:	83 c4 10             	add    $0x10,%esp
c010990b:	83 ec 0c             	sub    $0xc,%esp
c010990e:	6a 01                	push   $0x1
c0109910:	e8 e1 fe ff ff       	call   c01097f6 <ata_wait>
c0109915:	83 c4 10             	add    $0x10,%esp
c0109918:	85 c0                	test   %eax,%eax
c010991a:	74 07                	je     c0109923 <rw_sector+0xdf>
c010991c:	b8 ff ff ff ff       	mov    $0xffffffff,%eax
c0109921:	eb 3d                	jmp    c0109960 <rw_sector+0x11c>
c0109923:	80 7d f4 00          	cmpb   $0x0,-0xc(%ebp)
c0109927:	74 1a                	je     c0109943 <rw_sector+0xff>
c0109929:	83 ec 04             	sub    $0x4,%esp
c010992c:	68 80 00 00 00       	push   $0x80
c0109931:	ff 75 0c             	pushl  0xc(%ebp)
c0109934:	68 f0 01 00 00       	push   $0x1f0
c0109939:	e8 40 f8 ff ff       	call   c010917e <port_block_out>
c010993e:	83 c4 10             	add    $0x10,%esp
c0109941:	eb 18                	jmp    c010995b <rw_sector+0x117>
c0109943:	83 ec 04             	sub    $0x4,%esp
c0109946:	68 80 00 00 00       	push   $0x80
c010994b:	ff 75 0c             	pushl  0xc(%ebp)
c010994e:	68 f0 01 00 00       	push   $0x1f0
c0109953:	e8 f7 f7 ff ff       	call   c010914f <port_block_in>
c0109958:	83 c4 10             	add    $0x10,%esp
c010995b:	b8 00 00 00 00       	mov    $0x0,%eax
c0109960:	c9                   	leave  
c0109961:	c3                   	ret    

c0109962 <ata_read>:
c0109962:	55                   	push   %ebp
c0109963:	89 e5                	mov    %esp,%ebp
c0109965:	83 ec 28             	sub    $0x28,%esp
c0109968:	a1 94 2a 10 c0       	mov    0xc0102a94,%eax
c010996d:	83 ec 0c             	sub    $0xc,%esp
c0109970:	50                   	push   %eax
c0109971:	e8 55 2a 00 00       	call   c010c3cb <kql_acquire>
c0109976:	83 c4 10             	add    $0x10,%esp
c0109979:	8b 45 08             	mov    0x8(%ebp),%eax
c010997c:	c1 e8 09             	shr    $0x9,%eax
c010997f:	89 45 e4             	mov    %eax,-0x1c(%ebp)
c0109982:	8b 55 08             	mov    0x8(%ebp),%edx
c0109985:	8b 45 0c             	mov    0xc(%ebp),%eax
c0109988:	01 d0                	add    %edx,%eax
c010998a:	83 e8 01             	sub    $0x1,%eax
c010998d:	c1 e8 09             	shr    $0x9,%eax
c0109990:	89 45 e0             	mov    %eax,-0x20(%ebp)
c0109993:	83 ec 0c             	sub    $0xc,%esp
c0109996:	68 00 02 00 00       	push   $0x200
c010999b:	e8 50 0e 00 00       	call   c010a7f0 <kmalloc>
c01099a0:	83 c4 10             	add    $0x10,%esp
c01099a3:	89 45 dc             	mov    %eax,-0x24(%ebp)
c01099a6:	c7 45 f4 00 00 00 00 	movl   $0x0,-0xc(%ebp)
c01099ad:	8b 45 e4             	mov    -0x1c(%ebp),%eax
c01099b0:	89 45 f0             	mov    %eax,-0x10(%ebp)
c01099b3:	e9 cf 00 00 00       	jmp    c0109a87 <ata_read+0x125>
c01099b8:	8b 45 f0             	mov    -0x10(%ebp),%eax
c01099bb:	c1 e0 09             	shl    $0x9,%eax
c01099be:	89 45 d8             	mov    %eax,-0x28(%ebp)
c01099c1:	8b 45 d8             	mov    -0x28(%ebp),%eax
c01099c4:	3b 45 08             	cmp    0x8(%ebp),%eax
c01099c7:	73 35                	jae    c01099fe <ata_read+0x9c>
c01099c9:	8b 45 08             	mov    0x8(%ebp),%eax
c01099cc:	2b 45 d8             	sub    -0x28(%ebp),%eax
c01099cf:	89 45 ec             	mov    %eax,-0x14(%ebp)
c01099d2:	8b 55 08             	mov    0x8(%ebp),%edx
c01099d5:	8b 45 0c             	mov    0xc(%ebp),%eax
c01099d8:	01 c2                	add    %eax,%edx
c01099da:	8b 45 d8             	mov    -0x28(%ebp),%eax
c01099dd:	05 00 02 00 00       	add    $0x200,%eax
c01099e2:	39 c2                	cmp    %eax,%edx
c01099e4:	72 10                	jb     c01099f6 <ata_read+0x94>
c01099e6:	8b 45 d8             	mov    -0x28(%ebp),%eax
c01099e9:	2b 45 08             	sub    0x8(%ebp),%eax
c01099ec:	05 00 02 00 00       	add    $0x200,%eax
c01099f1:	89 45 e8             	mov    %eax,-0x18(%ebp)
c01099f4:	eb 3a                	jmp    c0109a30 <ata_read+0xce>
c01099f6:	8b 45 0c             	mov    0xc(%ebp),%eax
c01099f9:	89 45 e8             	mov    %eax,-0x18(%ebp)
c01099fc:	eb 32                	jmp    c0109a30 <ata_read+0xce>
c01099fe:	c7 45 ec 00 00 00 00 	movl   $0x0,-0x14(%ebp)
c0109a05:	8b 55 08             	mov    0x8(%ebp),%edx
c0109a08:	8b 45 0c             	mov    0xc(%ebp),%eax
c0109a0b:	01 c2                	add    %eax,%edx
c0109a0d:	8b 45 d8             	mov    -0x28(%ebp),%eax
c0109a10:	05 00 02 00 00       	add    $0x200,%eax
c0109a15:	39 c2                	cmp    %eax,%edx
c0109a17:	72 09                	jb     c0109a22 <ata_read+0xc0>
c0109a19:	c7 45 e8 00 02 00 00 	movl   $0x200,-0x18(%ebp)
c0109a20:	eb 0e                	jmp    c0109a30 <ata_read+0xce>
c0109a22:	8b 55 08             	mov    0x8(%ebp),%edx
c0109a25:	8b 45 0c             	mov    0xc(%ebp),%eax
c0109a28:	01 d0                	add    %edx,%eax
c0109a2a:	2b 45 d8             	sub    -0x28(%ebp),%eax
c0109a2d:	89 45 e8             	mov    %eax,-0x18(%ebp)
c0109a30:	8b 45 f0             	mov    -0x10(%ebp),%eax
c0109a33:	83 ec 04             	sub    $0x4,%esp
c0109a36:	6a 00                	push   $0x0
c0109a38:	ff 75 dc             	pushl  -0x24(%ebp)
c0109a3b:	50                   	push   %eax
c0109a3c:	e8 03 fe ff ff       	call   c0109844 <rw_sector>
c0109a41:	83 c4 10             	add    $0x10,%esp
c0109a44:	85 c0                	test   %eax,%eax
c0109a46:	79 15                	jns    c0109a5d <ata_read+0xfb>
c0109a48:	83 ec 0c             	sub    $0xc,%esp
c0109a4b:	ff 75 dc             	pushl  -0x24(%ebp)
c0109a4e:	e8 89 0e 00 00       	call   c010a8dc <kfree>
c0109a53:	83 c4 10             	add    $0x10,%esp
c0109a56:	b8 ff ff ff ff       	mov    $0xffffffff,%eax
c0109a5b:	eb 5a                	jmp    c0109ab7 <ata_read+0x155>
c0109a5d:	8b 55 dc             	mov    -0x24(%ebp),%edx
c0109a60:	8b 45 ec             	mov    -0x14(%ebp),%eax
c0109a63:	01 c2                	add    %eax,%edx
c0109a65:	8b 4d 10             	mov    0x10(%ebp),%ecx
c0109a68:	8b 45 f4             	mov    -0xc(%ebp),%eax
c0109a6b:	01 c8                	add    %ecx,%eax
c0109a6d:	83 ec 04             	sub    $0x4,%esp
c0109a70:	ff 75 e8             	pushl  -0x18(%ebp)
c0109a73:	52                   	push   %edx
c0109a74:	50                   	push   %eax
c0109a75:	e8 dc 86 00 00       	call   c0112156 <memcpy>
c0109a7a:	83 c4 10             	add    $0x10,%esp
c0109a7d:	8b 45 e8             	mov    -0x18(%ebp),%eax
c0109a80:	01 45 f4             	add    %eax,-0xc(%ebp)
c0109a83:	83 45 f0 01          	addl   $0x1,-0x10(%ebp)
c0109a87:	8b 45 f0             	mov    -0x10(%ebp),%eax
c0109a8a:	39 45 e0             	cmp    %eax,-0x20(%ebp)
c0109a8d:	0f 83 25 ff ff ff    	jae    c01099b8 <ata_read+0x56>
c0109a93:	83 ec 0c             	sub    $0xc,%esp
c0109a96:	ff 75 dc             	pushl  -0x24(%ebp)
c0109a99:	e8 3e 0e 00 00       	call   c010a8dc <kfree>
c0109a9e:	83 c4 10             	add    $0x10,%esp
c0109aa1:	a1 94 2a 10 c0       	mov    0xc0102a94,%eax
c0109aa6:	83 ec 0c             	sub    $0xc,%esp
c0109aa9:	50                   	push   %eax
c0109aaa:	e8 d2 29 00 00       	call   c010c481 <kql_release>
c0109aaf:	83 c4 10             	add    $0x10,%esp
c0109ab2:	b8 00 00 00 00       	mov    $0x0,%eax
c0109ab7:	c9                   	leave  
c0109ab8:	c3                   	ret    

c0109ab9 <ata_write_sector>:
c0109ab9:	55                   	push   %ebp
c0109aba:	89 e5                	mov    %esp,%ebp
c0109abc:	83 ec 18             	sub    $0x18,%esp
c0109abf:	a1 94 2a 10 c0       	mov    0xc0102a94,%eax
c0109ac4:	83 ec 0c             	sub    $0xc,%esp
c0109ac7:	50                   	push   %eax
c0109ac8:	e8 fe 28 00 00       	call   c010c3cb <kql_acquire>
c0109acd:	83 c4 10             	add    $0x10,%esp
c0109ad0:	83 ec 04             	sub    $0x4,%esp
c0109ad3:	6a 01                	push   $0x1
c0109ad5:	ff 75 0c             	pushl  0xc(%ebp)
c0109ad8:	ff 75 08             	pushl  0x8(%ebp)
c0109adb:	e8 64 fd ff ff       	call   c0109844 <rw_sector>
c0109ae0:	83 c4 10             	add    $0x10,%esp
c0109ae3:	89 45 f4             	mov    %eax,-0xc(%ebp)
c0109ae6:	a1 94 2a 10 c0       	mov    0xc0102a94,%eax
c0109aeb:	83 ec 0c             	sub    $0xc,%esp
c0109aee:	50                   	push   %eax
c0109aef:	e8 8d 29 00 00       	call   c010c481 <kql_release>
c0109af4:	83 c4 10             	add    $0x10,%esp
c0109af7:	8b 45 f4             	mov    -0xc(%ebp),%eax
c0109afa:	c9                   	leave  
c0109afb:	c3                   	ret    

c0109afc <ata_primary_interrupt>:
c0109afc:	55                   	push   %ebp
c0109afd:	89 e5                	mov    %esp,%ebp
c0109aff:	90                   	nop
c0109b00:	5d                   	pop    %ebp
c0109b01:	c3                   	ret    

c0109b02 <init_timer>:
c0109b02:	55                   	push   %ebp
c0109b03:	89 e5                	mov    %esp,%ebp
c0109b05:	d9 45 08             	flds   0x8(%ebp)
c0109b08:	d9 1d 98 2a 10 c0    	fstps  0xc0102a98
c0109b0e:	d9 05 04 31 11 c0    	flds   0xc0113104
c0109b14:	d8 75 08             	fdivs  0x8(%ebp)
c0109b17:	d9 1d 9c 2a 10 c0    	fstps  0xc0102a9c
c0109b1d:	d9 ee                	fldz   
c0109b1f:	d9 1d a0 2a 10 c0    	fstps  0xc0102aa0
c0109b25:	90                   	nop
c0109b26:	5d                   	pop    %ebp
c0109b27:	c3                   	ret    

c0109b28 <timer_interrupt>:
c0109b28:	55                   	push   %ebp
c0109b29:	89 e5                	mov    %esp,%ebp
c0109b2b:	83 ec 08             	sub    $0x8,%esp
c0109b2e:	d9 05 a0 2a 10 c0    	flds   0xc0102aa0
c0109b34:	d9 05 9c 2a 10 c0    	flds   0xc0102a9c
c0109b3a:	de c1                	faddp  %st,%st(1)
c0109b3c:	d9 1d a0 2a 10 c0    	fstps  0xc0102aa0
c0109b42:	d9 05 9c 2a 10 c0    	flds   0xc0102a9c
c0109b48:	83 ec 0c             	sub    $0xc,%esp
c0109b4b:	8d 64 24 fc          	lea    -0x4(%esp),%esp
c0109b4f:	d9 1c 24             	fstps  (%esp)
c0109b52:	e8 33 11 00 00       	call   c010ac8a <timer_tick>
c0109b57:	83 c4 10             	add    $0x10,%esp
c0109b5a:	90                   	nop
c0109b5b:	c9                   	leave  
c0109b5c:	c3                   	ret    

c0109b5d <wait>:
c0109b5d:	55                   	push   %ebp
c0109b5e:	89 e5                	mov    %esp,%ebp
c0109b60:	83 ec 10             	sub    $0x10,%esp
c0109b63:	d9 05 a0 2a 10 c0    	flds   0xc0102aa0
c0109b69:	d9 45 08             	flds   0x8(%ebp)
c0109b6c:	de c1                	faddp  %st,%st(1)
c0109b6e:	d9 5d fc             	fstps  -0x4(%ebp)
c0109b71:	90                   	nop
c0109b72:	d9 05 a0 2a 10 c0    	flds   0xc0102aa0
c0109b78:	d9 45 fc             	flds   -0x4(%ebp)
c0109b7b:	df f1                	fcomip %st(1),%st
c0109b7d:	dd d8                	fstp   %st(0)
c0109b7f:	77 f1                	ja     c0109b72 <wait+0x15>
c0109b81:	90                   	nop
c0109b82:	c9                   	leave  
c0109b83:	c3                   	ret    

c0109b84 <print_mem_blocks>:
c0109b84:	55                   	push   %ebp
c0109b85:	89 e5                	mov    %esp,%ebp
c0109b87:	83 ec 18             	sub    $0x18,%esp
c0109b8a:	a1 00 41 10 c0       	mov    0xc0104100,%eax
c0109b8f:	83 ec 08             	sub    $0x8,%esp
c0109b92:	50                   	push   %eax
c0109b93:	68 08 31 11 c0       	push   $0xc0113108
c0109b98:	e8 86 80 00 00       	call   c0111c23 <printf>
c0109b9d:	83 c4 10             	add    $0x10,%esp
c0109ba0:	c7 45 f4 00 00 00 00 	movl   $0x0,-0xc(%ebp)
c0109ba7:	eb 36                	jmp    c0109bdf <print_mem_blocks+0x5b>
c0109ba9:	8b 45 f4             	mov    -0xc(%ebp),%eax
c0109bac:	69 c0 88 00 00 00    	imul   $0x88,%eax,%eax
c0109bb2:	05 04 30 10 c0       	add    $0xc0103004,%eax
c0109bb7:	8b 10                	mov    (%eax),%edx
c0109bb9:	8b 45 f4             	mov    -0xc(%ebp),%eax
c0109bbc:	69 c0 88 00 00 00    	imul   $0x88,%eax,%eax
c0109bc2:	05 00 30 10 c0       	add    $0xc0103000,%eax
c0109bc7:	8b 00                	mov    (%eax),%eax
c0109bc9:	83 ec 04             	sub    $0x4,%esp
c0109bcc:	52                   	push   %edx
c0109bcd:	50                   	push   %eax
c0109bce:	68 20 31 11 c0       	push   $0xc0113120
c0109bd3:	e8 4b 80 00 00       	call   c0111c23 <printf>
c0109bd8:	83 c4 10             	add    $0x10,%esp
c0109bdb:	83 45 f4 01          	addl   $0x1,-0xc(%ebp)
c0109bdf:	a1 00 41 10 c0       	mov    0xc0104100,%eax
c0109be4:	39 45 f4             	cmp    %eax,-0xc(%ebp)
c0109be7:	7c c0                	jl     c0109ba9 <print_mem_blocks+0x25>
c0109be9:	90                   	nop
c0109bea:	90                   	nop
c0109beb:	c9                   	leave  
c0109bec:	c3                   	ret    

c0109bed <add_mem_block>:
c0109bed:	55                   	push   %ebp
c0109bee:	89 e5                	mov    %esp,%ebp
c0109bf0:	57                   	push   %edi
c0109bf1:	56                   	push   %esi
c0109bf2:	53                   	push   %ebx
c0109bf3:	83 ec 3c             	sub    $0x3c,%esp
c0109bf6:	8b 45 08             	mov    0x8(%ebp),%eax
c0109bf9:	89 45 d0             	mov    %eax,-0x30(%ebp)
c0109bfc:	8b 45 0c             	mov    0xc(%ebp),%eax
c0109bff:	89 45 d4             	mov    %eax,-0x2c(%ebp)
c0109c02:	8b 45 10             	mov    0x10(%ebp),%eax
c0109c05:	89 45 c8             	mov    %eax,-0x38(%ebp)
c0109c08:	8b 45 14             	mov    0x14(%ebp),%eax
c0109c0b:	89 45 cc             	mov    %eax,-0x34(%ebp)
c0109c0e:	8b 45 d0             	mov    -0x30(%ebp),%eax
c0109c11:	8b 55 d4             	mov    -0x2c(%ebp),%edx
c0109c14:	89 45 c0             	mov    %eax,-0x40(%ebp)
c0109c17:	89 55 c4             	mov    %edx,-0x3c(%ebp)
c0109c1a:	8b 45 c8             	mov    -0x38(%ebp),%eax
c0109c1d:	8b 55 cc             	mov    -0x34(%ebp),%edx
c0109c20:	03 45 c0             	add    -0x40(%ebp),%eax
c0109c23:	13 55 c4             	adc    -0x3c(%ebp),%edx
c0109c26:	89 45 e0             	mov    %eax,-0x20(%ebp)
c0109c29:	89 55 e4             	mov    %edx,-0x1c(%ebp)
c0109c2c:	c7 45 d8 00 00 00 00 	movl   $0x0,-0x28(%ebp)
c0109c33:	c7 45 dc 01 00 00 00 	movl   $0x1,-0x24(%ebp)
c0109c3a:	8b 45 e0             	mov    -0x20(%ebp),%eax
c0109c3d:	8b 55 e4             	mov    -0x1c(%ebp),%edx
c0109c40:	3b 45 d8             	cmp    -0x28(%ebp),%eax
c0109c43:	89 d0                	mov    %edx,%eax
c0109c45:	1b 45 dc             	sbb    -0x24(%ebp),%eax
c0109c48:	72 0c                	jb     c0109c56 <add_mem_block+0x69>
c0109c4a:	8b 45 d8             	mov    -0x28(%ebp),%eax
c0109c4d:	8b 55 dc             	mov    -0x24(%ebp),%edx
c0109c50:	89 45 e0             	mov    %eax,-0x20(%ebp)
c0109c53:	89 55 e4             	mov    %edx,-0x1c(%ebp)
c0109c56:	8b 45 d0             	mov    -0x30(%ebp),%eax
c0109c59:	8b 55 d4             	mov    -0x2c(%ebp),%edx
c0109c5c:	3b 45 e0             	cmp    -0x20(%ebp),%eax
c0109c5f:	89 d0                	mov    %edx,%eax
c0109c61:	1b 45 e4             	sbb    -0x1c(%ebp),%eax
c0109c64:	0f 83 18 01 00 00    	jae    c0109d82 <add_mem_block+0x195>
c0109c6a:	8b 45 d0             	mov    -0x30(%ebp),%eax
c0109c6d:	25 ff ff 3f 00       	and    $0x3fffff,%eax
c0109c72:	89 c1                	mov    %eax,%ecx
c0109c74:	8b 45 d4             	mov    -0x2c(%ebp),%eax
c0109c77:	83 e0 00             	and    $0x0,%eax
c0109c7a:	89 c3                	mov    %eax,%ebx
c0109c7c:	89 c8                	mov    %ecx,%eax
c0109c7e:	80 f4 00             	xor    $0x0,%ah
c0109c81:	89 c6                	mov    %eax,%esi
c0109c83:	89 d8                	mov    %ebx,%eax
c0109c85:	80 f4 00             	xor    $0x0,%ah
c0109c88:	89 c7                	mov    %eax,%edi
c0109c8a:	89 f8                	mov    %edi,%eax
c0109c8c:	09 f0                	or     %esi,%eax
c0109c8e:	85 c0                	test   %eax,%eax
c0109c90:	74 16                	je     c0109ca8 <add_mem_block+0xbb>
c0109c92:	81 65 d0 00 00 c0 ff 	andl   $0xffc00000,-0x30(%ebp)
c0109c99:	83 65 d4 ff          	andl   $0xffffffff,-0x2c(%ebp)
c0109c9d:	81 45 d0 00 00 40 00 	addl   $0x400000,-0x30(%ebp)
c0109ca4:	83 55 d4 00          	adcl   $0x0,-0x2c(%ebp)
c0109ca8:	8b 45 d0             	mov    -0x30(%ebp),%eax
c0109cab:	8b 55 d4             	mov    -0x2c(%ebp),%edx
c0109cae:	3b 45 e0             	cmp    -0x20(%ebp),%eax
c0109cb1:	89 d0                	mov    %edx,%eax
c0109cb3:	1b 45 e4             	sbb    -0x1c(%ebp),%eax
c0109cb6:	0f 83 c9 00 00 00    	jae    c0109d85 <add_mem_block+0x198>
c0109cbc:	8b 45 e0             	mov    -0x20(%ebp),%eax
c0109cbf:	8b 55 e4             	mov    -0x1c(%ebp),%edx
c0109cc2:	2b 45 d0             	sub    -0x30(%ebp),%eax
c0109cc5:	1b 55 d4             	sbb    -0x2c(%ebp),%edx
c0109cc8:	bb ff ff 3f 00       	mov    $0x3fffff,%ebx
c0109ccd:	b9 00 00 00 00       	mov    $0x0,%ecx
c0109cd2:	39 c3                	cmp    %eax,%ebx
c0109cd4:	19 d1                	sbb    %edx,%ecx
c0109cd6:	0f 83 ac 00 00 00    	jae    c0109d88 <add_mem_block+0x19b>
c0109cdc:	a1 00 41 10 c0       	mov    0xc0104100,%eax
c0109ce1:	85 c0                	test   %eax,%eax
c0109ce3:	75 0e                	jne    c0109cf3 <add_mem_block+0x106>
c0109ce5:	c7 45 d0 00 00 00 00 	movl   $0x0,-0x30(%ebp)
c0109cec:	c7 45 d4 00 00 00 00 	movl   $0x0,-0x2c(%ebp)
c0109cf3:	8b 15 00 41 10 c0    	mov    0xc0104100,%edx
c0109cf9:	8b 45 d0             	mov    -0x30(%ebp),%eax
c0109cfc:	69 d2 88 00 00 00    	imul   $0x88,%edx,%edx
c0109d02:	81 c2 00 30 10 c0    	add    $0xc0103000,%edx
c0109d08:	89 02                	mov    %eax,(%edx)
c0109d0a:	8b 45 e0             	mov    -0x20(%ebp),%eax
c0109d0d:	8b 55 e4             	mov    -0x1c(%ebp),%edx
c0109d10:	2b 45 d0             	sub    -0x30(%ebp),%eax
c0109d13:	1b 55 d4             	sbb    -0x2c(%ebp),%edx
c0109d16:	0f ac d0 16          	shrd   $0x16,%edx,%eax
c0109d1a:	c1 ea 16             	shr    $0x16,%edx
c0109d1d:	8b 0d 00 41 10 c0    	mov    0xc0104100,%ecx
c0109d23:	89 c2                	mov    %eax,%edx
c0109d25:	69 c1 88 00 00 00    	imul   $0x88,%ecx,%eax
c0109d2b:	05 04 30 10 c0       	add    $0xc0103004,%eax
c0109d30:	89 10                	mov    %edx,(%eax)
c0109d32:	a1 00 41 10 c0       	mov    0xc0104100,%eax
c0109d37:	69 c0 88 00 00 00    	imul   $0x88,%eax,%eax
c0109d3d:	05 00 30 10 c0       	add    $0xc0103000,%eax
c0109d42:	83 c0 08             	add    $0x8,%eax
c0109d45:	83 ec 04             	sub    $0x4,%esp
c0109d48:	6a 10                	push   $0x10
c0109d4a:	68 ff 00 00 00       	push   $0xff
c0109d4f:	50                   	push   %eax
c0109d50:	e8 13 84 00 00       	call   c0112168 <memset>
c0109d55:	83 c4 10             	add    $0x10,%esp
c0109d58:	a1 00 41 10 c0       	mov    0xc0104100,%eax
c0109d5d:	85 c0                	test   %eax,%eax
c0109d5f:	75 12                	jne    c0109d73 <add_mem_block+0x186>
c0109d61:	83 ec 08             	sub    $0x8,%esp
c0109d64:	6a 00                	push   $0x0
c0109d66:	68 08 30 10 c0       	push   $0xc0103008
c0109d6b:	e8 cf 84 00 00       	call   c011223f <bitset_clear>
c0109d70:	83 c4 10             	add    $0x10,%esp
c0109d73:	a1 00 41 10 c0       	mov    0xc0104100,%eax
c0109d78:	83 c0 01             	add    $0x1,%eax
c0109d7b:	a3 00 41 10 c0       	mov    %eax,0xc0104100
c0109d80:	eb 07                	jmp    c0109d89 <add_mem_block+0x19c>
c0109d82:	90                   	nop
c0109d83:	eb 04                	jmp    c0109d89 <add_mem_block+0x19c>
c0109d85:	90                   	nop
c0109d86:	eb 01                	jmp    c0109d89 <add_mem_block+0x19c>
c0109d88:	90                   	nop
c0109d89:	8d 65 f4             	lea    -0xc(%ebp),%esp
c0109d8c:	5b                   	pop    %ebx
c0109d8d:	5e                   	pop    %esi
c0109d8e:	5f                   	pop    %edi
c0109d8f:	5d                   	pop    %ebp
c0109d90:	c3                   	ret    

c0109d91 <parse_mmap>:
c0109d91:	55                   	push   %ebp
c0109d92:	89 e5                	mov    %esp,%ebp
c0109d94:	53                   	push   %ebx
c0109d95:	83 ec 14             	sub    $0x14,%esp
c0109d98:	c7 45 f4 00 00 00 00 	movl   $0x0,-0xc(%ebp)
c0109d9f:	eb 66                	jmp    c0109e07 <parse_mmap+0x76>
c0109da1:	a1 00 41 10 c0       	mov    0xc0104100,%eax
c0109da6:	83 f8 1f             	cmp    $0x1f,%eax
c0109da9:	7f 66                	jg     c0109e11 <parse_mmap+0x80>
c0109dab:	8b 55 f4             	mov    -0xc(%ebp),%edx
c0109dae:	89 d0                	mov    %edx,%eax
c0109db0:	01 c0                	add    %eax,%eax
c0109db2:	01 d0                	add    %edx,%eax
c0109db4:	c1 e0 03             	shl    $0x3,%eax
c0109db7:	89 c2                	mov    %eax,%edx
c0109db9:	8b 45 08             	mov    0x8(%ebp),%eax
c0109dbc:	01 d0                	add    %edx,%eax
c0109dbe:	8b 40 10             	mov    0x10(%eax),%eax
c0109dc1:	83 f8 01             	cmp    $0x1,%eax
c0109dc4:	75 3d                	jne    c0109e03 <parse_mmap+0x72>
c0109dc6:	8b 55 f4             	mov    -0xc(%ebp),%edx
c0109dc9:	89 d0                	mov    %edx,%eax
c0109dcb:	01 c0                	add    %eax,%eax
c0109dcd:	01 d0                	add    %edx,%eax
c0109dcf:	c1 e0 03             	shl    $0x3,%eax
c0109dd2:	89 c2                	mov    %eax,%edx
c0109dd4:	8b 45 08             	mov    0x8(%ebp),%eax
c0109dd7:	01 d0                	add    %edx,%eax
c0109dd9:	8b 48 08             	mov    0x8(%eax),%ecx
c0109ddc:	8b 58 0c             	mov    0xc(%eax),%ebx
c0109ddf:	8b 55 f4             	mov    -0xc(%ebp),%edx
c0109de2:	89 d0                	mov    %edx,%eax
c0109de4:	01 c0                	add    %eax,%eax
c0109de6:	01 d0                	add    %edx,%eax
c0109de8:	c1 e0 03             	shl    $0x3,%eax
c0109deb:	89 c2                	mov    %eax,%edx
c0109ded:	8b 45 08             	mov    0x8(%ebp),%eax
c0109df0:	01 d0                	add    %edx,%eax
c0109df2:	8b 50 04             	mov    0x4(%eax),%edx
c0109df5:	8b 00                	mov    (%eax),%eax
c0109df7:	53                   	push   %ebx
c0109df8:	51                   	push   %ecx
c0109df9:	52                   	push   %edx
c0109dfa:	50                   	push   %eax
c0109dfb:	e8 ed fd ff ff       	call   c0109bed <add_mem_block>
c0109e00:	83 c4 10             	add    $0x10,%esp
c0109e03:	83 45 f4 01          	addl   $0x1,-0xc(%ebp)
c0109e07:	8b 45 f4             	mov    -0xc(%ebp),%eax
c0109e0a:	3b 45 0c             	cmp    0xc(%ebp),%eax
c0109e0d:	72 92                	jb     c0109da1 <parse_mmap+0x10>
c0109e0f:	eb 01                	jmp    c0109e12 <parse_mmap+0x81>
c0109e11:	90                   	nop
c0109e12:	8b 5d fc             	mov    -0x4(%ebp),%ebx
c0109e15:	c9                   	leave  
c0109e16:	c3                   	ret    

c0109e17 <setup_page_dir>:
c0109e17:	55                   	push   %ebp
c0109e18:	89 e5                	mov    %esp,%ebp
c0109e1a:	83 ec 18             	sub    $0x18,%esp
c0109e1d:	83 ec 04             	sub    $0x4,%esp
c0109e20:	68 00 10 00 00       	push   $0x1000
c0109e25:	6a 00                	push   $0x0
c0109e27:	68 00 50 10 c0       	push   $0xc0105000
c0109e2c:	e8 37 83 00 00       	call   c0112168 <memset>
c0109e31:	83 c4 10             	add    $0x10,%esp
c0109e34:	c7 45 f4 00 03 00 00 	movl   $0x300,-0xc(%ebp)
c0109e3b:	8b 45 f4             	mov    -0xc(%ebp),%eax
c0109e3e:	0f b6 14 85 00 50 10 	movzbl -0x3fefb000(,%eax,4),%edx
c0109e45:	c0 
c0109e46:	83 ca 01             	or     $0x1,%edx
c0109e49:	88 14 85 00 50 10 c0 	mov    %dl,-0x3fefb000(,%eax,4)
c0109e50:	8b 45 f4             	mov    -0xc(%ebp),%eax
c0109e53:	0f b6 14 85 00 50 10 	movzbl -0x3fefb000(,%eax,4),%edx
c0109e5a:	c0 
c0109e5b:	83 ca 02             	or     $0x2,%edx
c0109e5e:	88 14 85 00 50 10 c0 	mov    %dl,-0x3fefb000(,%eax,4)
c0109e65:	8b 45 f4             	mov    -0xc(%ebp),%eax
c0109e68:	0f b6 14 85 00 50 10 	movzbl -0x3fefb000(,%eax,4),%edx
c0109e6f:	c0 
c0109e70:	83 ca 80             	or     $0xffffff80,%edx
c0109e73:	88 14 85 00 50 10 c0 	mov    %dl,-0x3fefb000(,%eax,4)
c0109e7a:	8b 45 f4             	mov    -0xc(%ebp),%eax
c0109e7d:	0f b7 14 85 02 50 10 	movzwl -0x3fefaffe(,%eax,4),%edx
c0109e84:	c0 
c0109e85:	83 e2 3f             	and    $0x3f,%edx
c0109e88:	66 89 14 85 02 50 10 	mov    %dx,-0x3fefaffe(,%eax,4)
c0109e8f:	c0 
c0109e90:	b8 00 50 10 c0       	mov    $0xc0105000,%eax
c0109e95:	05 00 00 00 40       	add    $0x40000000,%eax
c0109e9a:	89 45 f0             	mov    %eax,-0x10(%ebp)
c0109e9d:	83 ec 0c             	sub    $0xc,%esp
c0109ea0:	ff 75 f0             	pushl  -0x10(%ebp)
c0109ea3:	e8 c1 05 00 00       	call   c010a469 <load_cr3>
c0109ea8:	83 c4 10             	add    $0x10,%esp
c0109eab:	90                   	nop
c0109eac:	c9                   	leave  
c0109ead:	c3                   	ret    

c0109eae <find_free_frame>:
c0109eae:	55                   	push   %ebp
c0109eaf:	89 e5                	mov    %esp,%ebp
c0109eb1:	83 ec 18             	sub    $0x18,%esp
c0109eb4:	c7 45 f4 00 00 00 00 	movl   $0x0,-0xc(%ebp)
c0109ebb:	eb 65                	jmp    c0109f22 <find_free_frame+0x74>
c0109ebd:	8b 45 f4             	mov    -0xc(%ebp),%eax
c0109ec0:	69 c0 88 00 00 00    	imul   $0x88,%eax,%eax
c0109ec6:	05 04 30 10 c0       	add    $0xc0103004,%eax
c0109ecb:	8b 00                	mov    (%eax),%eax
c0109ecd:	8b 55 f4             	mov    -0xc(%ebp),%edx
c0109ed0:	69 d2 88 00 00 00    	imul   $0x88,%edx,%edx
c0109ed6:	81 c2 00 30 10 c0    	add    $0xc0103000,%edx
c0109edc:	83 c2 08             	add    $0x8,%edx
c0109edf:	83 ec 08             	sub    $0x8,%esp
c0109ee2:	50                   	push   %eax
c0109ee3:	52                   	push   %edx
c0109ee4:	e8 17 84 00 00       	call   c0112300 <bitset_find_one>
c0109ee9:	83 c4 10             	add    $0x10,%esp
c0109eec:	89 45 f0             	mov    %eax,-0x10(%ebp)
c0109eef:	8b 45 f4             	mov    -0xc(%ebp),%eax
c0109ef2:	69 c0 88 00 00 00    	imul   $0x88,%eax,%eax
c0109ef8:	05 04 30 10 c0       	add    $0xc0103004,%eax
c0109efd:	8b 00                	mov    (%eax),%eax
c0109eff:	39 45 f0             	cmp    %eax,-0x10(%ebp)
c0109f02:	73 1a                	jae    c0109f1e <find_free_frame+0x70>
c0109f04:	8b 45 f4             	mov    -0xc(%ebp),%eax
c0109f07:	69 c0 88 00 00 00    	imul   $0x88,%eax,%eax
c0109f0d:	05 00 30 10 c0       	add    $0xc0103000,%eax
c0109f12:	8b 10                	mov    (%eax),%edx
c0109f14:	8b 45 f0             	mov    -0x10(%ebp),%eax
c0109f17:	c1 e0 16             	shl    $0x16,%eax
c0109f1a:	01 d0                	add    %edx,%eax
c0109f1c:	eb 23                	jmp    c0109f41 <find_free_frame+0x93>
c0109f1e:	83 45 f4 01          	addl   $0x1,-0xc(%ebp)
c0109f22:	a1 00 41 10 c0       	mov    0xc0104100,%eax
c0109f27:	39 45 f4             	cmp    %eax,-0xc(%ebp)
c0109f2a:	7c 91                	jl     c0109ebd <find_free_frame+0xf>
c0109f2c:	83 ec 0c             	sub    $0xc,%esp
c0109f2f:	68 3f 31 11 c0       	push   $0xc011313f
c0109f34:	e8 6a 82 00 00       	call   c01121a3 <panic>
c0109f39:	83 c4 10             	add    $0x10,%esp
c0109f3c:	b8 00 00 00 00       	mov    $0x0,%eax
c0109f41:	c9                   	leave  
c0109f42:	c3                   	ret    

c0109f43 <claim_frame>:
c0109f43:	55                   	push   %ebp
c0109f44:	89 e5                	mov    %esp,%ebp
c0109f46:	83 ec 18             	sub    $0x18,%esp
c0109f49:	c7 45 f4 00 00 00 00 	movl   $0x0,-0xc(%ebp)
c0109f50:	eb 7e                	jmp    c0109fd0 <claim_frame+0x8d>
c0109f52:	8b 45 f4             	mov    -0xc(%ebp),%eax
c0109f55:	69 c0 88 00 00 00    	imul   $0x88,%eax,%eax
c0109f5b:	05 00 30 10 c0       	add    $0xc0103000,%eax
c0109f60:	8b 00                	mov    (%eax),%eax
c0109f62:	39 45 08             	cmp    %eax,0x8(%ebp)
c0109f65:	72 65                	jb     c0109fcc <claim_frame+0x89>
c0109f67:	8b 45 f4             	mov    -0xc(%ebp),%eax
c0109f6a:	69 c0 88 00 00 00    	imul   $0x88,%eax,%eax
c0109f70:	05 00 30 10 c0       	add    $0xc0103000,%eax
c0109f75:	8b 10                	mov    (%eax),%edx
c0109f77:	8b 45 f4             	mov    -0xc(%ebp),%eax
c0109f7a:	69 c0 88 00 00 00    	imul   $0x88,%eax,%eax
c0109f80:	05 04 30 10 c0       	add    $0xc0103004,%eax
c0109f85:	8b 00                	mov    (%eax),%eax
c0109f87:	c1 e0 16             	shl    $0x16,%eax
c0109f8a:	01 d0                	add    %edx,%eax
c0109f8c:	39 45 08             	cmp    %eax,0x8(%ebp)
c0109f8f:	77 3b                	ja     c0109fcc <claim_frame+0x89>
c0109f91:	8b 45 f4             	mov    -0xc(%ebp),%eax
c0109f94:	69 c0 88 00 00 00    	imul   $0x88,%eax,%eax
c0109f9a:	05 00 30 10 c0       	add    $0xc0103000,%eax
c0109f9f:	8b 10                	mov    (%eax),%edx
c0109fa1:	8b 45 08             	mov    0x8(%ebp),%eax
c0109fa4:	29 d0                	sub    %edx,%eax
c0109fa6:	c1 e8 16             	shr    $0x16,%eax
c0109fa9:	89 45 f0             	mov    %eax,-0x10(%ebp)
c0109fac:	8b 45 f4             	mov    -0xc(%ebp),%eax
c0109faf:	69 c0 88 00 00 00    	imul   $0x88,%eax,%eax
c0109fb5:	05 00 30 10 c0       	add    $0xc0103000,%eax
c0109fba:	83 c0 08             	add    $0x8,%eax
c0109fbd:	83 ec 08             	sub    $0x8,%esp
c0109fc0:	ff 75 f0             	pushl  -0x10(%ebp)
c0109fc3:	50                   	push   %eax
c0109fc4:	e8 76 82 00 00       	call   c011223f <bitset_clear>
c0109fc9:	83 c4 10             	add    $0x10,%esp
c0109fcc:	83 45 f4 01          	addl   $0x1,-0xc(%ebp)
c0109fd0:	a1 00 41 10 c0       	mov    0xc0104100,%eax
c0109fd5:	39 45 f4             	cmp    %eax,-0xc(%ebp)
c0109fd8:	0f 8c 74 ff ff ff    	jl     c0109f52 <claim_frame+0xf>
c0109fde:	90                   	nop
c0109fdf:	90                   	nop
c0109fe0:	c9                   	leave  
c0109fe1:	c3                   	ret    

c0109fe2 <free_frame>:
c0109fe2:	55                   	push   %ebp
c0109fe3:	89 e5                	mov    %esp,%ebp
c0109fe5:	83 ec 18             	sub    $0x18,%esp
c0109fe8:	c7 45 f4 00 00 00 00 	movl   $0x0,-0xc(%ebp)
c0109fef:	eb 7e                	jmp    c010a06f <free_frame+0x8d>
c0109ff1:	8b 45 f4             	mov    -0xc(%ebp),%eax
c0109ff4:	69 c0 88 00 00 00    	imul   $0x88,%eax,%eax
c0109ffa:	05 00 30 10 c0       	add    $0xc0103000,%eax
c0109fff:	8b 00                	mov    (%eax),%eax
c010a001:	39 45 08             	cmp    %eax,0x8(%ebp)
c010a004:	72 65                	jb     c010a06b <free_frame+0x89>
c010a006:	8b 45 f4             	mov    -0xc(%ebp),%eax
c010a009:	69 c0 88 00 00 00    	imul   $0x88,%eax,%eax
c010a00f:	05 00 30 10 c0       	add    $0xc0103000,%eax
c010a014:	8b 10                	mov    (%eax),%edx
c010a016:	8b 45 f4             	mov    -0xc(%ebp),%eax
c010a019:	69 c0 88 00 00 00    	imul   $0x88,%eax,%eax
c010a01f:	05 04 30 10 c0       	add    $0xc0103004,%eax
c010a024:	8b 00                	mov    (%eax),%eax
c010a026:	c1 e0 16             	shl    $0x16,%eax
c010a029:	01 d0                	add    %edx,%eax
c010a02b:	39 45 08             	cmp    %eax,0x8(%ebp)
c010a02e:	77 3b                	ja     c010a06b <free_frame+0x89>
c010a030:	8b 45 f4             	mov    -0xc(%ebp),%eax
c010a033:	69 c0 88 00 00 00    	imul   $0x88,%eax,%eax
c010a039:	05 00 30 10 c0       	add    $0xc0103000,%eax
c010a03e:	8b 10                	mov    (%eax),%edx
c010a040:	8b 45 08             	mov    0x8(%ebp),%eax
c010a043:	29 d0                	sub    %edx,%eax
c010a045:	c1 e8 16             	shr    $0x16,%eax
c010a048:	89 45 f0             	mov    %eax,-0x10(%ebp)
c010a04b:	8b 45 f4             	mov    -0xc(%ebp),%eax
c010a04e:	69 c0 88 00 00 00    	imul   $0x88,%eax,%eax
c010a054:	05 00 30 10 c0       	add    $0xc0103000,%eax
c010a059:	83 c0 08             	add    $0x8,%eax
c010a05c:	83 ec 08             	sub    $0x8,%esp
c010a05f:	ff 75 f0             	pushl  -0x10(%ebp)
c010a062:	50                   	push   %eax
c010a063:	e8 56 81 00 00       	call   c01121be <bitset_set>
c010a068:	83 c4 10             	add    $0x10,%esp
c010a06b:	83 45 f4 01          	addl   $0x1,-0xc(%ebp)
c010a06f:	a1 00 41 10 c0       	mov    0xc0104100,%eax
c010a074:	39 45 f4             	cmp    %eax,-0xc(%ebp)
c010a077:	0f 8c 74 ff ff ff    	jl     c0109ff1 <free_frame+0xf>
c010a07d:	90                   	nop
c010a07e:	90                   	nop
c010a07f:	c9                   	leave  
c010a080:	c3                   	ret    

c010a081 <set_page_frame>:
c010a081:	55                   	push   %ebp
c010a082:	89 e5                	mov    %esp,%ebp
c010a084:	83 ec 08             	sub    $0x8,%esp
c010a087:	8b 45 0c             	mov    0xc(%ebp),%eax
c010a08a:	8d 14 85 00 00 00 00 	lea    0x0(,%eax,4),%edx
c010a091:	8b 45 08             	mov    0x8(%ebp),%eax
c010a094:	01 d0                	add    %edx,%eax
c010a096:	83 ec 04             	sub    $0x4,%esp
c010a099:	6a 04                	push   $0x4
c010a09b:	6a 00                	push   $0x0
c010a09d:	50                   	push   %eax
c010a09e:	e8 c5 80 00 00       	call   c0112168 <memset>
c010a0a3:	83 c4 10             	add    $0x10,%esp
c010a0a6:	8b 45 0c             	mov    0xc(%ebp),%eax
c010a0a9:	8d 14 85 00 00 00 00 	lea    0x0(,%eax,4),%edx
c010a0b0:	8b 45 08             	mov    0x8(%ebp),%eax
c010a0b3:	01 d0                	add    %edx,%eax
c010a0b5:	0f b6 10             	movzbl (%eax),%edx
c010a0b8:	83 ca 01             	or     $0x1,%edx
c010a0bb:	88 10                	mov    %dl,(%eax)
c010a0bd:	8b 45 0c             	mov    0xc(%ebp),%eax
c010a0c0:	8d 14 85 00 00 00 00 	lea    0x0(,%eax,4),%edx
c010a0c7:	8b 45 08             	mov    0x8(%ebp),%eax
c010a0ca:	01 d0                	add    %edx,%eax
c010a0cc:	0f b6 10             	movzbl (%eax),%edx
c010a0cf:	83 ca 02             	or     $0x2,%edx
c010a0d2:	88 10                	mov    %dl,(%eax)
c010a0d4:	8b 45 0c             	mov    0xc(%ebp),%eax
c010a0d7:	8d 14 85 00 00 00 00 	lea    0x0(,%eax,4),%edx
c010a0de:	8b 45 08             	mov    0x8(%ebp),%eax
c010a0e1:	01 d0                	add    %edx,%eax
c010a0e3:	0f b6 10             	movzbl (%eax),%edx
c010a0e6:	83 ca 80             	or     $0xffffff80,%edx
c010a0e9:	88 10                	mov    %dl,(%eax)
c010a0eb:	8b 45 10             	mov    0x10(%ebp),%eax
c010a0ee:	c1 e8 16             	shr    $0x16,%eax
c010a0f1:	89 c1                	mov    %eax,%ecx
c010a0f3:	8b 45 0c             	mov    0xc(%ebp),%eax
c010a0f6:	8d 14 85 00 00 00 00 	lea    0x0(,%eax,4),%edx
c010a0fd:	8b 45 08             	mov    0x8(%ebp),%eax
c010a100:	01 c2                	add    %eax,%edx
c010a102:	89 c8                	mov    %ecx,%eax
c010a104:	66 25 ff 03          	and    $0x3ff,%ax
c010a108:	c1 e0 06             	shl    $0x6,%eax
c010a10b:	89 c1                	mov    %eax,%ecx
c010a10d:	0f b7 42 02          	movzwl 0x2(%edx),%eax
c010a111:	83 e0 3f             	and    $0x3f,%eax
c010a114:	09 c8                	or     %ecx,%eax
c010a116:	66 89 42 02          	mov    %ax,0x2(%edx)
c010a11a:	81 7d 0c ff 02 00 00 	cmpl   $0x2ff,0xc(%ebp)
c010a121:	77 17                	ja     c010a13a <set_page_frame+0xb9>
c010a123:	8b 45 0c             	mov    0xc(%ebp),%eax
c010a126:	8d 14 85 00 00 00 00 	lea    0x0(,%eax,4),%edx
c010a12d:	8b 45 08             	mov    0x8(%ebp),%eax
c010a130:	01 d0                	add    %edx,%eax
c010a132:	0f b6 10             	movzbl (%eax),%edx
c010a135:	83 ca 04             	or     $0x4,%edx
c010a138:	88 10                	mov    %dl,(%eax)
c010a13a:	90                   	nop
c010a13b:	c9                   	leave  
c010a13c:	c3                   	ret    

c010a13d <page_fault>:
c010a13d:	55                   	push   %ebp
c010a13e:	89 e5                	mov    %esp,%ebp
c010a140:	56                   	push   %esi
c010a141:	53                   	push   %ebx
c010a142:	83 ec 20             	sub    $0x20,%esp
c010a145:	8b 45 08             	mov    0x8(%ebp),%eax
c010a148:	8b 40 30             	mov    0x30(%eax),%eax
c010a14b:	83 e0 01             	and    $0x1,%eax
c010a14e:	85 c0                	test   %eax,%eax
c010a150:	0f 95 c0             	setne  %al
c010a153:	88 45 f3             	mov    %al,-0xd(%ebp)
c010a156:	8b 45 08             	mov    0x8(%ebp),%eax
c010a159:	8b 40 30             	mov    0x30(%eax),%eax
c010a15c:	83 e0 02             	and    $0x2,%eax
c010a15f:	85 c0                	test   %eax,%eax
c010a161:	0f 95 c0             	setne  %al
c010a164:	88 45 f2             	mov    %al,-0xe(%ebp)
c010a167:	8b 45 08             	mov    0x8(%ebp),%eax
c010a16a:	8b 40 30             	mov    0x30(%eax),%eax
c010a16d:	83 e0 04             	and    $0x4,%eax
c010a170:	85 c0                	test   %eax,%eax
c010a172:	0f 95 c0             	setne  %al
c010a175:	88 45 f1             	mov    %al,-0xf(%ebp)
c010a178:	8b 45 08             	mov    0x8(%ebp),%eax
c010a17b:	8b 40 30             	mov    0x30(%eax),%eax
c010a17e:	83 e0 08             	and    $0x8,%eax
c010a181:	85 c0                	test   %eax,%eax
c010a183:	0f 95 c0             	setne  %al
c010a186:	88 45 f0             	mov    %al,-0x10(%ebp)
c010a189:	8b 45 08             	mov    0x8(%ebp),%eax
c010a18c:	8b 40 30             	mov    0x30(%eax),%eax
c010a18f:	83 e0 10             	and    $0x10,%eax
c010a192:	85 c0                	test   %eax,%eax
c010a194:	0f 95 c0             	setne  %al
c010a197:	88 45 ef             	mov    %al,-0x11(%ebp)
c010a19a:	0f b6 45 f3          	movzbl -0xd(%ebp),%eax
c010a19e:	83 f0 01             	xor    $0x1,%eax
c010a1a1:	84 c0                	test   %al,%al
c010a1a3:	0f 84 94 00 00 00    	je     c010a23d <page_fault+0x100>
c010a1a9:	e8 de cf ff ff       	call   c010718c <is_all_init>
c010a1ae:	83 f0 01             	xor    $0x1,%eax
c010a1b1:	84 c0                	test   %al,%al
c010a1b3:	74 12                	je     c010a1c7 <page_fault+0x8a>
c010a1b5:	83 ec 0c             	sub    $0xc,%esp
c010a1b8:	68 4e 31 11 c0       	push   $0xc011314e
c010a1bd:	e8 ff e7 ff ff       	call   c01089c1 <vga_print>
c010a1c2:	83 c4 10             	add    $0x10,%esp
c010a1c5:	eb 1b                	jmp    c010a1e2 <page_fault+0xa5>
c010a1c7:	e8 97 07 00 00       	call   c010a963 <curr_process>
c010a1cc:	8b 00                	mov    (%eax),%eax
c010a1ce:	83 ec 04             	sub    $0x4,%esp
c010a1d1:	50                   	push   %eax
c010a1d2:	ff 75 0c             	pushl  0xc(%ebp)
c010a1d5:	68 5c 31 11 c0       	push   $0xc011315c
c010a1da:	e8 44 7a 00 00       	call   c0111c23 <printf>
c010a1df:	83 c4 10             	add    $0x10,%esp
c010a1e2:	8b 45 0c             	mov    0xc(%ebp),%eax
c010a1e5:	c1 e8 16             	shr    $0x16,%eax
c010a1e8:	89 45 e8             	mov    %eax,-0x18(%ebp)
c010a1eb:	e8 90 cf ff ff       	call   c0107180 <is_process_init>
c010a1f0:	84 c0                	test   %al,%al
c010a1f2:	74 16                	je     c010a20a <page_fault+0xcd>
c010a1f4:	e8 60 07 00 00       	call   c010a959 <curr_thread>
c010a1f9:	89 45 e4             	mov    %eax,-0x1c(%ebp)
c010a1fc:	8b 45 e4             	mov    -0x1c(%ebp),%eax
c010a1ff:	8b 40 24             	mov    0x24(%eax),%eax
c010a202:	8b 40 30             	mov    0x30(%eax),%eax
c010a205:	89 45 f4             	mov    %eax,-0xc(%ebp)
c010a208:	eb 07                	jmp    c010a211 <page_fault+0xd4>
c010a20a:	c7 45 f4 00 50 10 c0 	movl   $0xc0105000,-0xc(%ebp)
c010a211:	e8 98 fc ff ff       	call   c0109eae <find_free_frame>
c010a216:	89 45 e0             	mov    %eax,-0x20(%ebp)
c010a219:	83 ec 0c             	sub    $0xc,%esp
c010a21c:	ff 75 e0             	pushl  -0x20(%ebp)
c010a21f:	e8 1f fd ff ff       	call   c0109f43 <claim_frame>
c010a224:	83 c4 10             	add    $0x10,%esp
c010a227:	83 ec 04             	sub    $0x4,%esp
c010a22a:	ff 75 e0             	pushl  -0x20(%ebp)
c010a22d:	ff 75 e8             	pushl  -0x18(%ebp)
c010a230:	ff 75 f4             	pushl  -0xc(%ebp)
c010a233:	e8 49 fe ff ff       	call   c010a081 <set_page_frame>
c010a238:	83 c4 10             	add    $0x10,%esp
c010a23b:	eb 2e                	jmp    c010a26b <page_fault+0x12e>
c010a23d:	0f b6 75 ef          	movzbl -0x11(%ebp),%esi
c010a241:	0f b6 5d f0          	movzbl -0x10(%ebp),%ebx
c010a245:	0f b6 4d f1          	movzbl -0xf(%ebp),%ecx
c010a249:	0f b6 55 f2          	movzbl -0xe(%ebp),%edx
c010a24d:	0f b6 45 f3          	movzbl -0xd(%ebp),%eax
c010a251:	83 ec 04             	sub    $0x4,%esp
c010a254:	56                   	push   %esi
c010a255:	53                   	push   %ebx
c010a256:	51                   	push   %ecx
c010a257:	52                   	push   %edx
c010a258:	50                   	push   %eax
c010a259:	ff 75 0c             	pushl  0xc(%ebp)
c010a25c:	68 7c 31 11 c0       	push   $0xc011317c
c010a261:	e8 bd 79 00 00       	call   c0111c23 <printf>
c010a266:	83 c4 20             	add    $0x20,%esp
c010a269:	eb fe                	jmp    c010a269 <page_fault+0x12c>
c010a26b:	8d 65 f8             	lea    -0x8(%ebp),%esp
c010a26e:	5b                   	pop    %ebx
c010a26f:	5e                   	pop    %esi
c010a270:	5d                   	pop    %ebp
c010a271:	c3                   	ret    

c010a272 <init_paging>:
c010a272:	55                   	push   %ebp
c010a273:	89 e5                	mov    %esp,%ebp
c010a275:	83 ec 08             	sub    $0x8,%esp
c010a278:	83 ec 08             	sub    $0x8,%esp
c010a27b:	ff 75 0c             	pushl  0xc(%ebp)
c010a27e:	ff 75 08             	pushl  0x8(%ebp)
c010a281:	e8 0b fb ff ff       	call   c0109d91 <parse_mmap>
c010a286:	83 c4 10             	add    $0x10,%esp
c010a289:	e8 89 fb ff ff       	call   c0109e17 <setup_page_dir>
c010a28e:	90                   	nop
c010a28f:	c9                   	leave  
c010a290:	c3                   	ret    

c010a291 <kernel_page_table>:
c010a291:	55                   	push   %ebp
c010a292:	89 e5                	mov    %esp,%ebp
c010a294:	b8 00 50 10 c0       	mov    $0xc0105000,%eax
c010a299:	5d                   	pop    %ebp
c010a29a:	c3                   	ret    

c010a29b <physical_address>:
c010a29b:	55                   	push   %ebp
c010a29c:	89 e5                	mov    %esp,%ebp
c010a29e:	83 ec 18             	sub    $0x18,%esp
c010a2a1:	8b 45 08             	mov    0x8(%ebp),%eax
c010a2a4:	c1 e8 16             	shr    $0x16,%eax
c010a2a7:	89 45 f4             	mov    %eax,-0xc(%ebp)
c010a2aa:	8b 45 08             	mov    0x8(%ebp),%eax
c010a2ad:	25 ff ff 3f 00       	and    $0x3fffff,%eax
c010a2b2:	89 45 f0             	mov    %eax,-0x10(%ebp)
c010a2b5:	e8 9f 06 00 00       	call   c010a959 <curr_thread>
c010a2ba:	89 45 ec             	mov    %eax,-0x14(%ebp)
c010a2bd:	8b 45 ec             	mov    -0x14(%ebp),%eax
c010a2c0:	8b 40 24             	mov    0x24(%eax),%eax
c010a2c3:	8b 40 30             	mov    0x30(%eax),%eax
c010a2c6:	89 45 e8             	mov    %eax,-0x18(%ebp)
c010a2c9:	8b 45 f4             	mov    -0xc(%ebp),%eax
c010a2cc:	8d 14 85 00 00 00 00 	lea    0x0(,%eax,4),%edx
c010a2d3:	8b 45 e8             	mov    -0x18(%ebp),%eax
c010a2d6:	01 d0                	add    %edx,%eax
c010a2d8:	0f b6 00             	movzbl (%eax),%eax
c010a2db:	83 e0 01             	and    $0x1,%eax
c010a2de:	84 c0                	test   %al,%al
c010a2e0:	75 10                	jne    c010a2f2 <physical_address+0x57>
c010a2e2:	83 ec 0c             	sub    $0xc,%esp
c010a2e5:	68 d4 31 11 c0       	push   $0xc01131d4
c010a2ea:	e8 b4 7e 00 00       	call   c01121a3 <panic>
c010a2ef:	83 c4 10             	add    $0x10,%esp
c010a2f2:	8b 45 f4             	mov    -0xc(%ebp),%eax
c010a2f5:	8d 14 85 00 00 00 00 	lea    0x0(,%eax,4),%edx
c010a2fc:	8b 45 e8             	mov    -0x18(%ebp),%eax
c010a2ff:	01 d0                	add    %edx,%eax
c010a301:	0f b7 40 02          	movzwl 0x2(%eax),%eax
c010a305:	66 c1 e8 06          	shr    $0x6,%ax
c010a309:	0f b7 c0             	movzwl %ax,%eax
c010a30c:	c1 e0 16             	shl    $0x16,%eax
c010a30f:	0b 45 f0             	or     -0x10(%ebp),%eax
c010a312:	c9                   	leave  
c010a313:	c3                   	ret    

c010a314 <free_user_pages>:
c010a314:	55                   	push   %ebp
c010a315:	89 e5                	mov    %esp,%ebp
c010a317:	83 ec 08             	sub    $0x8,%esp
c010a31a:	83 ec 0c             	sub    $0xc,%esp
c010a31d:	68 0b 32 11 c0       	push   $0xc011320b
c010a322:	e8 7c 7e 00 00       	call   c01121a3 <panic>
c010a327:	83 c4 10             	add    $0x10,%esp
c010a32a:	90                   	nop
c010a32b:	c9                   	leave  
c010a32c:	c3                   	ret    

c010a32d <copy_address_space>:
c010a32d:	55                   	push   %ebp
c010a32e:	89 e5                	mov    %esp,%ebp
c010a330:	53                   	push   %ebx
c010a331:	83 ec 24             	sub    $0x24,%esp
c010a334:	8b 45 08             	mov    0x8(%ebp),%eax
c010a337:	89 45 f0             	mov    %eax,-0x10(%ebp)
c010a33a:	8b 45 0c             	mov    0xc(%ebp),%eax
c010a33d:	89 45 ec             	mov    %eax,-0x14(%ebp)
c010a340:	c7 45 e8 00 03 00 00 	movl   $0x300,-0x18(%ebp)
c010a347:	b8 00 04 00 00       	mov    $0x400,%eax
c010a34c:	2b 45 e8             	sub    -0x18(%ebp),%eax
c010a34f:	8d 0c 85 00 00 00 00 	lea    0x0(,%eax,4),%ecx
c010a356:	8b 45 e8             	mov    -0x18(%ebp),%eax
c010a359:	8d 14 85 00 00 00 00 	lea    0x0(,%eax,4),%edx
c010a360:	8b 45 ec             	mov    -0x14(%ebp),%eax
c010a363:	01 c2                	add    %eax,%edx
c010a365:	8b 45 e8             	mov    -0x18(%ebp),%eax
c010a368:	8d 1c 85 00 00 00 00 	lea    0x0(,%eax,4),%ebx
c010a36f:	8b 45 f0             	mov    -0x10(%ebp),%eax
c010a372:	01 d8                	add    %ebx,%eax
c010a374:	83 ec 04             	sub    $0x4,%esp
c010a377:	51                   	push   %ecx
c010a378:	52                   	push   %edx
c010a379:	50                   	push   %eax
c010a37a:	e8 d7 7d 00 00       	call   c0112156 <memcpy>
c010a37f:	83 c4 10             	add    $0x10,%esp
c010a382:	8b 45 e8             	mov    -0x18(%ebp),%eax
c010a385:	c1 e0 02             	shl    $0x2,%eax
c010a388:	83 ec 04             	sub    $0x4,%esp
c010a38b:	50                   	push   %eax
c010a38c:	6a 00                	push   $0x0
c010a38e:	ff 75 f0             	pushl  -0x10(%ebp)
c010a391:	e8 d2 7d 00 00       	call   c0112168 <memset>
c010a396:	83 c4 10             	add    $0x10,%esp
c010a399:	c7 45 f4 00 00 00 00 	movl   $0x0,-0xc(%ebp)
c010a3a0:	eb 79                	jmp    c010a41b <copy_address_space+0xee>
c010a3a2:	8b 45 f4             	mov    -0xc(%ebp),%eax
c010a3a5:	8d 14 85 00 00 00 00 	lea    0x0(,%eax,4),%edx
c010a3ac:	8b 45 ec             	mov    -0x14(%ebp),%eax
c010a3af:	01 d0                	add    %edx,%eax
c010a3b1:	0f b6 00             	movzbl (%eax),%eax
c010a3b4:	83 e0 01             	and    $0x1,%eax
c010a3b7:	84 c0                	test   %al,%al
c010a3b9:	74 5c                	je     c010a417 <copy_address_space+0xea>
c010a3bb:	e8 ee fa ff ff       	call   c0109eae <find_free_frame>
c010a3c0:	89 45 e4             	mov    %eax,-0x1c(%ebp)
c010a3c3:	83 ec 0c             	sub    $0xc,%esp
c010a3c6:	ff 75 e4             	pushl  -0x1c(%ebp)
c010a3c9:	e8 75 fb ff ff       	call   c0109f43 <claim_frame>
c010a3ce:	83 c4 10             	add    $0x10,%esp
c010a3d1:	83 ec 04             	sub    $0x4,%esp
c010a3d4:	ff 75 e4             	pushl  -0x1c(%ebp)
c010a3d7:	ff 75 f4             	pushl  -0xc(%ebp)
c010a3da:	ff 75 f0             	pushl  -0x10(%ebp)
c010a3dd:	e8 9f fc ff ff       	call   c010a081 <set_page_frame>
c010a3e2:	83 c4 10             	add    $0x10,%esp
c010a3e5:	83 ec 04             	sub    $0x4,%esp
c010a3e8:	ff 75 e4             	pushl  -0x1c(%ebp)
c010a3eb:	68 ff 03 00 00       	push   $0x3ff
c010a3f0:	ff 75 ec             	pushl  -0x14(%ebp)
c010a3f3:	e8 89 fc ff ff       	call   c010a081 <set_page_frame>
c010a3f8:	83 c4 10             	add    $0x10,%esp
c010a3fb:	8b 45 f4             	mov    -0xc(%ebp),%eax
c010a3fe:	c1 e0 16             	shl    $0x16,%eax
c010a401:	83 ec 04             	sub    $0x4,%esp
c010a404:	68 00 00 40 00       	push   $0x400000
c010a409:	50                   	push   %eax
c010a40a:	68 00 00 c0 ff       	push   $0xffc00000
c010a40f:	e8 42 7d 00 00       	call   c0112156 <memcpy>
c010a414:	83 c4 10             	add    $0x10,%esp
c010a417:	83 45 f4 01          	addl   $0x1,-0xc(%ebp)
c010a41b:	8b 45 f4             	mov    -0xc(%ebp),%eax
c010a41e:	3b 45 e8             	cmp    -0x18(%ebp),%eax
c010a421:	0f 82 7b ff ff ff    	jb     c010a3a2 <copy_address_space+0x75>
c010a427:	8b 45 ec             	mov    -0x14(%ebp),%eax
c010a42a:	05 fc 0f 00 00       	add    $0xffc,%eax
c010a42f:	0f b6 10             	movzbl (%eax),%edx
c010a432:	83 e2 fe             	and    $0xfffffffe,%edx
c010a435:	88 10                	mov    %dl,(%eax)
c010a437:	90                   	nop
c010a438:	8b 5d fc             	mov    -0x4(%ebp),%ebx
c010a43b:	c9                   	leave  
c010a43c:	c3                   	ret    

c010a43d <get_cr0>:
c010a43d:	0f 20 c0             	mov    %cr0,%eax
c010a440:	c3                   	ret    

c010a441 <get_cr1>:
c010a441:	0f 20 c8             	mov    %cr1,%eax
c010a444:	c3                   	ret    

c010a445 <get_cr2>:
c010a445:	0f 20 d0             	mov    %cr2,%eax
c010a448:	c3                   	ret    

c010a449 <get_cr3>:
c010a449:	0f 20 d8             	mov    %cr3,%eax
c010a44c:	c3                   	ret    

c010a44d <get_cr4>:
c010a44d:	0f 20 e0             	mov    %cr4,%eax
c010a450:	c3                   	ret    

c010a451 <load_cr0>:
c010a451:	8b 44 24 04          	mov    0x4(%esp),%eax
c010a455:	0f 22 c0             	mov    %eax,%cr0
c010a458:	c3                   	ret    

c010a459 <load_cr1>:
c010a459:	8b 44 24 04          	mov    0x4(%esp),%eax
c010a45d:	0f 22 c8             	mov    %eax,%cr1
c010a460:	c3                   	ret    

c010a461 <load_cr2>:
c010a461:	8b 44 24 04          	mov    0x4(%esp),%eax
c010a465:	0f 22 d0             	mov    %eax,%cr2
c010a468:	c3                   	ret    

c010a469 <load_cr3>:
c010a469:	8b 44 24 04          	mov    0x4(%esp),%eax
c010a46d:	0f 22 d8             	mov    %eax,%cr3
c010a470:	c3                   	ret    

c010a471 <load_cr4>:
c010a471:	8b 44 24 04          	mov    0x4(%esp),%eax
c010a475:	0f 22 e0             	mov    %eax,%cr4
c010a478:	c3                   	ret    

c010a479 <detach_node>:
c010a479:	55                   	push   %ebp
c010a47a:	89 e5                	mov    %esp,%ebp
c010a47c:	83 ec 10             	sub    $0x10,%esp
c010a47f:	a1 00 60 10 c0       	mov    0xc0106000,%eax
c010a484:	39 45 08             	cmp    %eax,0x8(%ebp)
c010a487:	75 0f                	jne    c010a498 <detach_node+0x1f>
c010a489:	a1 00 60 10 c0       	mov    0xc0106000,%eax
c010a48e:	8b 40 04             	mov    0x4(%eax),%eax
c010a491:	a3 00 60 10 c0       	mov    %eax,0xc0106000
c010a496:	eb 17                	jmp    c010a4af <detach_node+0x36>
c010a498:	a1 04 60 10 c0       	mov    0xc0106004,%eax
c010a49d:	39 45 08             	cmp    %eax,0x8(%ebp)
c010a4a0:	75 0d                	jne    c010a4af <detach_node+0x36>
c010a4a2:	a1 04 60 10 c0       	mov    0xc0106004,%eax
c010a4a7:	8b 40 04             	mov    0x4(%eax),%eax
c010a4aa:	a3 04 60 10 c0       	mov    %eax,0xc0106004
c010a4af:	8b 45 08             	mov    0x8(%ebp),%eax
c010a4b2:	8b 40 08             	mov    0x8(%eax),%eax
c010a4b5:	89 45 fc             	mov    %eax,-0x4(%ebp)
c010a4b8:	8b 45 08             	mov    0x8(%ebp),%eax
c010a4bb:	8b 40 04             	mov    0x4(%eax),%eax
c010a4be:	89 45 f8             	mov    %eax,-0x8(%ebp)
c010a4c1:	8b 45 08             	mov    0x8(%ebp),%eax
c010a4c4:	c7 40 04 00 00 00 00 	movl   $0x0,0x4(%eax)
c010a4cb:	8b 45 08             	mov    0x8(%ebp),%eax
c010a4ce:	8b 50 04             	mov    0x4(%eax),%edx
c010a4d1:	8b 45 08             	mov    0x8(%ebp),%eax
c010a4d4:	89 50 08             	mov    %edx,0x8(%eax)
c010a4d7:	83 7d fc 00          	cmpl   $0x0,-0x4(%ebp)
c010a4db:	74 09                	je     c010a4e6 <detach_node+0x6d>
c010a4dd:	8b 45 fc             	mov    -0x4(%ebp),%eax
c010a4e0:	8b 55 f8             	mov    -0x8(%ebp),%edx
c010a4e3:	89 50 04             	mov    %edx,0x4(%eax)
c010a4e6:	83 7d f8 00          	cmpl   $0x0,-0x8(%ebp)
c010a4ea:	74 09                	je     c010a4f5 <detach_node+0x7c>
c010a4ec:	8b 45 f8             	mov    -0x8(%ebp),%eax
c010a4ef:	8b 55 fc             	mov    -0x4(%ebp),%edx
c010a4f2:	89 50 08             	mov    %edx,0x8(%eax)
c010a4f5:	90                   	nop
c010a4f6:	c9                   	leave  
c010a4f7:	c3                   	ret    

c010a4f8 <add_hole>:
c010a4f8:	55                   	push   %ebp
c010a4f9:	89 e5                	mov    %esp,%ebp
c010a4fb:	8b 45 08             	mov    0x8(%ebp),%eax
c010a4fe:	c7 40 08 00 00 00 00 	movl   $0x0,0x8(%eax)
c010a505:	8b 15 00 60 10 c0    	mov    0xc0106000,%edx
c010a50b:	8b 45 08             	mov    0x8(%ebp),%eax
c010a50e:	89 50 04             	mov    %edx,0x4(%eax)
c010a511:	a1 00 60 10 c0       	mov    0xc0106000,%eax
c010a516:	85 c0                	test   %eax,%eax
c010a518:	74 0b                	je     c010a525 <add_hole+0x2d>
c010a51a:	a1 00 60 10 c0       	mov    0xc0106000,%eax
c010a51f:	8b 55 08             	mov    0x8(%ebp),%edx
c010a522:	89 50 08             	mov    %edx,0x8(%eax)
c010a525:	8b 45 08             	mov    0x8(%ebp),%eax
c010a528:	a3 00 60 10 c0       	mov    %eax,0xc0106000
c010a52d:	90                   	nop
c010a52e:	5d                   	pop    %ebp
c010a52f:	c3                   	ret    

c010a530 <add_block>:
c010a530:	55                   	push   %ebp
c010a531:	89 e5                	mov    %esp,%ebp
c010a533:	8b 45 08             	mov    0x8(%ebp),%eax
c010a536:	c7 40 08 00 00 00 00 	movl   $0x0,0x8(%eax)
c010a53d:	8b 15 04 60 10 c0    	mov    0xc0106004,%edx
c010a543:	8b 45 08             	mov    0x8(%ebp),%eax
c010a546:	89 50 04             	mov    %edx,0x4(%eax)
c010a549:	a1 04 60 10 c0       	mov    0xc0106004,%eax
c010a54e:	85 c0                	test   %eax,%eax
c010a550:	74 0b                	je     c010a55d <add_block+0x2d>
c010a552:	a1 04 60 10 c0       	mov    0xc0106004,%eax
c010a557:	8b 55 08             	mov    0x8(%ebp),%edx
c010a55a:	89 50 08             	mov    %edx,0x8(%eax)
c010a55d:	8b 45 08             	mov    0x8(%ebp),%eax
c010a560:	a3 04 60 10 c0       	mov    %eax,0xc0106004
c010a565:	90                   	nop
c010a566:	5d                   	pop    %ebp
c010a567:	c3                   	ret    

c010a568 <init_kheap>:
c010a568:	55                   	push   %ebp
c010a569:	89 e5                	mov    %esp,%ebp
c010a56b:	c7 05 04 60 10 c0 00 	movl   $0x0,0xc0106004
c010a572:	00 00 00 
c010a575:	c7 05 00 60 10 c0 00 	movl   $0xc0400000,0xc0106000
c010a57c:	00 40 c0 
c010a57f:	a1 00 60 10 c0       	mov    0xc0106000,%eax
c010a584:	c7 00 f0 ff ff 07    	movl   $0x7fffff0,(%eax)
c010a58a:	a1 00 60 10 c0       	mov    0xc0106000,%eax
c010a58f:	c7 40 04 00 00 00 00 	movl   $0x0,0x4(%eax)
c010a596:	8b 15 00 60 10 c0    	mov    0xc0106000,%edx
c010a59c:	8b 40 04             	mov    0x4(%eax),%eax
c010a59f:	89 42 08             	mov    %eax,0x8(%edx)
c010a5a2:	c7 05 08 60 10 c0 00 	movl   $0x0,0xc0106008
c010a5a9:	00 00 00 
c010a5ac:	90                   	nop
c010a5ad:	5d                   	pop    %ebp
c010a5ae:	c3                   	ret    

c010a5af <shrink_node>:
c010a5af:	55                   	push   %ebp
c010a5b0:	89 e5                	mov    %esp,%ebp
c010a5b2:	83 ec 10             	sub    $0x10,%esp
c010a5b5:	8b 45 08             	mov    0x8(%ebp),%eax
c010a5b8:	8b 00                	mov    (%eax),%eax
c010a5ba:	39 45 0c             	cmp    %eax,0xc(%ebp)
c010a5bd:	76 0a                	jbe    c010a5c9 <shrink_node+0x1a>
c010a5bf:	b8 00 00 00 00       	mov    $0x0,%eax
c010a5c4:	e9 84 00 00 00       	jmp    c010a64d <shrink_node+0x9e>
c010a5c9:	8b 45 08             	mov    0x8(%ebp),%eax
c010a5cc:	89 45 f8             	mov    %eax,-0x8(%ebp)
c010a5cf:	8b 45 08             	mov    0x8(%ebp),%eax
c010a5d2:	8b 10                	mov    (%eax),%edx
c010a5d4:	8b 45 f8             	mov    -0x8(%ebp),%eax
c010a5d7:	01 d0                	add    %edx,%eax
c010a5d9:	83 c0 10             	add    $0x10,%eax
c010a5dc:	89 45 f4             	mov    %eax,-0xc(%ebp)
c010a5df:	8b 55 f8             	mov    -0x8(%ebp),%edx
c010a5e2:	8b 45 0c             	mov    0xc(%ebp),%eax
c010a5e5:	01 d0                	add    %edx,%eax
c010a5e7:	83 c0 10             	add    $0x10,%eax
c010a5ea:	89 45 fc             	mov    %eax,-0x4(%ebp)
c010a5ed:	8b 45 fc             	mov    -0x4(%ebp),%eax
c010a5f0:	83 e0 0f             	and    $0xf,%eax
c010a5f3:	85 c0                	test   %eax,%eax
c010a5f5:	74 0f                	je     c010a606 <shrink_node+0x57>
c010a5f7:	8b 45 fc             	mov    -0x4(%ebp),%eax
c010a5fa:	c1 e8 04             	shr    $0x4,%eax
c010a5fd:	83 c0 01             	add    $0x1,%eax
c010a600:	c1 e0 04             	shl    $0x4,%eax
c010a603:	89 45 fc             	mov    %eax,-0x4(%ebp)
c010a606:	8b 45 08             	mov    0x8(%ebp),%eax
c010a609:	8b 55 0c             	mov    0xc(%ebp),%edx
c010a60c:	89 10                	mov    %edx,(%eax)
c010a60e:	8b 45 fc             	mov    -0x4(%ebp),%eax
c010a611:	83 c0 04             	add    $0x4,%eax
c010a614:	39 45 f4             	cmp    %eax,-0xc(%ebp)
c010a617:	77 07                	ja     c010a620 <shrink_node+0x71>
c010a619:	b8 00 00 00 00       	mov    $0x0,%eax
c010a61e:	eb 2d                	jmp    c010a64d <shrink_node+0x9e>
c010a620:	8b 45 fc             	mov    -0x4(%ebp),%eax
c010a623:	89 45 f0             	mov    %eax,-0x10(%ebp)
c010a626:	8b 45 f0             	mov    -0x10(%ebp),%eax
c010a629:	c7 40 08 00 00 00 00 	movl   $0x0,0x8(%eax)
c010a630:	8b 45 f0             	mov    -0x10(%ebp),%eax
c010a633:	8b 50 08             	mov    0x8(%eax),%edx
c010a636:	8b 45 f0             	mov    -0x10(%ebp),%eax
c010a639:	89 50 04             	mov    %edx,0x4(%eax)
c010a63c:	8b 45 f4             	mov    -0xc(%ebp),%eax
c010a63f:	2b 45 fc             	sub    -0x4(%ebp),%eax
c010a642:	8d 50 f0             	lea    -0x10(%eax),%edx
c010a645:	8b 45 f0             	mov    -0x10(%ebp),%eax
c010a648:	89 10                	mov    %edx,(%eax)
c010a64a:	8b 45 f0             	mov    -0x10(%ebp),%eax
c010a64d:	c9                   	leave  
c010a64e:	c3                   	ret    

c010a64f <find_hole>:
c010a64f:	55                   	push   %ebp
c010a650:	89 e5                	mov    %esp,%ebp
c010a652:	83 ec 28             	sub    $0x28,%esp
c010a655:	a1 00 60 10 c0       	mov    0xc0106000,%eax
c010a65a:	89 45 f4             	mov    %eax,-0xc(%ebp)
c010a65d:	e9 c3 00 00 00       	jmp    c010a725 <find_hole+0xd6>
c010a662:	8b 45 f4             	mov    -0xc(%ebp),%eax
c010a665:	83 c0 10             	add    $0x10,%eax
c010a668:	89 45 ec             	mov    %eax,-0x14(%ebp)
c010a66b:	8b 45 f4             	mov    -0xc(%ebp),%eax
c010a66e:	8b 10                	mov    (%eax),%edx
c010a670:	8b 45 ec             	mov    -0x14(%ebp),%eax
c010a673:	01 d0                	add    %edx,%eax
c010a675:	89 45 e8             	mov    %eax,-0x18(%ebp)
c010a678:	8b 45 ec             	mov    -0x14(%ebp),%eax
c010a67b:	89 45 f0             	mov    %eax,-0x10(%ebp)
c010a67e:	8b 45 ec             	mov    -0x14(%ebp),%eax
c010a681:	ba 00 00 00 00       	mov    $0x0,%edx
c010a686:	f7 75 0c             	divl   0xc(%ebp)
c010a689:	89 d0                	mov    %edx,%eax
c010a68b:	85 c0                	test   %eax,%eax
c010a68d:	74 17                	je     c010a6a6 <find_hole+0x57>
c010a68f:	8b 45 ec             	mov    -0x14(%ebp),%eax
c010a692:	ba 00 00 00 00       	mov    $0x0,%edx
c010a697:	f7 75 0c             	divl   0xc(%ebp)
c010a69a:	8d 50 01             	lea    0x1(%eax),%edx
c010a69d:	8b 45 0c             	mov    0xc(%ebp),%eax
c010a6a0:	0f af c2             	imul   %edx,%eax
c010a6a3:	89 45 f0             	mov    %eax,-0x10(%ebp)
c010a6a6:	8b 55 f0             	mov    -0x10(%ebp),%edx
c010a6a9:	8b 45 08             	mov    0x8(%ebp),%eax
c010a6ac:	01 d0                	add    %edx,%eax
c010a6ae:	39 45 e8             	cmp    %eax,-0x18(%ebp)
c010a6b1:	72 69                	jb     c010a71c <find_hole+0xcd>
c010a6b3:	8b 45 ec             	mov    -0x14(%ebp),%eax
c010a6b6:	83 c0 10             	add    $0x10,%eax
c010a6b9:	39 45 f0             	cmp    %eax,-0x10(%ebp)
c010a6bc:	76 2d                	jbe    c010a6eb <find_hole+0x9c>
c010a6be:	8b 45 f0             	mov    -0x10(%ebp),%eax
c010a6c1:	2b 45 ec             	sub    -0x14(%ebp),%eax
c010a6c4:	83 e8 10             	sub    $0x10,%eax
c010a6c7:	89 45 e4             	mov    %eax,-0x1c(%ebp)
c010a6ca:	ff 75 e4             	pushl  -0x1c(%ebp)
c010a6cd:	ff 75 f4             	pushl  -0xc(%ebp)
c010a6d0:	e8 da fe ff ff       	call   c010a5af <shrink_node>
c010a6d5:	83 c4 08             	add    $0x8,%esp
c010a6d8:	89 45 e0             	mov    %eax,-0x20(%ebp)
c010a6db:	ff 75 e0             	pushl  -0x20(%ebp)
c010a6de:	e8 15 fe ff ff       	call   c010a4f8 <add_hole>
c010a6e3:	83 c4 04             	add    $0x4,%esp
c010a6e6:	8b 45 e0             	mov    -0x20(%ebp),%eax
c010a6e9:	eb 59                	jmp    c010a744 <find_hole+0xf5>
c010a6eb:	ff 75 f4             	pushl  -0xc(%ebp)
c010a6ee:	e8 86 fd ff ff       	call   c010a479 <detach_node>
c010a6f3:	83 c4 04             	add    $0x4,%esp
c010a6f6:	8b 45 f0             	mov    -0x10(%ebp),%eax
c010a6f9:	83 e8 10             	sub    $0x10,%eax
c010a6fc:	89 45 f4             	mov    %eax,-0xc(%ebp)
c010a6ff:	8b 45 e8             	mov    -0x18(%ebp),%eax
c010a702:	2b 45 f0             	sub    -0x10(%ebp),%eax
c010a705:	89 c2                	mov    %eax,%edx
c010a707:	8b 45 f4             	mov    -0xc(%ebp),%eax
c010a70a:	89 10                	mov    %edx,(%eax)
c010a70c:	ff 75 f4             	pushl  -0xc(%ebp)
c010a70f:	e8 e4 fd ff ff       	call   c010a4f8 <add_hole>
c010a714:	83 c4 04             	add    $0x4,%esp
c010a717:	8b 45 f4             	mov    -0xc(%ebp),%eax
c010a71a:	eb 28                	jmp    c010a744 <find_hole+0xf5>
c010a71c:	8b 45 f4             	mov    -0xc(%ebp),%eax
c010a71f:	8b 40 04             	mov    0x4(%eax),%eax
c010a722:	89 45 f4             	mov    %eax,-0xc(%ebp)
c010a725:	83 7d f4 00          	cmpl   $0x0,-0xc(%ebp)
c010a729:	0f 85 33 ff ff ff    	jne    c010a662 <find_hole+0x13>
c010a72f:	83 ec 0c             	sub    $0xc,%esp
c010a732:	68 1c 32 11 c0       	push   $0xc011321c
c010a737:	e8 67 7a 00 00       	call   c01121a3 <panic>
c010a73c:	83 c4 10             	add    $0x10,%esp
c010a73f:	b8 00 00 00 00       	mov    $0x0,%eax
c010a744:	c9                   	leave  
c010a745:	c3                   	ret    

c010a746 <print_node>:
c010a746:	55                   	push   %ebp
c010a747:	89 e5                	mov    %esp,%ebp
c010a749:	83 ec 08             	sub    $0x8,%esp
c010a74c:	8b 45 08             	mov    0x8(%ebp),%eax
c010a74f:	8b 10                	mov    (%eax),%edx
c010a751:	8b 45 08             	mov    0x8(%ebp),%eax
c010a754:	83 ec 04             	sub    $0x4,%esp
c010a757:	52                   	push   %edx
c010a758:	50                   	push   %eax
c010a759:	68 45 32 11 c0       	push   $0xc0113245
c010a75e:	e8 c0 74 00 00       	call   c0111c23 <printf>
c010a763:	83 c4 10             	add    $0x10,%esp
c010a766:	90                   	nop
c010a767:	c9                   	leave  
c010a768:	c3                   	ret    

c010a769 <print_lists>:
c010a769:	55                   	push   %ebp
c010a76a:	89 e5                	mov    %esp,%ebp
c010a76c:	83 ec 18             	sub    $0x18,%esp
c010a76f:	83 ec 0c             	sub    $0xc,%esp
c010a772:	68 56 32 11 c0       	push   $0xc0113256
c010a777:	e8 a7 74 00 00       	call   c0111c23 <printf>
c010a77c:	83 c4 10             	add    $0x10,%esp
c010a77f:	a1 00 60 10 c0       	mov    0xc0106000,%eax
c010a784:	89 45 f4             	mov    %eax,-0xc(%ebp)
c010a787:	eb 17                	jmp    c010a7a0 <print_lists+0x37>
c010a789:	83 ec 0c             	sub    $0xc,%esp
c010a78c:	ff 75 f4             	pushl  -0xc(%ebp)
c010a78f:	e8 b2 ff ff ff       	call   c010a746 <print_node>
c010a794:	83 c4 10             	add    $0x10,%esp
c010a797:	8b 45 f4             	mov    -0xc(%ebp),%eax
c010a79a:	8b 40 04             	mov    0x4(%eax),%eax
c010a79d:	89 45 f4             	mov    %eax,-0xc(%ebp)
c010a7a0:	83 7d f4 00          	cmpl   $0x0,-0xc(%ebp)
c010a7a4:	75 e3                	jne    c010a789 <print_lists+0x20>
c010a7a6:	83 ec 0c             	sub    $0xc,%esp
c010a7a9:	68 61 32 11 c0       	push   $0xc0113261
c010a7ae:	e8 70 74 00 00       	call   c0111c23 <printf>
c010a7b3:	83 c4 10             	add    $0x10,%esp
c010a7b6:	a1 04 60 10 c0       	mov    0xc0106004,%eax
c010a7bb:	89 45 f0             	mov    %eax,-0x10(%ebp)
c010a7be:	eb 17                	jmp    c010a7d7 <print_lists+0x6e>
c010a7c0:	83 ec 0c             	sub    $0xc,%esp
c010a7c3:	ff 75 f0             	pushl  -0x10(%ebp)
c010a7c6:	e8 7b ff ff ff       	call   c010a746 <print_node>
c010a7cb:	83 c4 10             	add    $0x10,%esp
c010a7ce:	8b 45 f0             	mov    -0x10(%ebp),%eax
c010a7d1:	8b 40 04             	mov    0x4(%eax),%eax
c010a7d4:	89 45 f0             	mov    %eax,-0x10(%ebp)
c010a7d7:	83 7d f0 00          	cmpl   $0x0,-0x10(%ebp)
c010a7db:	75 e3                	jne    c010a7c0 <print_lists+0x57>
c010a7dd:	83 ec 0c             	sub    $0xc,%esp
c010a7e0:	68 6d 32 11 c0       	push   $0xc011326d
c010a7e5:	e8 39 74 00 00       	call   c0111c23 <printf>
c010a7ea:	83 c4 10             	add    $0x10,%esp
c010a7ed:	90                   	nop
c010a7ee:	c9                   	leave  
c010a7ef:	c3                   	ret    

c010a7f0 <kmalloc>:
c010a7f0:	55                   	push   %ebp
c010a7f1:	89 e5                	mov    %esp,%ebp
c010a7f3:	83 ec 08             	sub    $0x8,%esp
c010a7f6:	83 ec 08             	sub    $0x8,%esp
c010a7f9:	6a 10                	push   $0x10
c010a7fb:	ff 75 08             	pushl  0x8(%ebp)
c010a7fe:	e8 05 00 00 00       	call   c010a808 <kmalloc_aligned>
c010a803:	83 c4 10             	add    $0x10,%esp
c010a806:	c9                   	leave  
c010a807:	c3                   	ret    

c010a808 <kmalloc_aligned>:
c010a808:	55                   	push   %ebp
c010a809:	89 e5                	mov    %esp,%ebp
c010a80b:	83 ec 18             	sub    $0x18,%esp
c010a80e:	83 ec 0c             	sub    $0xc,%esp
c010a811:	68 08 60 10 c0       	push   $0xc0106008
c010a816:	e8 ee 1a 00 00       	call   c010c309 <ksl_acquire>
c010a81b:	83 c4 10             	add    $0x10,%esp
c010a81e:	8b 45 0c             	mov    0xc(%ebp),%eax
c010a821:	83 e0 0f             	and    $0xf,%eax
c010a824:	85 c0                	test   %eax,%eax
c010a826:	74 10                	je     c010a838 <kmalloc_aligned+0x30>
c010a828:	83 ec 0c             	sub    $0xc,%esp
c010a82b:	68 70 32 11 c0       	push   $0xc0113270
c010a830:	e8 6e 79 00 00       	call   c01121a3 <panic>
c010a835:	83 c4 10             	add    $0x10,%esp
c010a838:	8b 45 08             	mov    0x8(%ebp),%eax
c010a83b:	83 e0 0f             	and    $0xf,%eax
c010a83e:	85 c0                	test   %eax,%eax
c010a840:	74 08                	je     c010a84a <kmalloc_aligned+0x42>
c010a842:	83 65 08 f0          	andl   $0xfffffff0,0x8(%ebp)
c010a846:	83 45 08 10          	addl   $0x10,0x8(%ebp)
c010a84a:	83 ec 08             	sub    $0x8,%esp
c010a84d:	ff 75 0c             	pushl  0xc(%ebp)
c010a850:	ff 75 08             	pushl  0x8(%ebp)
c010a853:	e8 f7 fd ff ff       	call   c010a64f <find_hole>
c010a858:	83 c4 10             	add    $0x10,%esp
c010a85b:	89 45 f4             	mov    %eax,-0xc(%ebp)
c010a85e:	83 ec 0c             	sub    $0xc,%esp
c010a861:	ff 75 f4             	pushl  -0xc(%ebp)
c010a864:	e8 10 fc ff ff       	call   c010a479 <detach_node>
c010a869:	83 c4 10             	add    $0x10,%esp
c010a86c:	83 ec 0c             	sub    $0xc,%esp
c010a86f:	ff 75 f4             	pushl  -0xc(%ebp)
c010a872:	e8 b9 fc ff ff       	call   c010a530 <add_block>
c010a877:	83 c4 10             	add    $0x10,%esp
c010a87a:	8b 45 f4             	mov    -0xc(%ebp),%eax
c010a87d:	83 c0 10             	add    $0x10,%eax
c010a880:	89 45 f0             	mov    %eax,-0x10(%ebp)
c010a883:	8b 55 f0             	mov    -0x10(%ebp),%edx
c010a886:	8b 45 08             	mov    0x8(%ebp),%eax
c010a889:	01 d0                	add    %edx,%eax
c010a88b:	8d 50 10             	lea    0x10(%eax),%edx
c010a88e:	8b 45 f4             	mov    -0xc(%ebp),%eax
c010a891:	8b 08                	mov    (%eax),%ecx
c010a893:	8b 45 f0             	mov    -0x10(%ebp),%eax
c010a896:	01 c8                	add    %ecx,%eax
c010a898:	39 c2                	cmp    %eax,%edx
c010a89a:	73 22                	jae    c010a8be <kmalloc_aligned+0xb6>
c010a89c:	83 ec 08             	sub    $0x8,%esp
c010a89f:	ff 75 08             	pushl  0x8(%ebp)
c010a8a2:	ff 75 f4             	pushl  -0xc(%ebp)
c010a8a5:	e8 05 fd ff ff       	call   c010a5af <shrink_node>
c010a8aa:	83 c4 10             	add    $0x10,%esp
c010a8ad:	89 45 ec             	mov    %eax,-0x14(%ebp)
c010a8b0:	83 ec 0c             	sub    $0xc,%esp
c010a8b3:	ff 75 ec             	pushl  -0x14(%ebp)
c010a8b6:	e8 3d fc ff ff       	call   c010a4f8 <add_hole>
c010a8bb:	83 c4 10             	add    $0x10,%esp
c010a8be:	8b 45 f4             	mov    -0xc(%ebp),%eax
c010a8c1:	83 c0 10             	add    $0x10,%eax
c010a8c4:	89 45 e8             	mov    %eax,-0x18(%ebp)
c010a8c7:	83 ec 0c             	sub    $0xc,%esp
c010a8ca:	68 08 60 10 c0       	push   $0xc0106008
c010a8cf:	e8 56 1a 00 00       	call   c010c32a <ksl_release>
c010a8d4:	83 c4 10             	add    $0x10,%esp
c010a8d7:	8b 45 e8             	mov    -0x18(%ebp),%eax
c010a8da:	c9                   	leave  
c010a8db:	c3                   	ret    

c010a8dc <kfree>:
c010a8dc:	55                   	push   %ebp
c010a8dd:	89 e5                	mov    %esp,%ebp
c010a8df:	83 ec 18             	sub    $0x18,%esp
c010a8e2:	83 ec 0c             	sub    $0xc,%esp
c010a8e5:	68 08 60 10 c0       	push   $0xc0106008
c010a8ea:	e8 1a 1a 00 00       	call   c010c309 <ksl_acquire>
c010a8ef:	83 c4 10             	add    $0x10,%esp
c010a8f2:	8b 45 08             	mov    0x8(%ebp),%eax
c010a8f5:	83 e8 10             	sub    $0x10,%eax
c010a8f8:	89 45 f4             	mov    %eax,-0xc(%ebp)
c010a8fb:	83 ec 0c             	sub    $0xc,%esp
c010a8fe:	ff 75 f4             	pushl  -0xc(%ebp)
c010a901:	e8 73 fb ff ff       	call   c010a479 <detach_node>
c010a906:	83 c4 10             	add    $0x10,%esp
c010a909:	83 ec 0c             	sub    $0xc,%esp
c010a90c:	ff 75 f4             	pushl  -0xc(%ebp)
c010a90f:	e8 e4 fb ff ff       	call   c010a4f8 <add_hole>
c010a914:	83 c4 10             	add    $0x10,%esp
c010a917:	83 ec 0c             	sub    $0xc,%esp
c010a91a:	68 08 60 10 c0       	push   $0xc0106008
c010a91f:	e8 06 1a 00 00       	call   c010c32a <ksl_release>
c010a924:	83 c4 10             	add    $0x10,%esp
c010a927:	90                   	nop
c010a928:	c9                   	leave  
c010a929:	c3                   	ret    

c010a92a <sinit_threads>:
c010a92a:	55                   	push   %ebp
c010a92b:	89 e5                	mov    %esp,%ebp
c010a92d:	83 ec 08             	sub    $0x8,%esp
c010a930:	c7 05 14 60 10 c0 00 	movl   $0x0,0xc0106014
c010a937:	00 00 00 
c010a93a:	8b 45 08             	mov    0x8(%ebp),%eax
c010a93d:	c7 40 10 02 00 00 00 	movl   $0x2,0x10(%eax)
c010a944:	8b 45 08             	mov    0x8(%ebp),%eax
c010a947:	a3 10 60 10 c0       	mov    %eax,0xc0106010
c010a94c:	e8 7d 19 00 00       	call   c010c2ce <ksl_create>
c010a951:	a3 0c 60 10 c0       	mov    %eax,0xc010600c
c010a956:	90                   	nop
c010a957:	c9                   	leave  
c010a958:	c3                   	ret    

c010a959 <curr_thread>:
c010a959:	55                   	push   %ebp
c010a95a:	89 e5                	mov    %esp,%ebp
c010a95c:	a1 10 60 10 c0       	mov    0xc0106010,%eax
c010a961:	5d                   	pop    %ebp
c010a962:	c3                   	ret    

c010a963 <curr_process>:
c010a963:	55                   	push   %ebp
c010a964:	89 e5                	mov    %esp,%ebp
c010a966:	a1 10 60 10 c0       	mov    0xc0106010,%eax
c010a96b:	8b 40 24             	mov    0x24(%eax),%eax
c010a96e:	5d                   	pop    %ebp
c010a96f:	c3                   	ret    

c010a970 <add_ready>:
c010a970:	55                   	push   %ebp
c010a971:	89 e5                	mov    %esp,%ebp
c010a973:	83 ec 10             	sub    $0x10,%esp
c010a976:	a1 14 60 10 c0       	mov    0xc0106014,%eax
c010a97b:	85 c0                	test   %eax,%eax
c010a97d:	75 1c                	jne    c010a99b <add_ready+0x2b>
c010a97f:	8b 45 08             	mov    0x8(%ebp),%eax
c010a982:	a3 14 60 10 c0       	mov    %eax,0xc0106014
c010a987:	8b 45 08             	mov    0x8(%ebp),%eax
c010a98a:	8b 55 08             	mov    0x8(%ebp),%edx
c010a98d:	89 50 14             	mov    %edx,0x14(%eax)
c010a990:	8b 45 08             	mov    0x8(%ebp),%eax
c010a993:	8b 55 08             	mov    0x8(%ebp),%edx
c010a996:	89 50 18             	mov    %edx,0x18(%eax)
c010a999:	eb 34                	jmp    c010a9cf <add_ready+0x5f>
c010a99b:	a1 14 60 10 c0       	mov    0xc0106014,%eax
c010a9a0:	8b 40 18             	mov    0x18(%eax),%eax
c010a9a3:	89 45 fc             	mov    %eax,-0x4(%ebp)
c010a9a6:	8b 15 14 60 10 c0    	mov    0xc0106014,%edx
c010a9ac:	8b 45 08             	mov    0x8(%ebp),%eax
c010a9af:	89 50 14             	mov    %edx,0x14(%eax)
c010a9b2:	8b 45 08             	mov    0x8(%ebp),%eax
c010a9b5:	8b 55 fc             	mov    -0x4(%ebp),%edx
c010a9b8:	89 50 18             	mov    %edx,0x18(%eax)
c010a9bb:	8b 45 fc             	mov    -0x4(%ebp),%eax
c010a9be:	8b 55 08             	mov    0x8(%ebp),%edx
c010a9c1:	89 50 14             	mov    %edx,0x14(%eax)
c010a9c4:	a1 14 60 10 c0       	mov    0xc0106014,%eax
c010a9c9:	8b 55 08             	mov    0x8(%ebp),%edx
c010a9cc:	89 50 18             	mov    %edx,0x18(%eax)
c010a9cf:	90                   	nop
c010a9d0:	c9                   	leave  
c010a9d1:	c3                   	ret    

c010a9d2 <remove_ready>:
c010a9d2:	55                   	push   %ebp
c010a9d3:	89 e5                	mov    %esp,%ebp
c010a9d5:	83 ec 10             	sub    $0x10,%esp
c010a9d8:	8b 45 08             	mov    0x8(%ebp),%eax
c010a9db:	8b 40 14             	mov    0x14(%eax),%eax
c010a9de:	39 45 08             	cmp    %eax,0x8(%ebp)
c010a9e1:	75 0c                	jne    c010a9ef <remove_ready+0x1d>
c010a9e3:	c7 05 14 60 10 c0 00 	movl   $0x0,0xc0106014
c010a9ea:	00 00 00 
c010a9ed:	eb 24                	jmp    c010aa13 <remove_ready+0x41>
c010a9ef:	8b 45 08             	mov    0x8(%ebp),%eax
c010a9f2:	8b 40 18             	mov    0x18(%eax),%eax
c010a9f5:	89 45 fc             	mov    %eax,-0x4(%ebp)
c010a9f8:	8b 45 08             	mov    0x8(%ebp),%eax
c010a9fb:	8b 40 14             	mov    0x14(%eax),%eax
c010a9fe:	89 45 f8             	mov    %eax,-0x8(%ebp)
c010aa01:	8b 45 fc             	mov    -0x4(%ebp),%eax
c010aa04:	8b 55 f8             	mov    -0x8(%ebp),%edx
c010aa07:	89 50 14             	mov    %edx,0x14(%eax)
c010aa0a:	8b 45 f8             	mov    -0x8(%ebp),%eax
c010aa0d:	8b 55 fc             	mov    -0x4(%ebp),%edx
c010aa10:	89 50 18             	mov    %edx,0x18(%eax)
c010aa13:	90                   	nop
c010aa14:	c9                   	leave  
c010aa15:	c3                   	ret    

c010aa16 <pop_ready>:
c010aa16:	55                   	push   %ebp
c010aa17:	89 e5                	mov    %esp,%ebp
c010aa19:	83 ec 10             	sub    $0x10,%esp
c010aa1c:	a1 14 60 10 c0       	mov    0xc0106014,%eax
c010aa21:	85 c0                	test   %eax,%eax
c010aa23:	75 07                	jne    c010aa2c <pop_ready+0x16>
c010aa25:	b8 00 00 00 00       	mov    $0x0,%eax
c010aa2a:	eb 63                	jmp    c010aa8f <pop_ready+0x79>
c010aa2c:	a1 14 60 10 c0       	mov    0xc0106014,%eax
c010aa31:	8b 50 14             	mov    0x14(%eax),%edx
c010aa34:	a1 14 60 10 c0       	mov    0xc0106014,%eax
c010aa39:	39 c2                	cmp    %eax,%edx
c010aa3b:	75 17                	jne    c010aa54 <pop_ready+0x3e>
c010aa3d:	a1 14 60 10 c0       	mov    0xc0106014,%eax
c010aa42:	89 45 f0             	mov    %eax,-0x10(%ebp)
c010aa45:	c7 05 14 60 10 c0 00 	movl   $0x0,0xc0106014
c010aa4c:	00 00 00 
c010aa4f:	8b 45 f0             	mov    -0x10(%ebp),%eax
c010aa52:	eb 3b                	jmp    c010aa8f <pop_ready+0x79>
c010aa54:	a1 14 60 10 c0       	mov    0xc0106014,%eax
c010aa59:	8b 40 18             	mov    0x18(%eax),%eax
c010aa5c:	89 45 fc             	mov    %eax,-0x4(%ebp)
c010aa5f:	a1 14 60 10 c0       	mov    0xc0106014,%eax
c010aa64:	89 45 f8             	mov    %eax,-0x8(%ebp)
c010aa67:	a1 14 60 10 c0       	mov    0xc0106014,%eax
c010aa6c:	8b 40 14             	mov    0x14(%eax),%eax
c010aa6f:	89 45 f4             	mov    %eax,-0xc(%ebp)
c010aa72:	8b 45 fc             	mov    -0x4(%ebp),%eax
c010aa75:	8b 55 f4             	mov    -0xc(%ebp),%edx
c010aa78:	89 50 14             	mov    %edx,0x14(%eax)
c010aa7b:	8b 45 f4             	mov    -0xc(%ebp),%eax
c010aa7e:	8b 55 fc             	mov    -0x4(%ebp),%edx
c010aa81:	89 50 18             	mov    %edx,0x18(%eax)
c010aa84:	8b 45 f4             	mov    -0xc(%ebp),%eax
c010aa87:	a3 14 60 10 c0       	mov    %eax,0xc0106014
c010aa8c:	8b 45 f8             	mov    -0x8(%ebp),%eax
c010aa8f:	c9                   	leave  
c010aa90:	c3                   	ret    

c010aa91 <next_ready>:
c010aa91:	55                   	push   %ebp
c010aa92:	89 e5                	mov    %esp,%ebp
c010aa94:	a1 14 60 10 c0       	mov    0xc0106014,%eax
c010aa99:	5d                   	pop    %ebp
c010aa9a:	c3                   	ret    

c010aa9b <sthread_create>:
c010aa9b:	55                   	push   %ebp
c010aa9c:	89 e5                	mov    %esp,%ebp
c010aa9e:	83 ec 18             	sub    $0x18,%esp
c010aaa1:	83 ec 0c             	sub    $0xc,%esp
c010aaa4:	6a 00                	push   $0x0
c010aaa6:	e8 da 63 00 00       	call   c0110e85 <set_interrupt_flag>
c010aaab:	83 c4 10             	add    $0x10,%esp
c010aaae:	88 45 f7             	mov    %al,-0x9(%ebp)
c010aab1:	a1 0c 60 10 c0       	mov    0xc010600c,%eax
c010aab6:	83 ec 0c             	sub    $0xc,%esp
c010aab9:	50                   	push   %eax
c010aaba:	e8 4a 18 00 00       	call   c010c309 <ksl_acquire>
c010aabf:	83 c4 10             	add    $0x10,%esp
c010aac2:	8b 45 08             	mov    0x8(%ebp),%eax
c010aac5:	c7 40 10 03 00 00 00 	movl   $0x3,0x10(%eax)
c010aacc:	83 ec 0c             	sub    $0xc,%esp
c010aacf:	ff 75 08             	pushl  0x8(%ebp)
c010aad2:	e8 99 fe ff ff       	call   c010a970 <add_ready>
c010aad7:	83 c4 10             	add    $0x10,%esp
c010aada:	a1 0c 60 10 c0       	mov    0xc010600c,%eax
c010aadf:	83 ec 0c             	sub    $0xc,%esp
c010aae2:	50                   	push   %eax
c010aae3:	e8 42 18 00 00       	call   c010c32a <ksl_release>
c010aae8:	83 c4 10             	add    $0x10,%esp
c010aaeb:	0f b6 45 f7          	movzbl -0x9(%ebp),%eax
c010aaef:	83 ec 0c             	sub    $0xc,%esp
c010aaf2:	50                   	push   %eax
c010aaf3:	e8 8d 63 00 00       	call   c0110e85 <set_interrupt_flag>
c010aaf8:	83 c4 10             	add    $0x10,%esp
c010aafb:	90                   	nop
c010aafc:	c9                   	leave  
c010aafd:	c3                   	ret    

c010aafe <new_thread_stub>:
c010aafe:	55                   	push   %ebp
c010aaff:	89 e5                	mov    %esp,%ebp
c010ab01:	83 ec 08             	sub    $0x8,%esp
c010ab04:	a1 0c 60 10 c0       	mov    0xc010600c,%eax
c010ab09:	83 ec 0c             	sub    $0xc,%esp
c010ab0c:	50                   	push   %eax
c010ab0d:	e8 18 18 00 00       	call   c010c32a <ksl_release>
c010ab12:	83 c4 10             	add    $0x10,%esp
c010ab15:	83 ec 0c             	sub    $0xc,%esp
c010ab18:	6a 01                	push   $0x1
c010ab1a:	e8 66 63 00 00       	call   c0110e85 <set_interrupt_flag>
c010ab1f:	83 c4 10             	add    $0x10,%esp
c010ab22:	83 ec 0c             	sub    $0xc,%esp
c010ab25:	6a 00                	push   $0x0
c010ab27:	e8 b6 e5 ff ff       	call   c01090e2 <pic_eoi>
c010ab2c:	83 c4 10             	add    $0x10,%esp
c010ab2f:	83 ec 0c             	sub    $0xc,%esp
c010ab32:	ff 75 0c             	pushl  0xc(%ebp)
c010ab35:	8b 45 08             	mov    0x8(%ebp),%eax
c010ab38:	ff d0                	call   *%eax
c010ab3a:	83 c4 10             	add    $0x10,%esp
c010ab3d:	83 ec 0c             	sub    $0xc,%esp
c010ab40:	6a 00                	push   $0x0
c010ab42:	e8 aa 07 00 00       	call   c010b2f1 <kthread_exit>
c010ab47:	83 c4 10             	add    $0x10,%esp
c010ab4a:	90                   	nop
c010ab4b:	c9                   	leave  
c010ab4c:	c3                   	ret    

c010ab4d <forked_thread_stub>:
c010ab4d:	55                   	push   %ebp
c010ab4e:	89 e5                	mov    %esp,%ebp
c010ab50:	83 ec 08             	sub    $0x8,%esp
c010ab53:	a1 0c 60 10 c0       	mov    0xc010600c,%eax
c010ab58:	83 ec 0c             	sub    $0xc,%esp
c010ab5b:	50                   	push   %eax
c010ab5c:	e8 c9 17 00 00       	call   c010c32a <ksl_release>
c010ab61:	83 c4 10             	add    $0x10,%esp
c010ab64:	83 ec 0c             	sub    $0xc,%esp
c010ab67:	6a 01                	push   $0x1
c010ab69:	e8 17 63 00 00       	call   c0110e85 <set_interrupt_flag>
c010ab6e:	83 c4 10             	add    $0x10,%esp
c010ab71:	83 ec 0c             	sub    $0xc,%esp
c010ab74:	6a 00                	push   $0x0
c010ab76:	e8 67 e5 ff ff       	call   c01090e2 <pic_eoi>
c010ab7b:	83 c4 10             	add    $0x10,%esp
c010ab7e:	90                   	nop
c010ab7f:	c9                   	leave  
c010ab80:	c3                   	ret    

c010ab81 <thread_switch>:
c010ab81:	55                   	push   %ebp
c010ab82:	89 e5                	mov    %esp,%ebp
c010ab84:	83 ec 18             	sub    $0x18,%esp
c010ab87:	8b 45 0c             	mov    0xc(%ebp),%eax
c010ab8a:	8b 40 08             	mov    0x8(%eax),%eax
c010ab8d:	05 00 20 00 00       	add    $0x2000,%eax
c010ab92:	83 ec 0c             	sub    $0xc,%esp
c010ab95:	50                   	push   %eax
c010ab96:	e8 85 d7 ff ff       	call   c0108320 <set_tss_esp>
c010ab9b:	83 c4 10             	add    $0x10,%esp
c010ab9e:	8b 45 0c             	mov    0xc(%ebp),%eax
c010aba1:	8b 40 24             	mov    0x24(%eax),%eax
c010aba4:	8b 40 30             	mov    0x30(%eax),%eax
c010aba7:	83 ec 0c             	sub    $0xc,%esp
c010abaa:	50                   	push   %eax
c010abab:	e8 eb f6 ff ff       	call   c010a29b <physical_address>
c010abb0:	83 c4 10             	add    $0x10,%esp
c010abb3:	89 45 f4             	mov    %eax,-0xc(%ebp)
c010abb6:	ff 75 f4             	pushl  -0xc(%ebp)
c010abb9:	6a 0c                	push   $0xc
c010abbb:	ff 75 0c             	pushl  0xc(%ebp)
c010abbe:	ff 75 08             	pushl  0x8(%ebp)
c010abc1:	e8 1c 04 00 00       	call   c010afe2 <thread_switch_asm>
c010abc6:	83 c4 10             	add    $0x10,%esp
c010abc9:	90                   	nop
c010abca:	c9                   	leave  
c010abcb:	c3                   	ret    

c010abcc <sched_switch>:
c010abcc:	55                   	push   %ebp
c010abcd:	89 e5                	mov    %esp,%ebp
c010abcf:	83 ec 18             	sub    $0x18,%esp
c010abd2:	83 ec 0c             	sub    $0xc,%esp
c010abd5:	6a 00                	push   $0x0
c010abd7:	e8 a9 62 00 00       	call   c0110e85 <set_interrupt_flag>
c010abdc:	83 c4 10             	add    $0x10,%esp
c010abdf:	88 45 f7             	mov    %al,-0x9(%ebp)
c010abe2:	a1 0c 60 10 c0       	mov    0xc010600c,%eax
c010abe7:	83 ec 0c             	sub    $0xc,%esp
c010abea:	50                   	push   %eax
c010abeb:	e8 19 17 00 00       	call   c010c309 <ksl_acquire>
c010abf0:	83 c4 10             	add    $0x10,%esp
c010abf3:	a1 10 60 10 c0       	mov    0xc0106010,%eax
c010abf8:	89 45 f0             	mov    %eax,-0x10(%ebp)
c010abfb:	e8 16 fe ff ff       	call   c010aa16 <pop_ready>
c010ac00:	89 45 ec             	mov    %eax,-0x14(%ebp)
c010ac03:	83 7d ec 00          	cmpl   $0x0,-0x14(%ebp)
c010ac07:	75 23                	jne    c010ac2c <sched_switch+0x60>
c010ac09:	a1 0c 60 10 c0       	mov    0xc010600c,%eax
c010ac0e:	83 ec 0c             	sub    $0xc,%esp
c010ac11:	50                   	push   %eax
c010ac12:	e8 13 17 00 00       	call   c010c32a <ksl_release>
c010ac17:	83 c4 10             	add    $0x10,%esp
c010ac1a:	0f b6 45 f7          	movzbl -0x9(%ebp),%eax
c010ac1e:	83 ec 0c             	sub    $0xc,%esp
c010ac21:	50                   	push   %eax
c010ac22:	e8 5e 62 00 00       	call   c0110e85 <set_interrupt_flag>
c010ac27:	83 c4 10             	add    $0x10,%esp
c010ac2a:	eb 5c                	jmp    c010ac88 <sched_switch+0xbc>
c010ac2c:	8b 45 f0             	mov    -0x10(%ebp),%eax
c010ac2f:	c7 40 10 03 00 00 00 	movl   $0x3,0x10(%eax)
c010ac36:	83 ec 0c             	sub    $0xc,%esp
c010ac39:	ff 75 f0             	pushl  -0x10(%ebp)
c010ac3c:	e8 2f fd ff ff       	call   c010a970 <add_ready>
c010ac41:	83 c4 10             	add    $0x10,%esp
c010ac44:	8b 45 ec             	mov    -0x14(%ebp),%eax
c010ac47:	c7 40 10 02 00 00 00 	movl   $0x2,0x10(%eax)
c010ac4e:	8b 45 ec             	mov    -0x14(%ebp),%eax
c010ac51:	a3 10 60 10 c0       	mov    %eax,0xc0106010
c010ac56:	83 ec 08             	sub    $0x8,%esp
c010ac59:	ff 75 ec             	pushl  -0x14(%ebp)
c010ac5c:	ff 75 f0             	pushl  -0x10(%ebp)
c010ac5f:	e8 1d ff ff ff       	call   c010ab81 <thread_switch>
c010ac64:	83 c4 10             	add    $0x10,%esp
c010ac67:	a1 0c 60 10 c0       	mov    0xc010600c,%eax
c010ac6c:	83 ec 0c             	sub    $0xc,%esp
c010ac6f:	50                   	push   %eax
c010ac70:	e8 b5 16 00 00       	call   c010c32a <ksl_release>
c010ac75:	83 c4 10             	add    $0x10,%esp
c010ac78:	0f b6 45 f7          	movzbl -0x9(%ebp),%eax
c010ac7c:	83 ec 0c             	sub    $0xc,%esp
c010ac7f:	50                   	push   %eax
c010ac80:	e8 00 62 00 00       	call   c0110e85 <set_interrupt_flag>
c010ac85:	83 c4 10             	add    $0x10,%esp
c010ac88:	c9                   	leave  
c010ac89:	c3                   	ret    

c010ac8a <timer_tick>:
c010ac8a:	55                   	push   %ebp
c010ac8b:	89 e5                	mov    %esp,%ebp
c010ac8d:	83 ec 08             	sub    $0x8,%esp
c010ac90:	e8 37 ff ff ff       	call   c010abcc <sched_switch>
c010ac95:	90                   	nop
c010ac96:	c9                   	leave  
c010ac97:	c3                   	ret    

c010ac98 <sched_wake_up>:
c010ac98:	55                   	push   %ebp
c010ac99:	89 e5                	mov    %esp,%ebp
c010ac9b:	83 ec 18             	sub    $0x18,%esp
c010ac9e:	83 ec 0c             	sub    $0xc,%esp
c010aca1:	6a 00                	push   $0x0
c010aca3:	e8 dd 61 00 00       	call   c0110e85 <set_interrupt_flag>
c010aca8:	83 c4 10             	add    $0x10,%esp
c010acab:	88 45 f7             	mov    %al,-0x9(%ebp)
c010acae:	a1 0c 60 10 c0       	mov    0xc010600c,%eax
c010acb3:	83 ec 0c             	sub    $0xc,%esp
c010acb6:	50                   	push   %eax
c010acb7:	e8 4d 16 00 00       	call   c010c309 <ksl_acquire>
c010acbc:	83 c4 10             	add    $0x10,%esp
c010acbf:	8b 45 08             	mov    0x8(%ebp),%eax
c010acc2:	8b 40 10             	mov    0x10(%eax),%eax
c010acc5:	83 f8 04             	cmp    $0x4,%eax
c010acc8:	74 12                	je     c010acdc <sched_wake_up+0x44>
c010acca:	83 ec 0c             	sub    $0xc,%esp
c010accd:	68 90 32 11 c0       	push   $0xc0113290
c010acd2:	e8 ea dc ff ff       	call   c01089c1 <vga_print>
c010acd7:	83 c4 10             	add    $0x10,%esp
c010acda:	eb fe                	jmp    c010acda <sched_wake_up+0x42>
c010acdc:	8b 45 08             	mov    0x8(%ebp),%eax
c010acdf:	c7 40 10 03 00 00 00 	movl   $0x3,0x10(%eax)
c010ace6:	83 ec 0c             	sub    $0xc,%esp
c010ace9:	ff 75 08             	pushl  0x8(%ebp)
c010acec:	e8 7f fc ff ff       	call   c010a970 <add_ready>
c010acf1:	83 c4 10             	add    $0x10,%esp
c010acf4:	a1 0c 60 10 c0       	mov    0xc010600c,%eax
c010acf9:	83 ec 0c             	sub    $0xc,%esp
c010acfc:	50                   	push   %eax
c010acfd:	e8 28 16 00 00       	call   c010c32a <ksl_release>
c010ad02:	83 c4 10             	add    $0x10,%esp
c010ad05:	0f b6 45 f7          	movzbl -0x9(%ebp),%eax
c010ad09:	83 ec 0c             	sub    $0xc,%esp
c010ad0c:	50                   	push   %eax
c010ad0d:	e8 73 61 00 00       	call   c0110e85 <set_interrupt_flag>
c010ad12:	83 c4 10             	add    $0x10,%esp
c010ad15:	90                   	nop
c010ad16:	c9                   	leave  
c010ad17:	c3                   	ret    

c010ad18 <sched_finish_thread_and_release>:
c010ad18:	55                   	push   %ebp
c010ad19:	89 e5                	mov    %esp,%ebp
c010ad1b:	83 ec 18             	sub    $0x18,%esp
c010ad1e:	83 ec 0c             	sub    $0xc,%esp
c010ad21:	6a 00                	push   $0x0
c010ad23:	e8 5d 61 00 00       	call   c0110e85 <set_interrupt_flag>
c010ad28:	83 c4 10             	add    $0x10,%esp
c010ad2b:	88 45 f7             	mov    %al,-0x9(%ebp)
c010ad2e:	a1 0c 60 10 c0       	mov    0xc010600c,%eax
c010ad33:	83 ec 0c             	sub    $0xc,%esp
c010ad36:	50                   	push   %eax
c010ad37:	e8 cd 15 00 00       	call   c010c309 <ksl_acquire>
c010ad3c:	83 c4 10             	add    $0x10,%esp
c010ad3f:	83 ec 0c             	sub    $0xc,%esp
c010ad42:	ff 75 08             	pushl  0x8(%ebp)
c010ad45:	e8 37 17 00 00       	call   c010c481 <kql_release>
c010ad4a:	83 c4 10             	add    $0x10,%esp
c010ad4d:	a1 10 60 10 c0       	mov    0xc0106010,%eax
c010ad52:	89 45 f0             	mov    %eax,-0x10(%ebp)
c010ad55:	e8 bc fc ff ff       	call   c010aa16 <pop_ready>
c010ad5a:	89 45 ec             	mov    %eax,-0x14(%ebp)
c010ad5d:	83 7d ec 00          	cmpl   $0x0,-0x14(%ebp)
c010ad61:	75 12                	jne    c010ad75 <sched_finish_thread_and_release+0x5d>
c010ad63:	83 ec 0c             	sub    $0xc,%esp
c010ad66:	68 bc 32 11 c0       	push   $0xc01132bc
c010ad6b:	e8 51 dc ff ff       	call   c01089c1 <vga_print>
c010ad70:	83 c4 10             	add    $0x10,%esp
c010ad73:	eb fe                	jmp    c010ad73 <sched_finish_thread_and_release+0x5b>
c010ad75:	8b 45 f0             	mov    -0x10(%ebp),%eax
c010ad78:	c7 40 10 05 00 00 00 	movl   $0x5,0x10(%eax)
c010ad7f:	8b 45 ec             	mov    -0x14(%ebp),%eax
c010ad82:	c7 40 10 02 00 00 00 	movl   $0x2,0x10(%eax)
c010ad89:	8b 45 ec             	mov    -0x14(%ebp),%eax
c010ad8c:	a3 10 60 10 c0       	mov    %eax,0xc0106010
c010ad91:	83 ec 08             	sub    $0x8,%esp
c010ad94:	ff 75 ec             	pushl  -0x14(%ebp)
c010ad97:	ff 75 f0             	pushl  -0x10(%ebp)
c010ad9a:	e8 e2 fd ff ff       	call   c010ab81 <thread_switch>
c010ad9f:	83 c4 10             	add    $0x10,%esp
c010ada2:	a1 0c 60 10 c0       	mov    0xc010600c,%eax
c010ada7:	83 ec 0c             	sub    $0xc,%esp
c010adaa:	50                   	push   %eax
c010adab:	e8 7a 15 00 00       	call   c010c32a <ksl_release>
c010adb0:	83 c4 10             	add    $0x10,%esp
c010adb3:	0f b6 45 f7          	movzbl -0x9(%ebp),%eax
c010adb7:	83 ec 0c             	sub    $0xc,%esp
c010adba:	50                   	push   %eax
c010adbb:	e8 c5 60 00 00       	call   c0110e85 <set_interrupt_flag>
c010adc0:	83 c4 10             	add    $0x10,%esp
c010adc3:	90                   	nop
c010adc4:	c9                   	leave  
c010adc5:	c3                   	ret    

c010adc6 <sched_finish_proc_and_release>:
c010adc6:	55                   	push   %ebp
c010adc7:	89 e5                	mov    %esp,%ebp
c010adc9:	83 ec 18             	sub    $0x18,%esp
c010adcc:	83 ec 0c             	sub    $0xc,%esp
c010adcf:	6a 00                	push   $0x0
c010add1:	e8 af 60 00 00       	call   c0110e85 <set_interrupt_flag>
c010add6:	83 c4 10             	add    $0x10,%esp
c010add9:	88 45 f7             	mov    %al,-0x9(%ebp)
c010addc:	a1 0c 60 10 c0       	mov    0xc010600c,%eax
c010ade1:	83 ec 0c             	sub    $0xc,%esp
c010ade4:	50                   	push   %eax
c010ade5:	e8 1f 15 00 00       	call   c010c309 <ksl_acquire>
c010adea:	83 c4 10             	add    $0x10,%esp
c010aded:	83 ec 0c             	sub    $0xc,%esp
c010adf0:	ff 75 08             	pushl  0x8(%ebp)
c010adf3:	e8 89 16 00 00       	call   c010c481 <kql_release>
c010adf8:	83 c4 10             	add    $0x10,%esp
c010adfb:	a1 10 60 10 c0       	mov    0xc0106010,%eax
c010ae00:	89 45 f0             	mov    %eax,-0x10(%ebp)
c010ae03:	e8 5b fb ff ff       	call   c010a963 <curr_process>
c010ae08:	89 45 ec             	mov    %eax,-0x14(%ebp)
c010ae0b:	8b 45 ec             	mov    -0x14(%ebp),%eax
c010ae0e:	c7 40 14 02 00 00 00 	movl   $0x2,0x14(%eax)
c010ae15:	8b 45 f0             	mov    -0x10(%ebp),%eax
c010ae18:	c7 40 10 05 00 00 00 	movl   $0x5,0x10(%eax)
c010ae1f:	e8 f2 fb ff ff       	call   c010aa16 <pop_ready>
c010ae24:	89 45 e8             	mov    %eax,-0x18(%ebp)
c010ae27:	83 7d e8 00          	cmpl   $0x0,-0x18(%ebp)
c010ae2b:	75 12                	jne    c010ae3f <sched_finish_proc_and_release+0x79>
c010ae2d:	83 ec 0c             	sub    $0xc,%esp
c010ae30:	68 bc 32 11 c0       	push   $0xc01132bc
c010ae35:	e8 87 db ff ff       	call   c01089c1 <vga_print>
c010ae3a:	83 c4 10             	add    $0x10,%esp
c010ae3d:	eb fe                	jmp    c010ae3d <sched_finish_proc_and_release+0x77>
c010ae3f:	8b 45 e8             	mov    -0x18(%ebp),%eax
c010ae42:	c7 40 10 02 00 00 00 	movl   $0x2,0x10(%eax)
c010ae49:	8b 45 e8             	mov    -0x18(%ebp),%eax
c010ae4c:	a3 10 60 10 c0       	mov    %eax,0xc0106010
c010ae51:	83 ec 08             	sub    $0x8,%esp
c010ae54:	ff 75 e8             	pushl  -0x18(%ebp)
c010ae57:	ff 75 f0             	pushl  -0x10(%ebp)
c010ae5a:	e8 22 fd ff ff       	call   c010ab81 <thread_switch>
c010ae5f:	83 c4 10             	add    $0x10,%esp
c010ae62:	a1 0c 60 10 c0       	mov    0xc010600c,%eax
c010ae67:	83 ec 0c             	sub    $0xc,%esp
c010ae6a:	50                   	push   %eax
c010ae6b:	e8 ba 14 00 00       	call   c010c32a <ksl_release>
c010ae70:	83 c4 10             	add    $0x10,%esp
c010ae73:	0f b6 45 f7          	movzbl -0x9(%ebp),%eax
c010ae77:	83 ec 0c             	sub    $0xc,%esp
c010ae7a:	50                   	push   %eax
c010ae7b:	e8 05 60 00 00       	call   c0110e85 <set_interrupt_flag>
c010ae80:	83 c4 10             	add    $0x10,%esp
c010ae83:	90                   	nop
c010ae84:	c9                   	leave  
c010ae85:	c3                   	ret    

c010ae86 <sched_suspend_and_release_spinlock>:
c010ae86:	55                   	push   %ebp
c010ae87:	89 e5                	mov    %esp,%ebp
c010ae89:	83 ec 18             	sub    $0x18,%esp
c010ae8c:	83 ec 0c             	sub    $0xc,%esp
c010ae8f:	6a 00                	push   $0x0
c010ae91:	e8 ef 5f 00 00       	call   c0110e85 <set_interrupt_flag>
c010ae96:	83 c4 10             	add    $0x10,%esp
c010ae99:	88 45 f7             	mov    %al,-0x9(%ebp)
c010ae9c:	a1 0c 60 10 c0       	mov    0xc010600c,%eax
c010aea1:	83 ec 0c             	sub    $0xc,%esp
c010aea4:	50                   	push   %eax
c010aea5:	e8 5f 14 00 00       	call   c010c309 <ksl_acquire>
c010aeaa:	83 c4 10             	add    $0x10,%esp
c010aead:	83 ec 0c             	sub    $0xc,%esp
c010aeb0:	ff 75 08             	pushl  0x8(%ebp)
c010aeb3:	e8 72 14 00 00       	call   c010c32a <ksl_release>
c010aeb8:	83 c4 10             	add    $0x10,%esp
c010aebb:	a1 10 60 10 c0       	mov    0xc0106010,%eax
c010aec0:	89 45 f0             	mov    %eax,-0x10(%ebp)
c010aec3:	e8 4e fb ff ff       	call   c010aa16 <pop_ready>
c010aec8:	89 45 ec             	mov    %eax,-0x14(%ebp)
c010aecb:	83 7d ec 00          	cmpl   $0x0,-0x14(%ebp)
c010aecf:	75 12                	jne    c010aee3 <sched_suspend_and_release_spinlock+0x5d>
c010aed1:	83 ec 0c             	sub    $0xc,%esp
c010aed4:	68 fc 32 11 c0       	push   $0xc01132fc
c010aed9:	e8 e3 da ff ff       	call   c01089c1 <vga_print>
c010aede:	83 c4 10             	add    $0x10,%esp
c010aee1:	eb fe                	jmp    c010aee1 <sched_suspend_and_release_spinlock+0x5b>
c010aee3:	8b 45 f0             	mov    -0x10(%ebp),%eax
c010aee6:	c7 40 10 04 00 00 00 	movl   $0x4,0x10(%eax)
c010aeed:	8b 45 ec             	mov    -0x14(%ebp),%eax
c010aef0:	c7 40 10 02 00 00 00 	movl   $0x2,0x10(%eax)
c010aef7:	8b 45 ec             	mov    -0x14(%ebp),%eax
c010aefa:	a3 10 60 10 c0       	mov    %eax,0xc0106010
c010aeff:	83 ec 08             	sub    $0x8,%esp
c010af02:	ff 75 ec             	pushl  -0x14(%ebp)
c010af05:	ff 75 f0             	pushl  -0x10(%ebp)
c010af08:	e8 74 fc ff ff       	call   c010ab81 <thread_switch>
c010af0d:	83 c4 10             	add    $0x10,%esp
c010af10:	a1 0c 60 10 c0       	mov    0xc010600c,%eax
c010af15:	83 ec 0c             	sub    $0xc,%esp
c010af18:	50                   	push   %eax
c010af19:	e8 0c 14 00 00       	call   c010c32a <ksl_release>
c010af1e:	83 c4 10             	add    $0x10,%esp
c010af21:	0f b6 45 f7          	movzbl -0x9(%ebp),%eax
c010af25:	83 ec 0c             	sub    $0xc,%esp
c010af28:	50                   	push   %eax
c010af29:	e8 57 5f 00 00       	call   c0110e85 <set_interrupt_flag>
c010af2e:	83 c4 10             	add    $0x10,%esp
c010af31:	90                   	nop
c010af32:	c9                   	leave  
c010af33:	c3                   	ret    

c010af34 <sched_suspend_and_release_queuelock>:
c010af34:	55                   	push   %ebp
c010af35:	89 e5                	mov    %esp,%ebp
c010af37:	83 ec 18             	sub    $0x18,%esp
c010af3a:	83 ec 0c             	sub    $0xc,%esp
c010af3d:	6a 00                	push   $0x0
c010af3f:	e8 41 5f 00 00       	call   c0110e85 <set_interrupt_flag>
c010af44:	83 c4 10             	add    $0x10,%esp
c010af47:	88 45 f7             	mov    %al,-0x9(%ebp)
c010af4a:	a1 0c 60 10 c0       	mov    0xc010600c,%eax
c010af4f:	83 ec 0c             	sub    $0xc,%esp
c010af52:	50                   	push   %eax
c010af53:	e8 b1 13 00 00       	call   c010c309 <ksl_acquire>
c010af58:	83 c4 10             	add    $0x10,%esp
c010af5b:	83 ec 0c             	sub    $0xc,%esp
c010af5e:	ff 75 08             	pushl  0x8(%ebp)
c010af61:	e8 1b 15 00 00       	call   c010c481 <kql_release>
c010af66:	83 c4 10             	add    $0x10,%esp
c010af69:	a1 10 60 10 c0       	mov    0xc0106010,%eax
c010af6e:	89 45 f0             	mov    %eax,-0x10(%ebp)
c010af71:	e8 a0 fa ff ff       	call   c010aa16 <pop_ready>
c010af76:	89 45 ec             	mov    %eax,-0x14(%ebp)
c010af79:	83 7d ec 00          	cmpl   $0x0,-0x14(%ebp)
c010af7d:	75 12                	jne    c010af91 <sched_suspend_and_release_queuelock+0x5d>
c010af7f:	83 ec 0c             	sub    $0xc,%esp
c010af82:	68 40 33 11 c0       	push   $0xc0113340
c010af87:	e8 35 da ff ff       	call   c01089c1 <vga_print>
c010af8c:	83 c4 10             	add    $0x10,%esp
c010af8f:	eb fe                	jmp    c010af8f <sched_suspend_and_release_queuelock+0x5b>
c010af91:	8b 45 f0             	mov    -0x10(%ebp),%eax
c010af94:	c7 40 10 04 00 00 00 	movl   $0x4,0x10(%eax)
c010af9b:	8b 45 ec             	mov    -0x14(%ebp),%eax
c010af9e:	c7 40 10 02 00 00 00 	movl   $0x2,0x10(%eax)
c010afa5:	8b 45 ec             	mov    -0x14(%ebp),%eax
c010afa8:	a3 10 60 10 c0       	mov    %eax,0xc0106010
c010afad:	83 ec 08             	sub    $0x8,%esp
c010afb0:	ff 75 ec             	pushl  -0x14(%ebp)
c010afb3:	ff 75 f0             	pushl  -0x10(%ebp)
c010afb6:	e8 c6 fb ff ff       	call   c010ab81 <thread_switch>
c010afbb:	83 c4 10             	add    $0x10,%esp
c010afbe:	a1 0c 60 10 c0       	mov    0xc010600c,%eax
c010afc3:	83 ec 0c             	sub    $0xc,%esp
c010afc6:	50                   	push   %eax
c010afc7:	e8 5e 13 00 00       	call   c010c32a <ksl_release>
c010afcc:	83 c4 10             	add    $0x10,%esp
c010afcf:	0f b6 45 f7          	movzbl -0x9(%ebp),%eax
c010afd3:	83 ec 0c             	sub    $0xc,%esp
c010afd6:	50                   	push   %eax
c010afd7:	e8 a9 5e 00 00       	call   c0110e85 <set_interrupt_flag>
c010afdc:	83 c4 10             	add    $0x10,%esp
c010afdf:	90                   	nop
c010afe0:	c9                   	leave  
c010afe1:	c3                   	ret    

c010afe2 <thread_switch_asm>:
c010afe2:	55                   	push   %ebp
c010afe3:	89 e5                	mov    %esp,%ebp
c010afe5:	53                   	push   %ebx
c010afe6:	8b 75 08             	mov    0x8(%ebp),%esi
c010afe9:	8b 7d 0c             	mov    0xc(%ebp),%edi
c010afec:	8b 4d 10             	mov    0x10(%ebp),%ecx
c010afef:	8b 5d 14             	mov    0x14(%ebp),%ebx
c010aff2:	89 24 0e             	mov    %esp,(%esi,%ecx,1)
c010aff5:	8b 24 0f             	mov    (%edi,%ecx,1),%esp
c010aff8:	0f 22 db             	mov    %ebx,%cr3
c010affb:	5b                   	pop    %ebx
c010affc:	5d                   	pop    %ebp
c010affd:	c3                   	ret    

c010affe <register_thread>:
c010affe:	55                   	push   %ebp
c010afff:	89 e5                	mov    %esp,%ebp
c010b001:	83 ec 18             	sub    $0x18,%esp
c010b004:	a1 18 60 10 c0       	mov    0xc0106018,%eax
c010b009:	83 ec 0c             	sub    $0xc,%esp
c010b00c:	50                   	push   %eax
c010b00d:	e8 b9 13 00 00       	call   c010c3cb <kql_acquire>
c010b012:	83 c4 10             	add    $0x10,%esp
c010b015:	a1 20 60 10 c0       	mov    0xc0106020,%eax
c010b01a:	3d e7 03 00 00       	cmp    $0x3e7,%eax
c010b01f:	76 10                	jbe    c010b031 <register_thread+0x33>
c010b021:	83 ec 0c             	sub    $0xc,%esp
c010b024:	68 88 33 11 c0       	push   $0xc0113388
c010b029:	e8 75 71 00 00       	call   c01121a3 <panic>
c010b02e:	83 c4 10             	add    $0x10,%esp
c010b031:	a1 20 60 10 c0       	mov    0xc0106020,%eax
c010b036:	89 45 f4             	mov    %eax,-0xc(%ebp)
c010b039:	a1 20 60 10 c0       	mov    0xc0106020,%eax
c010b03e:	83 c0 01             	add    $0x1,%eax
c010b041:	a3 20 60 10 c0       	mov    %eax,0xc0106020
c010b046:	8b 45 08             	mov    0x8(%ebp),%eax
c010b049:	8b 55 f4             	mov    -0xc(%ebp),%edx
c010b04c:	89 10                	mov    %edx,(%eax)
c010b04e:	8b 15 1c 60 10 c0    	mov    0xc010601c,%edx
c010b054:	8b 45 f4             	mov    -0xc(%ebp),%eax
c010b057:	c1 e0 02             	shl    $0x2,%eax
c010b05a:	01 c2                	add    %eax,%edx
c010b05c:	8b 45 08             	mov    0x8(%ebp),%eax
c010b05f:	89 02                	mov    %eax,(%edx)
c010b061:	a1 18 60 10 c0       	mov    0xc0106018,%eax
c010b066:	83 ec 0c             	sub    $0xc,%esp
c010b069:	50                   	push   %eax
c010b06a:	e8 12 14 00 00       	call   c010c481 <kql_release>
c010b06f:	83 c4 10             	add    $0x10,%esp
c010b072:	8b 45 f4             	mov    -0xc(%ebp),%eax
c010b075:	c9                   	leave  
c010b076:	c3                   	ret    

c010b077 <get_thread>:
c010b077:	55                   	push   %ebp
c010b078:	89 e5                	mov    %esp,%ebp
c010b07a:	83 ec 18             	sub    $0x18,%esp
c010b07d:	a1 18 60 10 c0       	mov    0xc0106018,%eax
c010b082:	83 ec 0c             	sub    $0xc,%esp
c010b085:	50                   	push   %eax
c010b086:	e8 40 13 00 00       	call   c010c3cb <kql_acquire>
c010b08b:	83 c4 10             	add    $0x10,%esp
c010b08e:	8b 15 1c 60 10 c0    	mov    0xc010601c,%edx
c010b094:	8b 45 08             	mov    0x8(%ebp),%eax
c010b097:	c1 e0 02             	shl    $0x2,%eax
c010b09a:	01 d0                	add    %edx,%eax
c010b09c:	8b 00                	mov    (%eax),%eax
c010b09e:	89 45 f4             	mov    %eax,-0xc(%ebp)
c010b0a1:	a1 18 60 10 c0       	mov    0xc0106018,%eax
c010b0a6:	83 ec 0c             	sub    $0xc,%esp
c010b0a9:	50                   	push   %eax
c010b0aa:	e8 d2 13 00 00       	call   c010c481 <kql_release>
c010b0af:	83 c4 10             	add    $0x10,%esp
c010b0b2:	8b 45 f4             	mov    -0xc(%ebp),%eax
c010b0b5:	c9                   	leave  
c010b0b6:	c3                   	ret    

c010b0b7 <init_threads>:
c010b0b7:	55                   	push   %ebp
c010b0b8:	89 e5                	mov    %esp,%ebp
c010b0ba:	83 ec 18             	sub    $0x18,%esp
c010b0bd:	e8 78 12 00 00       	call   c010c33a <kql_create>
c010b0c2:	a3 18 60 10 c0       	mov    %eax,0xc0106018
c010b0c7:	83 ec 0c             	sub    $0xc,%esp
c010b0ca:	68 a0 0f 00 00       	push   $0xfa0
c010b0cf:	e8 1c f7 ff ff       	call   c010a7f0 <kmalloc>
c010b0d4:	83 c4 10             	add    $0x10,%esp
c010b0d7:	a3 1c 60 10 c0       	mov    %eax,0xc010601c
c010b0dc:	a1 1c 60 10 c0       	mov    0xc010601c,%eax
c010b0e1:	83 ec 04             	sub    $0x4,%esp
c010b0e4:	68 a0 0f 00 00       	push   $0xfa0
c010b0e9:	6a 00                	push   $0x0
c010b0eb:	50                   	push   %eax
c010b0ec:	e8 77 70 00 00       	call   c0112168 <memset>
c010b0f1:	83 c4 10             	add    $0x10,%esp
c010b0f4:	83 ec 0c             	sub    $0xc,%esp
c010b0f7:	6a 28                	push   $0x28
c010b0f9:	e8 f2 f6 ff ff       	call   c010a7f0 <kmalloc>
c010b0fe:	83 c4 10             	add    $0x10,%esp
c010b101:	89 45 f4             	mov    %eax,-0xc(%ebp)
c010b104:	8b 15 20 60 10 c0    	mov    0xc0106020,%edx
c010b10a:	8b 45 f4             	mov    -0xc(%ebp),%eax
c010b10d:	89 10                	mov    %edx,(%eax)
c010b10f:	a1 20 60 10 c0       	mov    0xc0106020,%eax
c010b114:	83 c0 01             	add    $0x1,%eax
c010b117:	a3 20 60 10 c0       	mov    %eax,0xc0106020
c010b11c:	e8 19 12 00 00       	call   c010c33a <kql_create>
c010b121:	8b 55 f4             	mov    -0xc(%ebp),%edx
c010b124:	89 42 04             	mov    %eax,0x4(%edx)
c010b127:	8b 45 f4             	mov    -0xc(%ebp),%eax
c010b12a:	8b 40 04             	mov    0x4(%eax),%eax
c010b12d:	83 ec 0c             	sub    $0xc,%esp
c010b130:	50                   	push   %eax
c010b131:	e8 fb 14 00 00       	call   c010c631 <kevent_create>
c010b136:	83 c4 10             	add    $0x10,%esp
c010b139:	8b 55 f4             	mov    -0xc(%ebp),%edx
c010b13c:	89 42 1c             	mov    %eax,0x1c(%edx)
c010b13f:	8b 45 f4             	mov    -0xc(%ebp),%eax
c010b142:	c7 40 08 00 00 10 c0 	movl   $0xc0100000,0x8(%eax)
c010b149:	83 ec 0c             	sub    $0xc,%esp
c010b14c:	ff 75 f4             	pushl  -0xc(%ebp)
c010b14f:	e8 d6 f7 ff ff       	call   c010a92a <sinit_threads>
c010b154:	83 c4 10             	add    $0x10,%esp
c010b157:	90                   	nop
c010b158:	c9                   	leave  
c010b159:	c3                   	ret    

c010b15a <kthread_create>:
c010b15a:	55                   	push   %ebp
c010b15b:	89 e5                	mov    %esp,%ebp
c010b15d:	83 ec 18             	sub    $0x18,%esp
c010b160:	a1 18 60 10 c0       	mov    0xc0106018,%eax
c010b165:	83 ec 0c             	sub    $0xc,%esp
c010b168:	50                   	push   %eax
c010b169:	e8 5d 12 00 00       	call   c010c3cb <kql_acquire>
c010b16e:	83 c4 10             	add    $0x10,%esp
c010b171:	83 ec 0c             	sub    $0xc,%esp
c010b174:	6a 28                	push   $0x28
c010b176:	e8 75 f6 ff ff       	call   c010a7f0 <kmalloc>
c010b17b:	83 c4 10             	add    $0x10,%esp
c010b17e:	89 45 f4             	mov    %eax,-0xc(%ebp)
c010b181:	e8 b4 11 00 00       	call   c010c33a <kql_create>
c010b186:	8b 55 f4             	mov    -0xc(%ebp),%edx
c010b189:	89 42 04             	mov    %eax,0x4(%edx)
c010b18c:	8b 45 f4             	mov    -0xc(%ebp),%eax
c010b18f:	8b 40 04             	mov    0x4(%eax),%eax
c010b192:	83 ec 0c             	sub    $0xc,%esp
c010b195:	50                   	push   %eax
c010b196:	e8 96 14 00 00       	call   c010c631 <kevent_create>
c010b19b:	83 c4 10             	add    $0x10,%esp
c010b19e:	8b 55 f4             	mov    -0xc(%ebp),%edx
c010b1a1:	89 42 1c             	mov    %eax,0x1c(%edx)
c010b1a4:	83 ec 0c             	sub    $0xc,%esp
c010b1a7:	68 00 20 00 00       	push   $0x2000
c010b1ac:	e8 3f f6 ff ff       	call   c010a7f0 <kmalloc>
c010b1b1:	83 c4 10             	add    $0x10,%esp
c010b1b4:	8b 55 f4             	mov    -0xc(%ebp),%edx
c010b1b7:	89 42 08             	mov    %eax,0x8(%edx)
c010b1ba:	8b 45 f4             	mov    -0xc(%ebp),%eax
c010b1bd:	8b 40 08             	mov    0x8(%eax),%eax
c010b1c0:	05 00 20 00 00       	add    $0x2000,%eax
c010b1c5:	89 c2                	mov    %eax,%edx
c010b1c7:	8b 45 f4             	mov    -0xc(%ebp),%eax
c010b1ca:	89 50 0c             	mov    %edx,0xc(%eax)
c010b1cd:	8b 45 f4             	mov    -0xc(%ebp),%eax
c010b1d0:	8b 40 0c             	mov    0xc(%eax),%eax
c010b1d3:	8d 50 f8             	lea    -0x8(%eax),%edx
c010b1d6:	8b 45 f4             	mov    -0xc(%ebp),%eax
c010b1d9:	89 50 0c             	mov    %edx,0xc(%eax)
c010b1dc:	8b 45 f4             	mov    -0xc(%ebp),%eax
c010b1df:	8b 40 0c             	mov    0xc(%eax),%eax
c010b1e2:	8d 50 fc             	lea    -0x4(%eax),%edx
c010b1e5:	8b 45 f4             	mov    -0xc(%ebp),%eax
c010b1e8:	89 50 0c             	mov    %edx,0xc(%eax)
c010b1eb:	8b 45 f4             	mov    -0xc(%ebp),%eax
c010b1ee:	8b 40 0c             	mov    0xc(%eax),%eax
c010b1f1:	8b 55 0c             	mov    0xc(%ebp),%edx
c010b1f4:	89 10                	mov    %edx,(%eax)
c010b1f6:	8b 45 f4             	mov    -0xc(%ebp),%eax
c010b1f9:	8b 40 0c             	mov    0xc(%eax),%eax
c010b1fc:	8d 50 fc             	lea    -0x4(%eax),%edx
c010b1ff:	8b 45 f4             	mov    -0xc(%ebp),%eax
c010b202:	89 50 0c             	mov    %edx,0xc(%eax)
c010b205:	8b 45 f4             	mov    -0xc(%ebp),%eax
c010b208:	8b 40 0c             	mov    0xc(%eax),%eax
c010b20b:	8b 55 08             	mov    0x8(%ebp),%edx
c010b20e:	89 10                	mov    %edx,(%eax)
c010b210:	8b 45 f4             	mov    -0xc(%ebp),%eax
c010b213:	8b 40 0c             	mov    0xc(%eax),%eax
c010b216:	8d 50 fc             	lea    -0x4(%eax),%edx
c010b219:	8b 45 f4             	mov    -0xc(%ebp),%eax
c010b21c:	89 50 0c             	mov    %edx,0xc(%eax)
c010b21f:	8b 45 f4             	mov    -0xc(%ebp),%eax
c010b222:	8b 40 0c             	mov    0xc(%eax),%eax
c010b225:	8d 50 fc             	lea    -0x4(%eax),%edx
c010b228:	8b 45 f4             	mov    -0xc(%ebp),%eax
c010b22b:	89 50 0c             	mov    %edx,0xc(%eax)
c010b22e:	8b 45 f4             	mov    -0xc(%ebp),%eax
c010b231:	8b 40 0c             	mov    0xc(%eax),%eax
c010b234:	ba fe aa 10 c0       	mov    $0xc010aafe,%edx
c010b239:	89 10                	mov    %edx,(%eax)
c010b23b:	8b 45 f4             	mov    -0xc(%ebp),%eax
c010b23e:	8b 40 0c             	mov    0xc(%eax),%eax
c010b241:	8d 50 fc             	lea    -0x4(%eax),%edx
c010b244:	8b 45 f4             	mov    -0xc(%ebp),%eax
c010b247:	89 50 0c             	mov    %edx,0xc(%eax)
c010b24a:	8b 45 f4             	mov    -0xc(%ebp),%eax
c010b24d:	8b 40 0c             	mov    0xc(%eax),%eax
c010b250:	8d 50 fc             	lea    -0x4(%eax),%edx
c010b253:	8b 45 f4             	mov    -0xc(%ebp),%eax
c010b256:	89 50 0c             	mov    %edx,0xc(%eax)
c010b259:	e8 fb f6 ff ff       	call   c010a959 <curr_thread>
c010b25e:	89 45 f0             	mov    %eax,-0x10(%ebp)
c010b261:	8b 45 f0             	mov    -0x10(%ebp),%eax
c010b264:	8b 50 24             	mov    0x24(%eax),%edx
c010b267:	8b 45 f4             	mov    -0xc(%ebp),%eax
c010b26a:	89 50 24             	mov    %edx,0x24(%eax)
c010b26d:	8b 45 f4             	mov    -0xc(%ebp),%eax
c010b270:	8b 40 24             	mov    0x24(%eax),%eax
c010b273:	8b 40 04             	mov    0x4(%eax),%eax
c010b276:	83 ec 0c             	sub    $0xc,%esp
c010b279:	50                   	push   %eax
c010b27a:	e8 4c 11 00 00       	call   c010c3cb <kql_acquire>
c010b27f:	83 c4 10             	add    $0x10,%esp
c010b282:	8b 45 f4             	mov    -0xc(%ebp),%eax
c010b285:	8b 40 24             	mov    0x24(%eax),%eax
c010b288:	8b 40 08             	mov    0x8(%eax),%eax
c010b28b:	83 ec 08             	sub    $0x8,%esp
c010b28e:	ff 75 f4             	pushl  -0xc(%ebp)
c010b291:	50                   	push   %eax
c010b292:	e8 c1 72 00 00       	call   c0112558 <list_add_back>
c010b297:	83 c4 10             	add    $0x10,%esp
c010b29a:	8b 45 f4             	mov    -0xc(%ebp),%eax
c010b29d:	8b 40 24             	mov    0x24(%eax),%eax
c010b2a0:	8b 40 04             	mov    0x4(%eax),%eax
c010b2a3:	83 ec 0c             	sub    $0xc,%esp
c010b2a6:	50                   	push   %eax
c010b2a7:	e8 d5 11 00 00       	call   c010c481 <kql_release>
c010b2ac:	83 c4 10             	add    $0x10,%esp
c010b2af:	83 ec 0c             	sub    $0xc,%esp
c010b2b2:	ff 75 f4             	pushl  -0xc(%ebp)
c010b2b5:	e8 44 fd ff ff       	call   c010affe <register_thread>
c010b2ba:	83 c4 10             	add    $0x10,%esp
c010b2bd:	83 ec 0c             	sub    $0xc,%esp
c010b2c0:	ff 75 f4             	pushl  -0xc(%ebp)
c010b2c3:	e8 d3 f7 ff ff       	call   c010aa9b <sthread_create>
c010b2c8:	83 c4 10             	add    $0x10,%esp
c010b2cb:	a1 18 60 10 c0       	mov    0xc0106018,%eax
c010b2d0:	83 ec 0c             	sub    $0xc,%esp
c010b2d3:	50                   	push   %eax
c010b2d4:	e8 a8 11 00 00       	call   c010c481 <kql_release>
c010b2d9:	83 c4 10             	add    $0x10,%esp
c010b2dc:	8b 45 f4             	mov    -0xc(%ebp),%eax
c010b2df:	8b 00                	mov    (%eax),%eax
c010b2e1:	c9                   	leave  
c010b2e2:	c3                   	ret    

c010b2e3 <kthread_yield>:
c010b2e3:	55                   	push   %ebp
c010b2e4:	89 e5                	mov    %esp,%ebp
c010b2e6:	83 ec 08             	sub    $0x8,%esp
c010b2e9:	e8 de f8 ff ff       	call   c010abcc <sched_switch>
c010b2ee:	90                   	nop
c010b2ef:	c9                   	leave  
c010b2f0:	c3                   	ret    

c010b2f1 <kthread_exit>:
c010b2f1:	55                   	push   %ebp
c010b2f2:	89 e5                	mov    %esp,%ebp
c010b2f4:	83 ec 18             	sub    $0x18,%esp
c010b2f7:	e8 5d f6 ff ff       	call   c010a959 <curr_thread>
c010b2fc:	89 45 f4             	mov    %eax,-0xc(%ebp)
c010b2ff:	8b 45 f4             	mov    -0xc(%ebp),%eax
c010b302:	8b 40 04             	mov    0x4(%eax),%eax
c010b305:	83 ec 0c             	sub    $0xc,%esp
c010b308:	50                   	push   %eax
c010b309:	e8 bd 10 00 00       	call   c010c3cb <kql_acquire>
c010b30e:	83 c4 10             	add    $0x10,%esp
c010b311:	8b 45 f4             	mov    -0xc(%ebp),%eax
c010b314:	8b 55 08             	mov    0x8(%ebp),%edx
c010b317:	89 50 20             	mov    %edx,0x20(%eax)
c010b31a:	8b 45 f4             	mov    -0xc(%ebp),%eax
c010b31d:	8b 40 1c             	mov    0x1c(%eax),%eax
c010b320:	83 ec 0c             	sub    $0xc,%esp
c010b323:	50                   	push   %eax
c010b324:	e8 14 14 00 00       	call   c010c73d <kevent_broadcast>
c010b329:	83 c4 10             	add    $0x10,%esp
c010b32c:	8b 45 f4             	mov    -0xc(%ebp),%eax
c010b32f:	8b 40 04             	mov    0x4(%eax),%eax
c010b332:	83 ec 0c             	sub    $0xc,%esp
c010b335:	50                   	push   %eax
c010b336:	e8 dd f9 ff ff       	call   c010ad18 <sched_finish_thread_and_release>
c010b33b:	83 c4 10             	add    $0x10,%esp
c010b33e:	83 ec 0c             	sub    $0xc,%esp
c010b341:	68 a4 33 11 c0       	push   $0xc01133a4
c010b346:	e8 58 6e 00 00       	call   c01121a3 <panic>
c010b34b:	83 c4 10             	add    $0x10,%esp
c010b34e:	90                   	nop
c010b34f:	c9                   	leave  
c010b350:	c3                   	ret    

c010b351 <delete_thread>:
c010b351:	55                   	push   %ebp
c010b352:	89 e5                	mov    %esp,%ebp
c010b354:	83 ec 08             	sub    $0x8,%esp
c010b357:	a1 18 60 10 c0       	mov    0xc0106018,%eax
c010b35c:	83 ec 0c             	sub    $0xc,%esp
c010b35f:	50                   	push   %eax
c010b360:	e8 66 10 00 00       	call   c010c3cb <kql_acquire>
c010b365:	83 c4 10             	add    $0x10,%esp
c010b368:	8b 45 08             	mov    0x8(%ebp),%eax
c010b36b:	8b 40 04             	mov    0x4(%eax),%eax
c010b36e:	83 ec 0c             	sub    $0xc,%esp
c010b371:	50                   	push   %eax
c010b372:	e8 54 10 00 00       	call   c010c3cb <kql_acquire>
c010b377:	83 c4 10             	add    $0x10,%esp
c010b37a:	8b 15 1c 60 10 c0    	mov    0xc010601c,%edx
c010b380:	8b 45 08             	mov    0x8(%ebp),%eax
c010b383:	8b 00                	mov    (%eax),%eax
c010b385:	c1 e0 02             	shl    $0x2,%eax
c010b388:	01 d0                	add    %edx,%eax
c010b38a:	c7 00 00 00 00 00    	movl   $0x0,(%eax)
c010b390:	8b 45 08             	mov    0x8(%ebp),%eax
c010b393:	8b 40 08             	mov    0x8(%eax),%eax
c010b396:	83 ec 0c             	sub    $0xc,%esp
c010b399:	50                   	push   %eax
c010b39a:	e8 3d f5 ff ff       	call   c010a8dc <kfree>
c010b39f:	83 c4 10             	add    $0x10,%esp
c010b3a2:	8b 45 08             	mov    0x8(%ebp),%eax
c010b3a5:	8b 40 1c             	mov    0x1c(%eax),%eax
c010b3a8:	83 ec 0c             	sub    $0xc,%esp
c010b3ab:	50                   	push   %eax
c010b3ac:	e8 ae 12 00 00       	call   c010c65f <kevent_delete>
c010b3b1:	83 c4 10             	add    $0x10,%esp
c010b3b4:	8b 45 08             	mov    0x8(%ebp),%eax
c010b3b7:	8b 40 04             	mov    0x4(%eax),%eax
c010b3ba:	83 ec 0c             	sub    $0xc,%esp
c010b3bd:	50                   	push   %eax
c010b3be:	e8 bb 0f 00 00       	call   c010c37e <kql_delete>
c010b3c3:	83 c4 10             	add    $0x10,%esp
c010b3c6:	83 ec 0c             	sub    $0xc,%esp
c010b3c9:	ff 75 08             	pushl  0x8(%ebp)
c010b3cc:	e8 0b f5 ff ff       	call   c010a8dc <kfree>
c010b3d1:	83 c4 10             	add    $0x10,%esp
c010b3d4:	a1 18 60 10 c0       	mov    0xc0106018,%eax
c010b3d9:	83 ec 0c             	sub    $0xc,%esp
c010b3dc:	50                   	push   %eax
c010b3dd:	e8 9f 10 00 00       	call   c010c481 <kql_release>
c010b3e2:	83 c4 10             	add    $0x10,%esp
c010b3e5:	90                   	nop
c010b3e6:	c9                   	leave  
c010b3e7:	c3                   	ret    

c010b3e8 <kthread_join>:
c010b3e8:	55                   	push   %ebp
c010b3e9:	89 e5                	mov    %esp,%ebp
c010b3eb:	83 ec 18             	sub    $0x18,%esp
c010b3ee:	83 ec 0c             	sub    $0xc,%esp
c010b3f1:	ff 75 08             	pushl  0x8(%ebp)
c010b3f4:	e8 7e fc ff ff       	call   c010b077 <get_thread>
c010b3f9:	83 c4 10             	add    $0x10,%esp
c010b3fc:	89 45 f4             	mov    %eax,-0xc(%ebp)
c010b3ff:	8b 45 f4             	mov    -0xc(%ebp),%eax
c010b402:	8b 40 04             	mov    0x4(%eax),%eax
c010b405:	83 ec 0c             	sub    $0xc,%esp
c010b408:	50                   	push   %eax
c010b409:	e8 bd 0f 00 00       	call   c010c3cb <kql_acquire>
c010b40e:	83 c4 10             	add    $0x10,%esp
c010b411:	eb 12                	jmp    c010b425 <kthread_join+0x3d>
c010b413:	8b 45 f4             	mov    -0xc(%ebp),%eax
c010b416:	8b 40 1c             	mov    0x1c(%eax),%eax
c010b419:	83 ec 0c             	sub    $0xc,%esp
c010b41c:	50                   	push   %eax
c010b41d:	e8 84 12 00 00       	call   c010c6a6 <kevent_wait>
c010b422:	83 c4 10             	add    $0x10,%esp
c010b425:	8b 45 f4             	mov    -0xc(%ebp),%eax
c010b428:	8b 40 10             	mov    0x10(%eax),%eax
c010b42b:	83 f8 05             	cmp    $0x5,%eax
c010b42e:	75 e3                	jne    c010b413 <kthread_join+0x2b>
c010b430:	8b 45 f4             	mov    -0xc(%ebp),%eax
c010b433:	8b 40 20             	mov    0x20(%eax),%eax
c010b436:	89 45 f0             	mov    %eax,-0x10(%ebp)
c010b439:	83 ec 0c             	sub    $0xc,%esp
c010b43c:	ff 75 f4             	pushl  -0xc(%ebp)
c010b43f:	e8 0d ff ff ff       	call   c010b351 <delete_thread>
c010b444:	83 c4 10             	add    $0x10,%esp
c010b447:	8b 45 f0             	mov    -0x10(%ebp),%eax
c010b44a:	c9                   	leave  
c010b44b:	c3                   	ret    

c010b44c <register_process>:
c010b44c:	55                   	push   %ebp
c010b44d:	89 e5                	mov    %esp,%ebp
c010b44f:	83 ec 18             	sub    $0x18,%esp
c010b452:	a1 24 60 10 c0       	mov    0xc0106024,%eax
c010b457:	83 ec 0c             	sub    $0xc,%esp
c010b45a:	50                   	push   %eax
c010b45b:	e8 6b 0f 00 00       	call   c010c3cb <kql_acquire>
c010b460:	83 c4 10             	add    $0x10,%esp
c010b463:	a1 2c 60 10 c0       	mov    0xc010602c,%eax
c010b468:	3d e7 03 00 00       	cmp    $0x3e7,%eax
c010b46d:	76 10                	jbe    c010b47f <register_process+0x33>
c010b46f:	83 ec 0c             	sub    $0xc,%esp
c010b472:	68 c8 33 11 c0       	push   $0xc01133c8
c010b477:	e8 27 6d 00 00       	call   c01121a3 <panic>
c010b47c:	83 c4 10             	add    $0x10,%esp
c010b47f:	a1 2c 60 10 c0       	mov    0xc010602c,%eax
c010b484:	89 45 f4             	mov    %eax,-0xc(%ebp)
c010b487:	a1 2c 60 10 c0       	mov    0xc010602c,%eax
c010b48c:	83 c0 01             	add    $0x1,%eax
c010b48f:	a3 2c 60 10 c0       	mov    %eax,0xc010602c
c010b494:	8b 45 08             	mov    0x8(%ebp),%eax
c010b497:	8b 55 f4             	mov    -0xc(%ebp),%edx
c010b49a:	89 10                	mov    %edx,(%eax)
c010b49c:	8b 15 28 60 10 c0    	mov    0xc0106028,%edx
c010b4a2:	8b 45 f4             	mov    -0xc(%ebp),%eax
c010b4a5:	c1 e0 02             	shl    $0x2,%eax
c010b4a8:	01 c2                	add    %eax,%edx
c010b4aa:	8b 45 08             	mov    0x8(%ebp),%eax
c010b4ad:	89 02                	mov    %eax,(%edx)
c010b4af:	a1 24 60 10 c0       	mov    0xc0106024,%eax
c010b4b4:	83 ec 0c             	sub    $0xc,%esp
c010b4b7:	50                   	push   %eax
c010b4b8:	e8 c4 0f 00 00       	call   c010c481 <kql_release>
c010b4bd:	83 c4 10             	add    $0x10,%esp
c010b4c0:	8b 45 f4             	mov    -0xc(%ebp),%eax
c010b4c3:	c9                   	leave  
c010b4c4:	c3                   	ret    

c010b4c5 <get_process>:
c010b4c5:	55                   	push   %ebp
c010b4c6:	89 e5                	mov    %esp,%ebp
c010b4c8:	83 ec 18             	sub    $0x18,%esp
c010b4cb:	a1 24 60 10 c0       	mov    0xc0106024,%eax
c010b4d0:	83 ec 0c             	sub    $0xc,%esp
c010b4d3:	50                   	push   %eax
c010b4d4:	e8 f2 0e 00 00       	call   c010c3cb <kql_acquire>
c010b4d9:	83 c4 10             	add    $0x10,%esp
c010b4dc:	8b 15 28 60 10 c0    	mov    0xc0106028,%edx
c010b4e2:	8b 45 08             	mov    0x8(%ebp),%eax
c010b4e5:	c1 e0 02             	shl    $0x2,%eax
c010b4e8:	01 d0                	add    %edx,%eax
c010b4ea:	8b 00                	mov    (%eax),%eax
c010b4ec:	89 45 f4             	mov    %eax,-0xc(%ebp)
c010b4ef:	a1 24 60 10 c0       	mov    0xc0106024,%eax
c010b4f4:	83 ec 0c             	sub    $0xc,%esp
c010b4f7:	50                   	push   %eax
c010b4f8:	e8 84 0f 00 00       	call   c010c481 <kql_release>
c010b4fd:	83 c4 10             	add    $0x10,%esp
c010b500:	8b 45 f4             	mov    -0xc(%ebp),%eax
c010b503:	c9                   	leave  
c010b504:	c3                   	ret    

c010b505 <init_process>:
c010b505:	55                   	push   %ebp
c010b506:	89 e5                	mov    %esp,%ebp
c010b508:	83 ec 18             	sub    $0x18,%esp
c010b50b:	e8 2a 0e 00 00       	call   c010c33a <kql_create>
c010b510:	a3 24 60 10 c0       	mov    %eax,0xc0106024
c010b515:	83 ec 0c             	sub    $0xc,%esp
c010b518:	68 a0 0f 00 00       	push   $0xfa0
c010b51d:	e8 ce f2 ff ff       	call   c010a7f0 <kmalloc>
c010b522:	83 c4 10             	add    $0x10,%esp
c010b525:	a3 28 60 10 c0       	mov    %eax,0xc0106028
c010b52a:	a1 28 60 10 c0       	mov    0xc0106028,%eax
c010b52f:	83 ec 04             	sub    $0x4,%esp
c010b532:	68 a0 0f 00 00       	push   $0xfa0
c010b537:	6a 00                	push   $0x0
c010b539:	50                   	push   %eax
c010b53a:	e8 29 6c 00 00       	call   c0112168 <memset>
c010b53f:	83 c4 10             	add    $0x10,%esp
c010b542:	83 ec 0c             	sub    $0xc,%esp
c010b545:	6a 3c                	push   $0x3c
c010b547:	e8 a4 f2 ff ff       	call   c010a7f0 <kmalloc>
c010b54c:	83 c4 10             	add    $0x10,%esp
c010b54f:	89 45 f4             	mov    %eax,-0xc(%ebp)
c010b552:	e8 e3 0d 00 00       	call   c010c33a <kql_create>
c010b557:	8b 55 f4             	mov    -0xc(%ebp),%edx
c010b55a:	89 42 04             	mov    %eax,0x4(%edx)
c010b55d:	8b 45 f4             	mov    -0xc(%ebp),%eax
c010b560:	c7 40 0c 00 00 00 00 	movl   $0x0,0xc(%eax)
c010b567:	e8 01 6f 00 00       	call   c011246d <list_create>
c010b56c:	8b 55 f4             	mov    -0xc(%ebp),%edx
c010b56f:	89 42 10             	mov    %eax,0x10(%edx)
c010b572:	8b 45 f4             	mov    -0xc(%ebp),%eax
c010b575:	c7 40 14 01 00 00 00 	movl   $0x1,0x14(%eax)
c010b57c:	8b 45 f4             	mov    -0xc(%ebp),%eax
c010b57f:	8b 40 04             	mov    0x4(%eax),%eax
c010b582:	83 ec 0c             	sub    $0xc,%esp
c010b585:	50                   	push   %eax
c010b586:	e8 a6 10 00 00       	call   c010c631 <kevent_create>
c010b58b:	83 c4 10             	add    $0x10,%esp
c010b58e:	8b 55 f4             	mov    -0xc(%ebp),%edx
c010b591:	89 42 1c             	mov    %eax,0x1c(%edx)
c010b594:	e8 1d 75 00 00       	call   c0112ab6 <vect_create>
c010b599:	8b 55 f4             	mov    -0xc(%ebp),%edx
c010b59c:	89 42 24             	mov    %eax,0x24(%edx)
c010b59f:	e8 12 75 00 00       	call   c0112ab6 <vect_create>
c010b5a4:	8b 55 f4             	mov    -0xc(%ebp),%edx
c010b5a7:	89 42 28             	mov    %eax,0x28(%edx)
c010b5aa:	e8 07 75 00 00       	call   c0112ab6 <vect_create>
c010b5af:	8b 55 f4             	mov    -0xc(%ebp),%edx
c010b5b2:	89 42 20             	mov    %eax,0x20(%edx)
c010b5b5:	8b 45 f4             	mov    -0xc(%ebp),%eax
c010b5b8:	c7 40 2c e3 33 11 c0 	movl   $0xc01133e3,0x2c(%eax)
c010b5bf:	8b 45 f4             	mov    -0xc(%ebp),%eax
c010b5c2:	c7 40 34 00 00 00 00 	movl   $0x0,0x34(%eax)
c010b5c9:	8b 45 f4             	mov    -0xc(%ebp),%eax
c010b5cc:	c7 40 38 00 00 00 00 	movl   $0x0,0x38(%eax)
c010b5d3:	e8 b9 ec ff ff       	call   c010a291 <kernel_page_table>
c010b5d8:	8b 55 f4             	mov    -0xc(%ebp),%edx
c010b5db:	89 42 30             	mov    %eax,0x30(%edx)
c010b5de:	e8 76 f3 ff ff       	call   c010a959 <curr_thread>
c010b5e3:	89 45 f0             	mov    %eax,-0x10(%ebp)
c010b5e6:	8b 45 f0             	mov    -0x10(%ebp),%eax
c010b5e9:	8b 55 f4             	mov    -0xc(%ebp),%edx
c010b5ec:	89 50 24             	mov    %edx,0x24(%eax)
c010b5ef:	e8 79 6e 00 00       	call   c011246d <list_create>
c010b5f4:	8b 55 f4             	mov    -0xc(%ebp),%edx
c010b5f7:	89 42 08             	mov    %eax,0x8(%edx)
c010b5fa:	8b 45 f4             	mov    -0xc(%ebp),%eax
c010b5fd:	8b 40 08             	mov    0x8(%eax),%eax
c010b600:	83 ec 08             	sub    $0x8,%esp
c010b603:	ff 75 f0             	pushl  -0x10(%ebp)
c010b606:	50                   	push   %eax
c010b607:	e8 e4 6e 00 00       	call   c01124f0 <list_add_front>
c010b60c:	83 c4 10             	add    $0x10,%esp
c010b60f:	83 ec 0c             	sub    $0xc,%esp
c010b612:	ff 75 f4             	pushl  -0xc(%ebp)
c010b615:	e8 32 fe ff ff       	call   c010b44c <register_process>
c010b61a:	83 c4 10             	add    $0x10,%esp
c010b61d:	90                   	nop
c010b61e:	c9                   	leave  
c010b61f:	c3                   	ret    

c010b620 <add_resource>:
c010b620:	55                   	push   %ebp
c010b621:	89 e5                	mov    %esp,%ebp
c010b623:	83 ec 18             	sub    $0x18,%esp
c010b626:	c7 45 f4 00 00 00 00 	movl   $0x0,-0xc(%ebp)
c010b62d:	eb 32                	jmp    c010b661 <add_resource+0x41>
c010b62f:	83 ec 08             	sub    $0x8,%esp
c010b632:	ff 75 f4             	pushl  -0xc(%ebp)
c010b635:	ff 75 08             	pushl  0x8(%ebp)
c010b638:	e8 0b 75 00 00       	call   c0112b48 <vect_get>
c010b63d:	83 c4 10             	add    $0x10,%esp
c010b640:	85 c0                	test   %eax,%eax
c010b642:	75 19                	jne    c010b65d <add_resource+0x3d>
c010b644:	83 ec 04             	sub    $0x4,%esp
c010b647:	ff 75 0c             	pushl  0xc(%ebp)
c010b64a:	ff 75 f4             	pushl  -0xc(%ebp)
c010b64d:	ff 75 08             	pushl  0x8(%ebp)
c010b650:	e8 5e 75 00 00       	call   c0112bb3 <vect_set>
c010b655:	83 c4 10             	add    $0x10,%esp
c010b658:	8b 45 f4             	mov    -0xc(%ebp),%eax
c010b65b:	eb 29                	jmp    c010b686 <add_resource+0x66>
c010b65d:	83 45 f4 01          	addl   $0x1,-0xc(%ebp)
c010b661:	8b 45 08             	mov    0x8(%ebp),%eax
c010b664:	8b 40 04             	mov    0x4(%eax),%eax
c010b667:	39 45 f4             	cmp    %eax,-0xc(%ebp)
c010b66a:	72 c3                	jb     c010b62f <add_resource+0xf>
c010b66c:	83 ec 08             	sub    $0x8,%esp
c010b66f:	ff 75 0c             	pushl  0xc(%ebp)
c010b672:	ff 75 08             	pushl  0x8(%ebp)
c010b675:	e8 f4 74 00 00       	call   c0112b6e <vect_append>
c010b67a:	83 c4 10             	add    $0x10,%esp
c010b67d:	8b 45 08             	mov    0x8(%ebp),%eax
c010b680:	8b 40 04             	mov    0x4(%eax),%eax
c010b683:	83 e8 01             	sub    $0x1,%eax
c010b686:	c9                   	leave  
c010b687:	c3                   	ret    

c010b688 <proc_add_lock>:
c010b688:	55                   	push   %ebp
c010b689:	89 e5                	mov    %esp,%ebp
c010b68b:	83 ec 18             	sub    $0x18,%esp
c010b68e:	8b 45 08             	mov    0x8(%ebp),%eax
c010b691:	8b 40 04             	mov    0x4(%eax),%eax
c010b694:	83 ec 0c             	sub    $0xc,%esp
c010b697:	50                   	push   %eax
c010b698:	e8 2e 0d 00 00       	call   c010c3cb <kql_acquire>
c010b69d:	83 c4 10             	add    $0x10,%esp
c010b6a0:	8b 45 08             	mov    0x8(%ebp),%eax
c010b6a3:	8b 40 24             	mov    0x24(%eax),%eax
c010b6a6:	83 ec 08             	sub    $0x8,%esp
c010b6a9:	ff 75 0c             	pushl  0xc(%ebp)
c010b6ac:	50                   	push   %eax
c010b6ad:	e8 6e ff ff ff       	call   c010b620 <add_resource>
c010b6b2:	83 c4 10             	add    $0x10,%esp
c010b6b5:	89 45 f4             	mov    %eax,-0xc(%ebp)
c010b6b8:	8b 45 08             	mov    0x8(%ebp),%eax
c010b6bb:	8b 40 04             	mov    0x4(%eax),%eax
c010b6be:	83 ec 0c             	sub    $0xc,%esp
c010b6c1:	50                   	push   %eax
c010b6c2:	e8 ba 0d 00 00       	call   c010c481 <kql_release>
c010b6c7:	83 c4 10             	add    $0x10,%esp
c010b6ca:	8b 45 f4             	mov    -0xc(%ebp),%eax
c010b6cd:	c9                   	leave  
c010b6ce:	c3                   	ret    

c010b6cf <proc_get_lock>:
c010b6cf:	55                   	push   %ebp
c010b6d0:	89 e5                	mov    %esp,%ebp
c010b6d2:	83 ec 18             	sub    $0x18,%esp
c010b6d5:	8b 45 08             	mov    0x8(%ebp),%eax
c010b6d8:	8b 40 04             	mov    0x4(%eax),%eax
c010b6db:	83 ec 0c             	sub    $0xc,%esp
c010b6de:	50                   	push   %eax
c010b6df:	e8 e7 0c 00 00       	call   c010c3cb <kql_acquire>
c010b6e4:	83 c4 10             	add    $0x10,%esp
c010b6e7:	8b 45 08             	mov    0x8(%ebp),%eax
c010b6ea:	8b 40 24             	mov    0x24(%eax),%eax
c010b6ed:	83 ec 08             	sub    $0x8,%esp
c010b6f0:	ff 75 0c             	pushl  0xc(%ebp)
c010b6f3:	50                   	push   %eax
c010b6f4:	e8 4f 74 00 00       	call   c0112b48 <vect_get>
c010b6f9:	83 c4 10             	add    $0x10,%esp
c010b6fc:	89 45 f4             	mov    %eax,-0xc(%ebp)
c010b6ff:	8b 45 08             	mov    0x8(%ebp),%eax
c010b702:	8b 40 04             	mov    0x4(%eax),%eax
c010b705:	83 ec 0c             	sub    $0xc,%esp
c010b708:	50                   	push   %eax
c010b709:	e8 73 0d 00 00       	call   c010c481 <kql_release>
c010b70e:	83 c4 10             	add    $0x10,%esp
c010b711:	8b 45 f4             	mov    -0xc(%ebp),%eax
c010b714:	c9                   	leave  
c010b715:	c3                   	ret    

c010b716 <proc_remove_lock>:
c010b716:	55                   	push   %ebp
c010b717:	89 e5                	mov    %esp,%ebp
c010b719:	83 ec 18             	sub    $0x18,%esp
c010b71c:	8b 45 08             	mov    0x8(%ebp),%eax
c010b71f:	8b 40 04             	mov    0x4(%eax),%eax
c010b722:	83 ec 0c             	sub    $0xc,%esp
c010b725:	50                   	push   %eax
c010b726:	e8 a0 0c 00 00       	call   c010c3cb <kql_acquire>
c010b72b:	83 c4 10             	add    $0x10,%esp
c010b72e:	8b 45 08             	mov    0x8(%ebp),%eax
c010b731:	8b 40 24             	mov    0x24(%eax),%eax
c010b734:	83 ec 04             	sub    $0x4,%esp
c010b737:	6a 00                	push   $0x0
c010b739:	ff 75 0c             	pushl  0xc(%ebp)
c010b73c:	50                   	push   %eax
c010b73d:	e8 71 74 00 00       	call   c0112bb3 <vect_set>
c010b742:	83 c4 10             	add    $0x10,%esp
c010b745:	89 45 f4             	mov    %eax,-0xc(%ebp)
c010b748:	8b 45 08             	mov    0x8(%ebp),%eax
c010b74b:	8b 40 04             	mov    0x4(%eax),%eax
c010b74e:	83 ec 0c             	sub    $0xc,%esp
c010b751:	50                   	push   %eax
c010b752:	e8 2a 0d 00 00       	call   c010c481 <kql_release>
c010b757:	83 c4 10             	add    $0x10,%esp
c010b75a:	8b 45 f4             	mov    -0xc(%ebp),%eax
c010b75d:	c9                   	leave  
c010b75e:	c3                   	ret    

c010b75f <proc_add_event>:
c010b75f:	55                   	push   %ebp
c010b760:	89 e5                	mov    %esp,%ebp
c010b762:	83 ec 18             	sub    $0x18,%esp
c010b765:	8b 45 08             	mov    0x8(%ebp),%eax
c010b768:	8b 40 04             	mov    0x4(%eax),%eax
c010b76b:	83 ec 0c             	sub    $0xc,%esp
c010b76e:	50                   	push   %eax
c010b76f:	e8 57 0c 00 00       	call   c010c3cb <kql_acquire>
c010b774:	83 c4 10             	add    $0x10,%esp
c010b777:	8b 45 08             	mov    0x8(%ebp),%eax
c010b77a:	8b 40 28             	mov    0x28(%eax),%eax
c010b77d:	83 ec 08             	sub    $0x8,%esp
c010b780:	ff 75 0c             	pushl  0xc(%ebp)
c010b783:	50                   	push   %eax
c010b784:	e8 97 fe ff ff       	call   c010b620 <add_resource>
c010b789:	83 c4 10             	add    $0x10,%esp
c010b78c:	89 45 f4             	mov    %eax,-0xc(%ebp)
c010b78f:	8b 45 08             	mov    0x8(%ebp),%eax
c010b792:	8b 40 04             	mov    0x4(%eax),%eax
c010b795:	83 ec 0c             	sub    $0xc,%esp
c010b798:	50                   	push   %eax
c010b799:	e8 e3 0c 00 00       	call   c010c481 <kql_release>
c010b79e:	83 c4 10             	add    $0x10,%esp
c010b7a1:	8b 45 f4             	mov    -0xc(%ebp),%eax
c010b7a4:	c9                   	leave  
c010b7a5:	c3                   	ret    

c010b7a6 <proc_get_event>:
c010b7a6:	55                   	push   %ebp
c010b7a7:	89 e5                	mov    %esp,%ebp
c010b7a9:	83 ec 18             	sub    $0x18,%esp
c010b7ac:	8b 45 08             	mov    0x8(%ebp),%eax
c010b7af:	8b 40 04             	mov    0x4(%eax),%eax
c010b7b2:	83 ec 0c             	sub    $0xc,%esp
c010b7b5:	50                   	push   %eax
c010b7b6:	e8 10 0c 00 00       	call   c010c3cb <kql_acquire>
c010b7bb:	83 c4 10             	add    $0x10,%esp
c010b7be:	8b 45 08             	mov    0x8(%ebp),%eax
c010b7c1:	8b 40 28             	mov    0x28(%eax),%eax
c010b7c4:	83 ec 08             	sub    $0x8,%esp
c010b7c7:	ff 75 0c             	pushl  0xc(%ebp)
c010b7ca:	50                   	push   %eax
c010b7cb:	e8 78 73 00 00       	call   c0112b48 <vect_get>
c010b7d0:	83 c4 10             	add    $0x10,%esp
c010b7d3:	89 45 f4             	mov    %eax,-0xc(%ebp)
c010b7d6:	8b 45 08             	mov    0x8(%ebp),%eax
c010b7d9:	8b 40 04             	mov    0x4(%eax),%eax
c010b7dc:	83 ec 0c             	sub    $0xc,%esp
c010b7df:	50                   	push   %eax
c010b7e0:	e8 9c 0c 00 00       	call   c010c481 <kql_release>
c010b7e5:	83 c4 10             	add    $0x10,%esp
c010b7e8:	8b 45 f4             	mov    -0xc(%ebp),%eax
c010b7eb:	c9                   	leave  
c010b7ec:	c3                   	ret    

c010b7ed <proc_remove_event>:
c010b7ed:	55                   	push   %ebp
c010b7ee:	89 e5                	mov    %esp,%ebp
c010b7f0:	83 ec 18             	sub    $0x18,%esp
c010b7f3:	8b 45 08             	mov    0x8(%ebp),%eax
c010b7f6:	8b 40 04             	mov    0x4(%eax),%eax
c010b7f9:	83 ec 0c             	sub    $0xc,%esp
c010b7fc:	50                   	push   %eax
c010b7fd:	e8 c9 0b 00 00       	call   c010c3cb <kql_acquire>
c010b802:	83 c4 10             	add    $0x10,%esp
c010b805:	8b 45 08             	mov    0x8(%ebp),%eax
c010b808:	8b 40 28             	mov    0x28(%eax),%eax
c010b80b:	83 ec 04             	sub    $0x4,%esp
c010b80e:	6a 00                	push   $0x0
c010b810:	ff 75 0c             	pushl  0xc(%ebp)
c010b813:	50                   	push   %eax
c010b814:	e8 9a 73 00 00       	call   c0112bb3 <vect_set>
c010b819:	83 c4 10             	add    $0x10,%esp
c010b81c:	89 45 f4             	mov    %eax,-0xc(%ebp)
c010b81f:	8b 45 08             	mov    0x8(%ebp),%eax
c010b822:	8b 40 04             	mov    0x4(%eax),%eax
c010b825:	83 ec 0c             	sub    $0xc,%esp
c010b828:	50                   	push   %eax
c010b829:	e8 53 0c 00 00       	call   c010c481 <kql_release>
c010b82e:	83 c4 10             	add    $0x10,%esp
c010b831:	8b 45 f4             	mov    -0xc(%ebp),%eax
c010b834:	c9                   	leave  
c010b835:	c3                   	ret    

c010b836 <proc_add_fd>:
c010b836:	55                   	push   %ebp
c010b837:	89 e5                	mov    %esp,%ebp
c010b839:	83 ec 18             	sub    $0x18,%esp
c010b83c:	8b 45 08             	mov    0x8(%ebp),%eax
c010b83f:	8b 40 04             	mov    0x4(%eax),%eax
c010b842:	83 ec 0c             	sub    $0xc,%esp
c010b845:	50                   	push   %eax
c010b846:	e8 80 0b 00 00       	call   c010c3cb <kql_acquire>
c010b84b:	83 c4 10             	add    $0x10,%esp
c010b84e:	8b 45 08             	mov    0x8(%ebp),%eax
c010b851:	8b 40 20             	mov    0x20(%eax),%eax
c010b854:	83 ec 08             	sub    $0x8,%esp
c010b857:	ff 75 0c             	pushl  0xc(%ebp)
c010b85a:	50                   	push   %eax
c010b85b:	e8 c0 fd ff ff       	call   c010b620 <add_resource>
c010b860:	83 c4 10             	add    $0x10,%esp
c010b863:	89 45 f4             	mov    %eax,-0xc(%ebp)
c010b866:	8b 45 08             	mov    0x8(%ebp),%eax
c010b869:	8b 40 04             	mov    0x4(%eax),%eax
c010b86c:	83 ec 0c             	sub    $0xc,%esp
c010b86f:	50                   	push   %eax
c010b870:	e8 0c 0c 00 00       	call   c010c481 <kql_release>
c010b875:	83 c4 10             	add    $0x10,%esp
c010b878:	8b 45 f4             	mov    -0xc(%ebp),%eax
c010b87b:	c9                   	leave  
c010b87c:	c3                   	ret    

c010b87d <proc_get_fd>:
c010b87d:	55                   	push   %ebp
c010b87e:	89 e5                	mov    %esp,%ebp
c010b880:	83 ec 18             	sub    $0x18,%esp
c010b883:	8b 45 08             	mov    0x8(%ebp),%eax
c010b886:	8b 40 04             	mov    0x4(%eax),%eax
c010b889:	83 ec 0c             	sub    $0xc,%esp
c010b88c:	50                   	push   %eax
c010b88d:	e8 39 0b 00 00       	call   c010c3cb <kql_acquire>
c010b892:	83 c4 10             	add    $0x10,%esp
c010b895:	8b 45 08             	mov    0x8(%ebp),%eax
c010b898:	8b 40 20             	mov    0x20(%eax),%eax
c010b89b:	83 ec 08             	sub    $0x8,%esp
c010b89e:	ff 75 0c             	pushl  0xc(%ebp)
c010b8a1:	50                   	push   %eax
c010b8a2:	e8 a1 72 00 00       	call   c0112b48 <vect_get>
c010b8a7:	83 c4 10             	add    $0x10,%esp
c010b8aa:	89 45 f4             	mov    %eax,-0xc(%ebp)
c010b8ad:	8b 45 08             	mov    0x8(%ebp),%eax
c010b8b0:	8b 40 04             	mov    0x4(%eax),%eax
c010b8b3:	83 ec 0c             	sub    $0xc,%esp
c010b8b6:	50                   	push   %eax
c010b8b7:	e8 c5 0b 00 00       	call   c010c481 <kql_release>
c010b8bc:	83 c4 10             	add    $0x10,%esp
c010b8bf:	8b 45 f4             	mov    -0xc(%ebp),%eax
c010b8c2:	c9                   	leave  
c010b8c3:	c3                   	ret    

c010b8c4 <proc_remove_fd>:
c010b8c4:	55                   	push   %ebp
c010b8c5:	89 e5                	mov    %esp,%ebp
c010b8c7:	83 ec 18             	sub    $0x18,%esp
c010b8ca:	8b 45 08             	mov    0x8(%ebp),%eax
c010b8cd:	8b 40 04             	mov    0x4(%eax),%eax
c010b8d0:	83 ec 0c             	sub    $0xc,%esp
c010b8d3:	50                   	push   %eax
c010b8d4:	e8 f2 0a 00 00       	call   c010c3cb <kql_acquire>
c010b8d9:	83 c4 10             	add    $0x10,%esp
c010b8dc:	8b 45 08             	mov    0x8(%ebp),%eax
c010b8df:	8b 40 20             	mov    0x20(%eax),%eax
c010b8e2:	83 ec 04             	sub    $0x4,%esp
c010b8e5:	6a 00                	push   $0x0
c010b8e7:	ff 75 0c             	pushl  0xc(%ebp)
c010b8ea:	50                   	push   %eax
c010b8eb:	e8 c3 72 00 00       	call   c0112bb3 <vect_set>
c010b8f0:	83 c4 10             	add    $0x10,%esp
c010b8f3:	89 45 f4             	mov    %eax,-0xc(%ebp)
c010b8f6:	8b 45 08             	mov    0x8(%ebp),%eax
c010b8f9:	8b 40 04             	mov    0x4(%eax),%eax
c010b8fc:	83 ec 0c             	sub    $0xc,%esp
c010b8ff:	50                   	push   %eax
c010b900:	e8 7c 0b 00 00       	call   c010c481 <kql_release>
c010b905:	83 c4 10             	add    $0x10,%esp
c010b908:	8b 45 f4             	mov    -0xc(%ebp),%eax
c010b90b:	c9                   	leave  
c010b90c:	c3                   	ret    

c010b90d <copy_file_descrs>:
c010b90d:	55                   	push   %ebp
c010b90e:	89 e5                	mov    %esp,%ebp
c010b910:	83 ec 18             	sub    $0x18,%esp
c010b913:	e8 9e 71 00 00       	call   c0112ab6 <vect_create>
c010b918:	8b 55 08             	mov    0x8(%ebp),%edx
c010b91b:	89 42 20             	mov    %eax,0x20(%edx)
c010b91e:	8b 45 0c             	mov    0xc(%ebp),%eax
c010b921:	8b 40 20             	mov    0x20(%eax),%eax
c010b924:	8b 50 04             	mov    0x4(%eax),%edx
c010b927:	8b 45 08             	mov    0x8(%ebp),%eax
c010b92a:	8b 40 20             	mov    0x20(%eax),%eax
c010b92d:	83 ec 08             	sub    $0x8,%esp
c010b930:	52                   	push   %edx
c010b931:	50                   	push   %eax
c010b932:	e8 bd 72 00 00       	call   c0112bf4 <vect_grow>
c010b937:	83 c4 10             	add    $0x10,%esp
c010b93a:	c7 45 f4 00 00 00 00 	movl   $0x0,-0xc(%ebp)
c010b941:	eb 42                	jmp    c010b985 <copy_file_descrs+0x78>
c010b943:	8b 45 0c             	mov    0xc(%ebp),%eax
c010b946:	8b 40 20             	mov    0x20(%eax),%eax
c010b949:	83 ec 08             	sub    $0x8,%esp
c010b94c:	ff 75 f4             	pushl  -0xc(%ebp)
c010b94f:	50                   	push   %eax
c010b950:	e8 f3 71 00 00       	call   c0112b48 <vect_get>
c010b955:	83 c4 10             	add    $0x10,%esp
c010b958:	89 45 f0             	mov    %eax,-0x10(%ebp)
c010b95b:	83 ec 0c             	sub    $0xc,%esp
c010b95e:	ff 75 f0             	pushl  -0x10(%ebp)
c010b961:	e8 5d 48 00 00       	call   c01101c3 <fd_copy>
c010b966:	83 c4 10             	add    $0x10,%esp
c010b969:	89 45 f0             	mov    %eax,-0x10(%ebp)
c010b96c:	8b 45 08             	mov    0x8(%ebp),%eax
c010b96f:	8b 40 20             	mov    0x20(%eax),%eax
c010b972:	83 ec 08             	sub    $0x8,%esp
c010b975:	ff 75 f0             	pushl  -0x10(%ebp)
c010b978:	50                   	push   %eax
c010b979:	e8 f0 71 00 00       	call   c0112b6e <vect_append>
c010b97e:	83 c4 10             	add    $0x10,%esp
c010b981:	83 45 f4 01          	addl   $0x1,-0xc(%ebp)
c010b985:	8b 45 0c             	mov    0xc(%ebp),%eax
c010b988:	8b 40 20             	mov    0x20(%eax),%eax
c010b98b:	8b 40 04             	mov    0x4(%eax),%eax
c010b98e:	39 45 f4             	cmp    %eax,-0xc(%ebp)
c010b991:	72 b0                	jb     c010b943 <copy_file_descrs+0x36>
c010b993:	90                   	nop
c010b994:	90                   	nop
c010b995:	c9                   	leave  
c010b996:	c3                   	ret    

c010b997 <copy_process>:
c010b997:	55                   	push   %ebp
c010b998:	89 e5                	mov    %esp,%ebp
c010b99a:	83 ec 18             	sub    $0x18,%esp
c010b99d:	8b 45 08             	mov    0x8(%ebp),%eax
c010b9a0:	8b 40 04             	mov    0x4(%eax),%eax
c010b9a3:	83 ec 0c             	sub    $0xc,%esp
c010b9a6:	50                   	push   %eax
c010b9a7:	e8 1f 0a 00 00       	call   c010c3cb <kql_acquire>
c010b9ac:	83 c4 10             	add    $0x10,%esp
c010b9af:	83 ec 0c             	sub    $0xc,%esp
c010b9b2:	6a 3c                	push   $0x3c
c010b9b4:	e8 37 ee ff ff       	call   c010a7f0 <kmalloc>
c010b9b9:	83 c4 10             	add    $0x10,%esp
c010b9bc:	89 45 f4             	mov    %eax,-0xc(%ebp)
c010b9bf:	e8 76 09 00 00       	call   c010c33a <kql_create>
c010b9c4:	8b 55 f4             	mov    -0xc(%ebp),%edx
c010b9c7:	89 42 04             	mov    %eax,0x4(%edx)
c010b9ca:	8b 45 f4             	mov    -0xc(%ebp),%eax
c010b9cd:	8b 40 04             	mov    0x4(%eax),%eax
c010b9d0:	83 ec 0c             	sub    $0xc,%esp
c010b9d3:	50                   	push   %eax
c010b9d4:	e8 58 0c 00 00       	call   c010c631 <kevent_create>
c010b9d9:	83 c4 10             	add    $0x10,%esp
c010b9dc:	8b 55 f4             	mov    -0xc(%ebp),%edx
c010b9df:	89 42 1c             	mov    %eax,0x1c(%edx)
c010b9e2:	8b 45 f4             	mov    -0xc(%ebp),%eax
c010b9e5:	8b 55 08             	mov    0x8(%ebp),%edx
c010b9e8:	89 50 0c             	mov    %edx,0xc(%eax)
c010b9eb:	e8 7d 6a 00 00       	call   c011246d <list_create>
c010b9f0:	8b 55 f4             	mov    -0xc(%ebp),%edx
c010b9f3:	89 42 10             	mov    %eax,0x10(%edx)
c010b9f6:	8b 45 08             	mov    0x8(%ebp),%eax
c010b9f9:	8b 40 10             	mov    0x10(%eax),%eax
c010b9fc:	83 ec 08             	sub    $0x8,%esp
c010b9ff:	ff 75 f4             	pushl  -0xc(%ebp)
c010ba02:	50                   	push   %eax
c010ba03:	e8 50 6b 00 00       	call   c0112558 <list_add_back>
c010ba08:	83 c4 10             	add    $0x10,%esp
c010ba0b:	e8 5d 6a 00 00       	call   c011246d <list_create>
c010ba10:	8b 55 f4             	mov    -0xc(%ebp),%edx
c010ba13:	89 42 08             	mov    %eax,0x8(%edx)
c010ba16:	83 ec 08             	sub    $0x8,%esp
c010ba19:	68 00 10 00 00       	push   $0x1000
c010ba1e:	68 00 10 00 00       	push   $0x1000
c010ba23:	e8 e0 ed ff ff       	call   c010a808 <kmalloc_aligned>
c010ba28:	83 c4 10             	add    $0x10,%esp
c010ba2b:	8b 55 f4             	mov    -0xc(%ebp),%edx
c010ba2e:	89 42 30             	mov    %eax,0x30(%edx)
c010ba31:	8b 45 08             	mov    0x8(%ebp),%eax
c010ba34:	8b 50 30             	mov    0x30(%eax),%edx
c010ba37:	8b 45 f4             	mov    -0xc(%ebp),%eax
c010ba3a:	8b 40 30             	mov    0x30(%eax),%eax
c010ba3d:	83 ec 08             	sub    $0x8,%esp
c010ba40:	52                   	push   %edx
c010ba41:	50                   	push   %eax
c010ba42:	e8 e6 e8 ff ff       	call   c010a32d <copy_address_space>
c010ba47:	83 c4 10             	add    $0x10,%esp
c010ba4a:	e8 67 70 00 00       	call   c0112ab6 <vect_create>
c010ba4f:	8b 55 f4             	mov    -0xc(%ebp),%edx
c010ba52:	89 42 24             	mov    %eax,0x24(%edx)
c010ba55:	e8 5c 70 00 00       	call   c0112ab6 <vect_create>
c010ba5a:	8b 55 f4             	mov    -0xc(%ebp),%edx
c010ba5d:	89 42 28             	mov    %eax,0x28(%edx)
c010ba60:	83 ec 08             	sub    $0x8,%esp
c010ba63:	ff 75 08             	pushl  0x8(%ebp)
c010ba66:	ff 75 f4             	pushl  -0xc(%ebp)
c010ba69:	e8 9f fe ff ff       	call   c010b90d <copy_file_descrs>
c010ba6e:	83 c4 10             	add    $0x10,%esp
c010ba71:	8b 45 08             	mov    0x8(%ebp),%eax
c010ba74:	8b 40 2c             	mov    0x2c(%eax),%eax
c010ba77:	83 ec 0c             	sub    $0xc,%esp
c010ba7a:	50                   	push   %eax
c010ba7b:	e8 fc 66 00 00       	call   c011217c <strlen>
c010ba80:	83 c4 10             	add    $0x10,%esp
c010ba83:	83 c0 01             	add    $0x1,%eax
c010ba86:	89 45 f0             	mov    %eax,-0x10(%ebp)
c010ba89:	83 ec 0c             	sub    $0xc,%esp
c010ba8c:	ff 75 f0             	pushl  -0x10(%ebp)
c010ba8f:	e8 5c ed ff ff       	call   c010a7f0 <kmalloc>
c010ba94:	83 c4 10             	add    $0x10,%esp
c010ba97:	8b 55 f4             	mov    -0xc(%ebp),%edx
c010ba9a:	89 42 2c             	mov    %eax,0x2c(%edx)
c010ba9d:	8b 45 08             	mov    0x8(%ebp),%eax
c010baa0:	8b 50 2c             	mov    0x2c(%eax),%edx
c010baa3:	8b 45 f4             	mov    -0xc(%ebp),%eax
c010baa6:	8b 40 2c             	mov    0x2c(%eax),%eax
c010baa9:	83 ec 04             	sub    $0x4,%esp
c010baac:	ff 75 f0             	pushl  -0x10(%ebp)
c010baaf:	52                   	push   %edx
c010bab0:	50                   	push   %eax
c010bab1:	e8 a0 66 00 00       	call   c0112156 <memcpy>
c010bab6:	83 c4 10             	add    $0x10,%esp
c010bab9:	83 ec 0c             	sub    $0xc,%esp
c010babc:	ff 75 f4             	pushl  -0xc(%ebp)
c010babf:	e8 88 f9 ff ff       	call   c010b44c <register_process>
c010bac4:	83 c4 10             	add    $0x10,%esp
c010bac7:	8b 45 08             	mov    0x8(%ebp),%eax
c010baca:	8b 40 04             	mov    0x4(%eax),%eax
c010bacd:	83 ec 0c             	sub    $0xc,%esp
c010bad0:	50                   	push   %eax
c010bad1:	e8 ab 09 00 00       	call   c010c481 <kql_release>
c010bad6:	83 c4 10             	add    $0x10,%esp
c010bad9:	8b 45 f4             	mov    -0xc(%ebp),%eax
c010badc:	c9                   	leave  
c010badd:	c3                   	ret    

c010bade <copy_thread>:
c010bade:	55                   	push   %ebp
c010badf:	89 e5                	mov    %esp,%ebp
c010bae1:	83 ec 18             	sub    $0x18,%esp
c010bae4:	8b 45 08             	mov    0x8(%ebp),%eax
c010bae7:	8b 40 04             	mov    0x4(%eax),%eax
c010baea:	83 ec 0c             	sub    $0xc,%esp
c010baed:	50                   	push   %eax
c010baee:	e8 d8 08 00 00       	call   c010c3cb <kql_acquire>
c010baf3:	83 c4 10             	add    $0x10,%esp
c010baf6:	83 ec 0c             	sub    $0xc,%esp
c010baf9:	6a 28                	push   $0x28
c010bafb:	e8 f0 ec ff ff       	call   c010a7f0 <kmalloc>
c010bb00:	83 c4 10             	add    $0x10,%esp
c010bb03:	89 45 f4             	mov    %eax,-0xc(%ebp)
c010bb06:	e8 2f 08 00 00       	call   c010c33a <kql_create>
c010bb0b:	8b 55 f4             	mov    -0xc(%ebp),%edx
c010bb0e:	89 42 04             	mov    %eax,0x4(%edx)
c010bb11:	8b 45 f4             	mov    -0xc(%ebp),%eax
c010bb14:	8b 40 04             	mov    0x4(%eax),%eax
c010bb17:	83 ec 0c             	sub    $0xc,%esp
c010bb1a:	50                   	push   %eax
c010bb1b:	e8 11 0b 00 00       	call   c010c631 <kevent_create>
c010bb20:	83 c4 10             	add    $0x10,%esp
c010bb23:	8b 55 f4             	mov    -0xc(%ebp),%edx
c010bb26:	89 42 1c             	mov    %eax,0x1c(%edx)
c010bb29:	83 ec 0c             	sub    $0xc,%esp
c010bb2c:	68 00 20 00 00       	push   $0x2000
c010bb31:	e8 ba ec ff ff       	call   c010a7f0 <kmalloc>
c010bb36:	83 c4 10             	add    $0x10,%esp
c010bb39:	8b 55 f4             	mov    -0xc(%ebp),%edx
c010bb3c:	89 42 08             	mov    %eax,0x8(%edx)
c010bb3f:	8b 45 08             	mov    0x8(%ebp),%eax
c010bb42:	8b 50 08             	mov    0x8(%eax),%edx
c010bb45:	8b 45 f4             	mov    -0xc(%ebp),%eax
c010bb48:	8b 40 08             	mov    0x8(%eax),%eax
c010bb4b:	83 ec 04             	sub    $0x4,%esp
c010bb4e:	68 00 20 00 00       	push   $0x2000
c010bb53:	52                   	push   %edx
c010bb54:	50                   	push   %eax
c010bb55:	e8 fc 65 00 00       	call   c0112156 <memcpy>
c010bb5a:	83 c4 10             	add    $0x10,%esp
c010bb5d:	8b 45 f4             	mov    -0xc(%ebp),%eax
c010bb60:	8b 40 08             	mov    0x8(%eax),%eax
c010bb63:	89 c2                	mov    %eax,%edx
c010bb65:	8b 45 08             	mov    0x8(%ebp),%eax
c010bb68:	8b 40 08             	mov    0x8(%eax),%eax
c010bb6b:	89 c1                	mov    %eax,%ecx
c010bb6d:	89 d0                	mov    %edx,%eax
c010bb6f:	29 c8                	sub    %ecx,%eax
c010bb71:	89 45 f0             	mov    %eax,-0x10(%ebp)
c010bb74:	8b 55 f0             	mov    -0x10(%ebp),%edx
c010bb77:	8b 45 10             	mov    0x10(%ebp),%eax
c010bb7a:	01 d0                	add    %edx,%eax
c010bb7c:	89 45 ec             	mov    %eax,-0x14(%ebp)
c010bb7f:	8b 45 f4             	mov    -0xc(%ebp),%eax
c010bb82:	8b 55 ec             	mov    -0x14(%ebp),%edx
c010bb85:	89 50 0c             	mov    %edx,0xc(%eax)
c010bb88:	8b 45 f4             	mov    -0xc(%ebp),%eax
c010bb8b:	8b 40 0c             	mov    0xc(%eax),%eax
c010bb8e:	83 e0 f0             	and    $0xfffffff0,%eax
c010bb91:	89 c2                	mov    %eax,%edx
c010bb93:	8b 45 f4             	mov    -0xc(%ebp),%eax
c010bb96:	89 50 0c             	mov    %edx,0xc(%eax)
c010bb99:	8b 45 f4             	mov    -0xc(%ebp),%eax
c010bb9c:	8b 40 0c             	mov    0xc(%eax),%eax
c010bb9f:	8d 50 f4             	lea    -0xc(%eax),%edx
c010bba2:	8b 45 f4             	mov    -0xc(%ebp),%eax
c010bba5:	89 50 0c             	mov    %edx,0xc(%eax)
c010bba8:	8b 45 f4             	mov    -0xc(%ebp),%eax
c010bbab:	8b 40 0c             	mov    0xc(%eax),%eax
c010bbae:	8d 50 fc             	lea    -0x4(%eax),%edx
c010bbb1:	8b 45 f4             	mov    -0xc(%ebp),%eax
c010bbb4:	89 50 0c             	mov    %edx,0xc(%eax)
c010bbb7:	8b 45 f4             	mov    -0xc(%ebp),%eax
c010bbba:	8b 40 0c             	mov    0xc(%eax),%eax
c010bbbd:	8d 50 fc             	lea    -0x4(%eax),%edx
c010bbc0:	8b 45 f4             	mov    -0xc(%ebp),%eax
c010bbc3:	89 50 0c             	mov    %edx,0xc(%eax)
c010bbc6:	8b 45 f4             	mov    -0xc(%ebp),%eax
c010bbc9:	8b 40 0c             	mov    0xc(%eax),%eax
c010bbcc:	8d 50 fc             	lea    -0x4(%eax),%edx
c010bbcf:	8b 45 f4             	mov    -0xc(%ebp),%eax
c010bbd2:	89 50 0c             	mov    %edx,0xc(%eax)
c010bbd5:	8b 45 f4             	mov    -0xc(%ebp),%eax
c010bbd8:	8b 40 0c             	mov    0xc(%eax),%eax
c010bbdb:	ba 4d ab 10 c0       	mov    $0xc010ab4d,%edx
c010bbe0:	89 10                	mov    %edx,(%eax)
c010bbe2:	8b 45 f4             	mov    -0xc(%ebp),%eax
c010bbe5:	8b 40 0c             	mov    0xc(%eax),%eax
c010bbe8:	8d 50 fc             	lea    -0x4(%eax),%edx
c010bbeb:	8b 45 f4             	mov    -0xc(%ebp),%eax
c010bbee:	89 50 0c             	mov    %edx,0xc(%eax)
c010bbf1:	8b 45 f4             	mov    -0xc(%ebp),%eax
c010bbf4:	8b 40 0c             	mov    0xc(%eax),%eax
c010bbf7:	8b 55 ec             	mov    -0x14(%ebp),%edx
c010bbfa:	89 10                	mov    %edx,(%eax)
c010bbfc:	8b 45 f4             	mov    -0xc(%ebp),%eax
c010bbff:	8b 40 0c             	mov    0xc(%eax),%eax
c010bc02:	8d 50 fc             	lea    -0x4(%eax),%edx
c010bc05:	8b 45 f4             	mov    -0xc(%ebp),%eax
c010bc08:	89 50 0c             	mov    %edx,0xc(%eax)
c010bc0b:	8b 45 0c             	mov    0xc(%ebp),%eax
c010bc0e:	8b 10                	mov    (%eax),%edx
c010bc10:	8b 45 10             	mov    0x10(%ebp),%eax
c010bc13:	89 50 20             	mov    %edx,0x20(%eax)
c010bc16:	8b 45 ec             	mov    -0x14(%ebp),%eax
c010bc19:	c7 40 20 00 00 00 00 	movl   $0x0,0x20(%eax)
c010bc20:	8b 45 0c             	mov    0xc(%ebp),%eax
c010bc23:	8b 40 08             	mov    0x8(%eax),%eax
c010bc26:	83 ec 08             	sub    $0x8,%esp
c010bc29:	ff 75 f4             	pushl  -0xc(%ebp)
c010bc2c:	50                   	push   %eax
c010bc2d:	e8 be 68 00 00       	call   c01124f0 <list_add_front>
c010bc32:	83 c4 10             	add    $0x10,%esp
c010bc35:	8b 45 f4             	mov    -0xc(%ebp),%eax
c010bc38:	8b 55 0c             	mov    0xc(%ebp),%edx
c010bc3b:	89 50 24             	mov    %edx,0x24(%eax)
c010bc3e:	83 ec 0c             	sub    $0xc,%esp
c010bc41:	ff 75 f4             	pushl  -0xc(%ebp)
c010bc44:	e8 b5 f3 ff ff       	call   c010affe <register_thread>
c010bc49:	83 c4 10             	add    $0x10,%esp
c010bc4c:	8b 45 08             	mov    0x8(%ebp),%eax
c010bc4f:	8b 40 04             	mov    0x4(%eax),%eax
c010bc52:	83 ec 0c             	sub    $0xc,%esp
c010bc55:	50                   	push   %eax
c010bc56:	e8 26 08 00 00       	call   c010c481 <kql_release>
c010bc5b:	83 c4 10             	add    $0x10,%esp
c010bc5e:	8b 45 f4             	mov    -0xc(%ebp),%eax
c010bc61:	c9                   	leave  
c010bc62:	c3                   	ret    

c010bc63 <do_proc_fork>:
c010bc63:	55                   	push   %ebp
c010bc64:	89 e5                	mov    %esp,%ebp
c010bc66:	83 ec 18             	sub    $0x18,%esp
c010bc69:	a1 24 60 10 c0       	mov    0xc0106024,%eax
c010bc6e:	83 ec 0c             	sub    $0xc,%esp
c010bc71:	50                   	push   %eax
c010bc72:	e8 54 07 00 00       	call   c010c3cb <kql_acquire>
c010bc77:	83 c4 10             	add    $0x10,%esp
c010bc7a:	e8 e4 ec ff ff       	call   c010a963 <curr_process>
c010bc7f:	83 ec 0c             	sub    $0xc,%esp
c010bc82:	50                   	push   %eax
c010bc83:	e8 0f fd ff ff       	call   c010b997 <copy_process>
c010bc88:	83 c4 10             	add    $0x10,%esp
c010bc8b:	89 45 f4             	mov    %eax,-0xc(%ebp)
c010bc8e:	e8 c6 ec ff ff       	call   c010a959 <curr_thread>
c010bc93:	83 ec 04             	sub    $0x4,%esp
c010bc96:	ff 75 08             	pushl  0x8(%ebp)
c010bc99:	ff 75 f4             	pushl  -0xc(%ebp)
c010bc9c:	50                   	push   %eax
c010bc9d:	e8 3c fe ff ff       	call   c010bade <copy_thread>
c010bca2:	83 c4 10             	add    $0x10,%esp
c010bca5:	89 45 f0             	mov    %eax,-0x10(%ebp)
c010bca8:	8b 45 f4             	mov    -0xc(%ebp),%eax
c010bcab:	c7 40 14 01 00 00 00 	movl   $0x1,0x14(%eax)
c010bcb2:	83 ec 0c             	sub    $0xc,%esp
c010bcb5:	ff 75 f0             	pushl  -0x10(%ebp)
c010bcb8:	e8 de ed ff ff       	call   c010aa9b <sthread_create>
c010bcbd:	83 c4 10             	add    $0x10,%esp
c010bcc0:	a1 24 60 10 c0       	mov    0xc0106024,%eax
c010bcc5:	83 ec 0c             	sub    $0xc,%esp
c010bcc8:	50                   	push   %eax
c010bcc9:	e8 b3 07 00 00       	call   c010c481 <kql_release>
c010bcce:	83 c4 10             	add    $0x10,%esp
c010bcd1:	90                   	nop
c010bcd2:	c9                   	leave  
c010bcd3:	c3                   	ret    

c010bcd4 <align>:
c010bcd4:	55                   	push   %ebp
c010bcd5:	89 e5                	mov    %esp,%ebp
c010bcd7:	8b 45 08             	mov    0x8(%ebp),%eax
c010bcda:	99                   	cltd   
c010bcdb:	f7 7d 0c             	idivl  0xc(%ebp)
c010bcde:	89 d0                	mov    %edx,%eax
c010bce0:	85 c0                	test   %eax,%eax
c010bce2:	74 14                	je     c010bcf8 <align+0x24>
c010bce4:	8b 45 08             	mov    0x8(%ebp),%eax
c010bce7:	99                   	cltd   
c010bce8:	f7 7d 0c             	idivl  0xc(%ebp)
c010bceb:	89 c2                	mov    %eax,%edx
c010bced:	8b 45 0c             	mov    0xc(%ebp),%eax
c010bcf0:	83 c0 01             	add    $0x1,%eax
c010bcf3:	0f af c2             	imul   %edx,%eax
c010bcf6:	eb 03                	jmp    c010bcfb <align+0x27>
c010bcf8:	8b 45 08             	mov    0x8(%ebp),%eax
c010bcfb:	5d                   	pop    %ebp
c010bcfc:	c3                   	ret    

c010bcfd <is_singleton>:
c010bcfd:	55                   	push   %ebp
c010bcfe:	89 e5                	mov    %esp,%ebp
c010bd00:	8b 45 08             	mov    0x8(%ebp),%eax
c010bd03:	8b 00                	mov    (%eax),%eax
c010bd05:	85 c0                	test   %eax,%eax
c010bd07:	74 16                	je     c010bd1f <is_singleton+0x22>
c010bd09:	8b 45 08             	mov    0x8(%ebp),%eax
c010bd0c:	8b 10                	mov    (%eax),%edx
c010bd0e:	8b 45 08             	mov    0x8(%ebp),%eax
c010bd11:	8b 40 04             	mov    0x4(%eax),%eax
c010bd14:	39 c2                	cmp    %eax,%edx
c010bd16:	75 07                	jne    c010bd1f <is_singleton+0x22>
c010bd18:	b8 01 00 00 00       	mov    $0x1,%eax
c010bd1d:	eb 05                	jmp    c010bd24 <is_singleton+0x27>
c010bd1f:	b8 00 00 00 00       	mov    $0x0,%eax
c010bd24:	83 e0 01             	and    $0x1,%eax
c010bd27:	5d                   	pop    %ebp
c010bd28:	c3                   	ret    

c010bd29 <kproc_exec>:
c010bd29:	55                   	push   %ebp
c010bd2a:	89 e5                	mov    %esp,%ebp
c010bd2c:	53                   	push   %ebx
c010bd2d:	83 ec 44             	sub    $0x44,%esp
c010bd30:	e8 2e ec ff ff       	call   c010a963 <curr_process>
c010bd35:	89 45 e8             	mov    %eax,-0x18(%ebp)
c010bd38:	8b 45 e8             	mov    -0x18(%ebp),%eax
c010bd3b:	8b 40 04             	mov    0x4(%eax),%eax
c010bd3e:	83 ec 0c             	sub    $0xc,%esp
c010bd41:	50                   	push   %eax
c010bd42:	e8 84 06 00 00       	call   c010c3cb <kql_acquire>
c010bd47:	83 c4 10             	add    $0x10,%esp
c010bd4a:	8b 45 e8             	mov    -0x18(%ebp),%eax
c010bd4d:	8b 40 08             	mov    0x8(%eax),%eax
c010bd50:	83 ec 0c             	sub    $0xc,%esp
c010bd53:	50                   	push   %eax
c010bd54:	e8 a4 ff ff ff       	call   c010bcfd <is_singleton>
c010bd59:	83 c4 10             	add    $0x10,%esp
c010bd5c:	83 f0 01             	xor    $0x1,%eax
c010bd5f:	84 c0                	test   %al,%al
c010bd61:	74 10                	je     c010bd73 <kproc_exec+0x4a>
c010bd63:	83 ec 0c             	sub    $0xc,%esp
c010bd66:	68 e8 33 11 c0       	push   $0xc01133e8
c010bd6b:	e8 33 64 00 00       	call   c01121a3 <panic>
c010bd70:	83 c4 10             	add    $0x10,%esp
c010bd73:	8b 45 0c             	mov    0xc(%ebp),%eax
c010bd76:	c1 e0 02             	shl    $0x2,%eax
c010bd79:	83 ec 0c             	sub    $0xc,%esp
c010bd7c:	50                   	push   %eax
c010bd7d:	e8 6e ea ff ff       	call   c010a7f0 <kmalloc>
c010bd82:	83 c4 10             	add    $0x10,%esp
c010bd85:	89 45 e4             	mov    %eax,-0x1c(%ebp)
c010bd88:	c7 45 f4 00 00 00 00 	movl   $0x0,-0xc(%ebp)
c010bd8f:	eb 79                	jmp    c010be0a <kproc_exec+0xe1>
c010bd91:	8b 45 f4             	mov    -0xc(%ebp),%eax
c010bd94:	8d 14 85 00 00 00 00 	lea    0x0(,%eax,4),%edx
c010bd9b:	8b 45 10             	mov    0x10(%ebp),%eax
c010bd9e:	01 d0                	add    %edx,%eax
c010bda0:	8b 00                	mov    (%eax),%eax
c010bda2:	83 ec 0c             	sub    $0xc,%esp
c010bda5:	50                   	push   %eax
c010bda6:	e8 d1 63 00 00       	call   c011217c <strlen>
c010bdab:	83 c4 10             	add    $0x10,%esp
c010bdae:	83 c0 01             	add    $0x1,%eax
c010bdb1:	89 45 d4             	mov    %eax,-0x2c(%ebp)
c010bdb4:	8b 45 f4             	mov    -0xc(%ebp),%eax
c010bdb7:	8d 14 85 00 00 00 00 	lea    0x0(,%eax,4),%edx
c010bdbe:	8b 45 e4             	mov    -0x1c(%ebp),%eax
c010bdc1:	8d 1c 02             	lea    (%edx,%eax,1),%ebx
c010bdc4:	83 ec 0c             	sub    $0xc,%esp
c010bdc7:	ff 75 d4             	pushl  -0x2c(%ebp)
c010bdca:	e8 21 ea ff ff       	call   c010a7f0 <kmalloc>
c010bdcf:	83 c4 10             	add    $0x10,%esp
c010bdd2:	89 03                	mov    %eax,(%ebx)
c010bdd4:	8b 45 f4             	mov    -0xc(%ebp),%eax
c010bdd7:	8d 14 85 00 00 00 00 	lea    0x0(,%eax,4),%edx
c010bdde:	8b 45 10             	mov    0x10(%ebp),%eax
c010bde1:	01 d0                	add    %edx,%eax
c010bde3:	8b 10                	mov    (%eax),%edx
c010bde5:	8b 45 f4             	mov    -0xc(%ebp),%eax
c010bde8:	8d 0c 85 00 00 00 00 	lea    0x0(,%eax,4),%ecx
c010bdef:	8b 45 e4             	mov    -0x1c(%ebp),%eax
c010bdf2:	01 c8                	add    %ecx,%eax
c010bdf4:	8b 00                	mov    (%eax),%eax
c010bdf6:	83 ec 04             	sub    $0x4,%esp
c010bdf9:	ff 75 d4             	pushl  -0x2c(%ebp)
c010bdfc:	52                   	push   %edx
c010bdfd:	50                   	push   %eax
c010bdfe:	e8 53 63 00 00       	call   c0112156 <memcpy>
c010be03:	83 c4 10             	add    $0x10,%esp
c010be06:	83 45 f4 01          	addl   $0x1,-0xc(%ebp)
c010be0a:	8b 45 0c             	mov    0xc(%ebp),%eax
c010be0d:	39 45 f4             	cmp    %eax,-0xc(%ebp)
c010be10:	0f 82 7b ff ff ff    	jb     c010bd91 <kproc_exec+0x68>
c010be16:	83 ec 0c             	sub    $0xc,%esp
c010be19:	8d 45 c4             	lea    -0x3c(%ebp),%eax
c010be1c:	50                   	push   %eax
c010be1d:	8d 45 c8             	lea    -0x38(%ebp),%eax
c010be20:	50                   	push   %eax
c010be21:	8d 45 cc             	lea    -0x34(%ebp),%eax
c010be24:	50                   	push   %eax
c010be25:	8d 45 d0             	lea    -0x30(%ebp),%eax
c010be28:	50                   	push   %eax
c010be29:	ff 75 08             	pushl  0x8(%ebp)
c010be2c:	e8 a2 09 00 00       	call   c010c7d3 <load_program>
c010be31:	83 c4 20             	add    $0x20,%esp
c010be34:	8b 45 c8             	mov    -0x38(%ebp),%eax
c010be37:	89 45 f0             	mov    %eax,-0x10(%ebp)
c010be3a:	8b 45 f0             	mov    -0x10(%ebp),%eax
c010be3d:	89 45 e0             	mov    %eax,-0x20(%ebp)
c010be40:	8b 45 0c             	mov    0xc(%ebp),%eax
c010be43:	c1 e0 02             	shl    $0x2,%eax
c010be46:	01 45 f0             	add    %eax,-0x10(%ebp)
c010be49:	c7 45 ec 00 00 00 00 	movl   $0x0,-0x14(%ebp)
c010be50:	eb 67                	jmp    c010beb9 <kproc_exec+0x190>
c010be52:	8b 45 ec             	mov    -0x14(%ebp),%eax
c010be55:	8d 14 85 00 00 00 00 	lea    0x0(,%eax,4),%edx
c010be5c:	8b 45 e0             	mov    -0x20(%ebp),%eax
c010be5f:	01 d0                	add    %edx,%eax
c010be61:	89 c2                	mov    %eax,%edx
c010be63:	8b 45 f0             	mov    -0x10(%ebp),%eax
c010be66:	89 02                	mov    %eax,(%edx)
c010be68:	8b 45 ec             	mov    -0x14(%ebp),%eax
c010be6b:	8d 14 85 00 00 00 00 	lea    0x0(,%eax,4),%edx
c010be72:	8b 45 e4             	mov    -0x1c(%ebp),%eax
c010be75:	01 d0                	add    %edx,%eax
c010be77:	8b 00                	mov    (%eax),%eax
c010be79:	83 ec 0c             	sub    $0xc,%esp
c010be7c:	50                   	push   %eax
c010be7d:	e8 fa 62 00 00       	call   c011217c <strlen>
c010be82:	83 c4 10             	add    $0x10,%esp
c010be85:	83 c0 01             	add    $0x1,%eax
c010be88:	89 45 d8             	mov    %eax,-0x28(%ebp)
c010be8b:	8b 45 ec             	mov    -0x14(%ebp),%eax
c010be8e:	8d 14 85 00 00 00 00 	lea    0x0(,%eax,4),%edx
c010be95:	8b 45 e4             	mov    -0x1c(%ebp),%eax
c010be98:	01 d0                	add    %edx,%eax
c010be9a:	8b 10                	mov    (%eax),%edx
c010be9c:	8b 45 f0             	mov    -0x10(%ebp),%eax
c010be9f:	83 ec 04             	sub    $0x4,%esp
c010bea2:	ff 75 d8             	pushl  -0x28(%ebp)
c010bea5:	52                   	push   %edx
c010bea6:	50                   	push   %eax
c010bea7:	e8 aa 62 00 00       	call   c0112156 <memcpy>
c010beac:	83 c4 10             	add    $0x10,%esp
c010beaf:	8b 45 d8             	mov    -0x28(%ebp),%eax
c010beb2:	01 45 f0             	add    %eax,-0x10(%ebp)
c010beb5:	83 45 ec 01          	addl   $0x1,-0x14(%ebp)
c010beb9:	8b 45 0c             	mov    0xc(%ebp),%eax
c010bebc:	39 45 ec             	cmp    %eax,-0x14(%ebp)
c010bebf:	72 91                	jb     c010be52 <kproc_exec+0x129>
c010bec1:	8b 55 c4             	mov    -0x3c(%ebp),%edx
c010bec4:	8b 45 e8             	mov    -0x18(%ebp),%eax
c010bec7:	89 50 38             	mov    %edx,0x38(%eax)
c010beca:	8b 45 e8             	mov    -0x18(%ebp),%eax
c010becd:	8b 55 f0             	mov    -0x10(%ebp),%edx
c010bed0:	89 50 34             	mov    %edx,0x34(%eax)
c010bed3:	8b 45 cc             	mov    -0x34(%ebp),%eax
c010bed6:	89 45 dc             	mov    %eax,-0x24(%ebp)
c010bed9:	83 6d dc 08          	subl   $0x8,-0x24(%ebp)
c010bedd:	83 6d dc 04          	subl   $0x4,-0x24(%ebp)
c010bee1:	8b 45 dc             	mov    -0x24(%ebp),%eax
c010bee4:	8b 55 e0             	mov    -0x20(%ebp),%edx
c010bee7:	89 10                	mov    %edx,(%eax)
c010bee9:	83 6d dc 04          	subl   $0x4,-0x24(%ebp)
c010beed:	8b 55 0c             	mov    0xc(%ebp),%edx
c010bef0:	8b 45 dc             	mov    -0x24(%ebp),%eax
c010bef3:	89 10                	mov    %edx,(%eax)
c010bef5:	83 6d dc 04          	subl   $0x4,-0x24(%ebp)
c010bef9:	8b 45 e8             	mov    -0x18(%ebp),%eax
c010befc:	8b 40 04             	mov    0x4(%eax),%eax
c010beff:	83 ec 0c             	sub    $0xc,%esp
c010bf02:	50                   	push   %eax
c010bf03:	e8 79 05 00 00       	call   c010c481 <kql_release>
c010bf08:	83 c4 10             	add    $0x10,%esp
c010bf0b:	8b 55 dc             	mov    -0x24(%ebp),%edx
c010bf0e:	8b 45 d0             	mov    -0x30(%ebp),%eax
c010bf11:	83 ec 08             	sub    $0x8,%esp
c010bf14:	52                   	push   %edx
c010bf15:	50                   	push   %eax
c010bf16:	e8 8d 03 00 00       	call   c010c2a8 <exec_jump_asm>
c010bf1b:	83 c4 10             	add    $0x10,%esp
c010bf1e:	90                   	nop
c010bf1f:	8b 5d fc             	mov    -0x4(%ebp),%ebx
c010bf22:	c9                   	leave  
c010bf23:	c3                   	ret    

c010bf24 <move_to_root>:
c010bf24:	55                   	push   %ebp
c010bf25:	89 e5                	mov    %esp,%ebp
c010bf27:	83 ec 18             	sub    $0x18,%esp
c010bf2a:	83 ec 0c             	sub    $0xc,%esp
c010bf2d:	6a 00                	push   $0x0
c010bf2f:	e8 91 f5 ff ff       	call   c010b4c5 <get_process>
c010bf34:	83 c4 10             	add    $0x10,%esp
c010bf37:	89 45 f4             	mov    %eax,-0xc(%ebp)
c010bf3a:	8b 45 08             	mov    0x8(%ebp),%eax
c010bf3d:	8b 40 04             	mov    0x4(%eax),%eax
c010bf40:	83 ec 0c             	sub    $0xc,%esp
c010bf43:	50                   	push   %eax
c010bf44:	e8 82 04 00 00       	call   c010c3cb <kql_acquire>
c010bf49:	83 c4 10             	add    $0x10,%esp
c010bf4c:	8b 45 f4             	mov    -0xc(%ebp),%eax
c010bf4f:	8b 40 04             	mov    0x4(%eax),%eax
c010bf52:	83 ec 0c             	sub    $0xc,%esp
c010bf55:	50                   	push   %eax
c010bf56:	e8 70 04 00 00       	call   c010c3cb <kql_acquire>
c010bf5b:	83 c4 10             	add    $0x10,%esp
c010bf5e:	8b 45 08             	mov    0x8(%ebp),%eax
c010bf61:	8b 55 f4             	mov    -0xc(%ebp),%edx
c010bf64:	89 50 0c             	mov    %edx,0xc(%eax)
c010bf67:	8b 45 f4             	mov    -0xc(%ebp),%eax
c010bf6a:	8b 40 10             	mov    0x10(%eax),%eax
c010bf6d:	83 ec 08             	sub    $0x8,%esp
c010bf70:	ff 75 08             	pushl  0x8(%ebp)
c010bf73:	50                   	push   %eax
c010bf74:	e8 df 65 00 00       	call   c0112558 <list_add_back>
c010bf79:	83 c4 10             	add    $0x10,%esp
c010bf7c:	8b 45 f4             	mov    -0xc(%ebp),%eax
c010bf7f:	8b 40 04             	mov    0x4(%eax),%eax
c010bf82:	83 ec 0c             	sub    $0xc,%esp
c010bf85:	50                   	push   %eax
c010bf86:	e8 f6 04 00 00       	call   c010c481 <kql_release>
c010bf8b:	83 c4 10             	add    $0x10,%esp
c010bf8e:	8b 45 08             	mov    0x8(%ebp),%eax
c010bf91:	8b 40 04             	mov    0x4(%eax),%eax
c010bf94:	83 ec 0c             	sub    $0xc,%esp
c010bf97:	50                   	push   %eax
c010bf98:	e8 e4 04 00 00       	call   c010c481 <kql_release>
c010bf9d:	83 c4 10             	add    $0x10,%esp
c010bfa0:	90                   	nop
c010bfa1:	c9                   	leave  
c010bfa2:	c3                   	ret    

c010bfa3 <kproc_exit>:
c010bfa3:	55                   	push   %ebp
c010bfa4:	89 e5                	mov    %esp,%ebp
c010bfa6:	83 ec 18             	sub    $0x18,%esp
c010bfa9:	e8 b5 e9 ff ff       	call   c010a963 <curr_process>
c010bfae:	89 45 f0             	mov    %eax,-0x10(%ebp)
c010bfb1:	8b 45 f0             	mov    -0x10(%ebp),%eax
c010bfb4:	8b 40 04             	mov    0x4(%eax),%eax
c010bfb7:	83 ec 0c             	sub    $0xc,%esp
c010bfba:	50                   	push   %eax
c010bfbb:	e8 0b 04 00 00       	call   c010c3cb <kql_acquire>
c010bfc0:	83 c4 10             	add    $0x10,%esp
c010bfc3:	8b 45 f0             	mov    -0x10(%ebp),%eax
c010bfc6:	8b 00                	mov    (%eax),%eax
c010bfc8:	85 c0                	test   %eax,%eax
c010bfca:	75 10                	jne    c010bfdc <kproc_exit+0x39>
c010bfcc:	83 ec 0c             	sub    $0xc,%esp
c010bfcf:	68 28 34 11 c0       	push   $0xc0113428
c010bfd4:	e8 ca 61 00 00       	call   c01121a3 <panic>
c010bfd9:	83 c4 10             	add    $0x10,%esp
c010bfdc:	8b 45 f0             	mov    -0x10(%ebp),%eax
c010bfdf:	8b 40 08             	mov    0x8(%eax),%eax
c010bfe2:	83 ec 0c             	sub    $0xc,%esp
c010bfe5:	50                   	push   %eax
c010bfe6:	e8 12 fd ff ff       	call   c010bcfd <is_singleton>
c010bfeb:	83 c4 10             	add    $0x10,%esp
c010bfee:	83 f0 01             	xor    $0x1,%eax
c010bff1:	84 c0                	test   %al,%al
c010bff3:	74 10                	je     c010c005 <kproc_exit+0x62>
c010bff5:	83 ec 0c             	sub    $0xc,%esp
c010bff8:	68 60 34 11 c0       	push   $0xc0113460
c010bffd:	e8 a1 61 00 00       	call   c01121a3 <panic>
c010c002:	83 c4 10             	add    $0x10,%esp
c010c005:	8b 45 f0             	mov    -0x10(%ebp),%eax
c010c008:	8b 55 08             	mov    0x8(%ebp),%edx
c010c00b:	89 50 18             	mov    %edx,0x18(%eax)
c010c00e:	8b 45 f0             	mov    -0x10(%ebp),%eax
c010c011:	8b 40 1c             	mov    0x1c(%eax),%eax
c010c014:	83 ec 0c             	sub    $0xc,%esp
c010c017:	50                   	push   %eax
c010c018:	e8 20 07 00 00       	call   c010c73d <kevent_broadcast>
c010c01d:	83 c4 10             	add    $0x10,%esp
c010c020:	8b 45 f0             	mov    -0x10(%ebp),%eax
c010c023:	8b 40 10             	mov    0x10(%eax),%eax
c010c026:	8b 00                	mov    (%eax),%eax
c010c028:	89 45 f4             	mov    %eax,-0xc(%ebp)
c010c02b:	eb 1f                	jmp    c010c04c <kproc_exit+0xa9>
c010c02d:	8b 45 f4             	mov    -0xc(%ebp),%eax
c010c030:	8b 00                	mov    (%eax),%eax
c010c032:	89 45 ec             	mov    %eax,-0x14(%ebp)
c010c035:	83 ec 0c             	sub    $0xc,%esp
c010c038:	ff 75 ec             	pushl  -0x14(%ebp)
c010c03b:	e8 e4 fe ff ff       	call   c010bf24 <move_to_root>
c010c040:	83 c4 10             	add    $0x10,%esp
c010c043:	8b 45 f4             	mov    -0xc(%ebp),%eax
c010c046:	8b 40 04             	mov    0x4(%eax),%eax
c010c049:	89 45 f4             	mov    %eax,-0xc(%ebp)
c010c04c:	83 7d f4 00          	cmpl   $0x0,-0xc(%ebp)
c010c050:	75 db                	jne    c010c02d <kproc_exit+0x8a>
c010c052:	8b 45 f0             	mov    -0x10(%ebp),%eax
c010c055:	8b 40 04             	mov    0x4(%eax),%eax
c010c058:	83 ec 0c             	sub    $0xc,%esp
c010c05b:	50                   	push   %eax
c010c05c:	e8 65 ed ff ff       	call   c010adc6 <sched_finish_proc_and_release>
c010c061:	83 c4 10             	add    $0x10,%esp
c010c064:	83 ec 0c             	sub    $0xc,%esp
c010c067:	68 a0 34 11 c0       	push   $0xc01134a0
c010c06c:	e8 32 61 00 00       	call   c01121a3 <panic>
c010c071:	83 c4 10             	add    $0x10,%esp
c010c074:	90                   	nop
c010c075:	c9                   	leave  
c010c076:	c3                   	ret    

c010c077 <delete_proc>:
c010c077:	55                   	push   %ebp
c010c078:	89 e5                	mov    %esp,%ebp
c010c07a:	83 ec 28             	sub    $0x28,%esp
c010c07d:	a1 24 60 10 c0       	mov    0xc0106024,%eax
c010c082:	83 ec 0c             	sub    $0xc,%esp
c010c085:	50                   	push   %eax
c010c086:	e8 40 03 00 00       	call   c010c3cb <kql_acquire>
c010c08b:	83 c4 10             	add    $0x10,%esp
c010c08e:	8b 45 08             	mov    0x8(%ebp),%eax
c010c091:	8b 40 04             	mov    0x4(%eax),%eax
c010c094:	83 ec 0c             	sub    $0xc,%esp
c010c097:	50                   	push   %eax
c010c098:	e8 2e 03 00 00       	call   c010c3cb <kql_acquire>
c010c09d:	83 c4 10             	add    $0x10,%esp
c010c0a0:	8b 15 28 60 10 c0    	mov    0xc0106028,%edx
c010c0a6:	8b 45 08             	mov    0x8(%ebp),%eax
c010c0a9:	8b 00                	mov    (%eax),%eax
c010c0ab:	c1 e0 02             	shl    $0x2,%eax
c010c0ae:	01 d0                	add    %edx,%eax
c010c0b0:	c7 00 00 00 00 00    	movl   $0x0,(%eax)
c010c0b6:	8b 45 08             	mov    0x8(%ebp),%eax
c010c0b9:	8b 40 08             	mov    0x8(%eax),%eax
c010c0bc:	8b 00                	mov    (%eax),%eax
c010c0be:	89 45 f4             	mov    %eax,-0xc(%ebp)
c010c0c1:	eb 1a                	jmp    c010c0dd <delete_proc+0x66>
c010c0c3:	8b 45 f4             	mov    -0xc(%ebp),%eax
c010c0c6:	8b 00                	mov    (%eax),%eax
c010c0c8:	83 ec 0c             	sub    $0xc,%esp
c010c0cb:	50                   	push   %eax
c010c0cc:	e8 80 f2 ff ff       	call   c010b351 <delete_thread>
c010c0d1:	83 c4 10             	add    $0x10,%esp
c010c0d4:	8b 45 f4             	mov    -0xc(%ebp),%eax
c010c0d7:	8b 40 04             	mov    0x4(%eax),%eax
c010c0da:	89 45 f4             	mov    %eax,-0xc(%ebp)
c010c0dd:	83 7d f4 00          	cmpl   $0x0,-0xc(%ebp)
c010c0e1:	75 e0                	jne    c010c0c3 <delete_proc+0x4c>
c010c0e3:	8b 45 08             	mov    0x8(%ebp),%eax
c010c0e6:	8b 40 08             	mov    0x8(%eax),%eax
c010c0e9:	83 ec 0c             	sub    $0xc,%esp
c010c0ec:	50                   	push   %eax
c010c0ed:	e8 ab 63 00 00       	call   c011249d <list_delete>
c010c0f2:	83 c4 10             	add    $0x10,%esp
c010c0f5:	8b 45 08             	mov    0x8(%ebp),%eax
c010c0f8:	8b 40 10             	mov    0x10(%eax),%eax
c010c0fb:	83 ec 0c             	sub    $0xc,%esp
c010c0fe:	50                   	push   %eax
c010c0ff:	e8 99 63 00 00       	call   c011249d <list_delete>
c010c104:	83 c4 10             	add    $0x10,%esp
c010c107:	c7 45 f0 00 00 00 00 	movl   $0x0,-0x10(%ebp)
c010c10e:	eb 1c                	jmp    c010c12c <delete_proc+0xb5>
c010c110:	8b 45 08             	mov    0x8(%ebp),%eax
c010c113:	8b 40 20             	mov    0x20(%eax),%eax
c010c116:	83 ec 08             	sub    $0x8,%esp
c010c119:	ff 75 f0             	pushl  -0x10(%ebp)
c010c11c:	50                   	push   %eax
c010c11d:	e8 26 6a 00 00       	call   c0112b48 <vect_get>
c010c122:	83 c4 10             	add    $0x10,%esp
c010c125:	89 45 dc             	mov    %eax,-0x24(%ebp)
c010c128:	83 45 f0 01          	addl   $0x1,-0x10(%ebp)
c010c12c:	8b 45 08             	mov    0x8(%ebp),%eax
c010c12f:	8b 40 20             	mov    0x20(%eax),%eax
c010c132:	8b 40 04             	mov    0x4(%eax),%eax
c010c135:	39 45 f0             	cmp    %eax,-0x10(%ebp)
c010c138:	72 d6                	jb     c010c110 <delete_proc+0x99>
c010c13a:	8b 45 08             	mov    0x8(%ebp),%eax
c010c13d:	8b 40 20             	mov    0x20(%eax),%eax
c010c140:	83 ec 0c             	sub    $0xc,%esp
c010c143:	50                   	push   %eax
c010c144:	e8 d7 69 00 00       	call   c0112b20 <vect_delete>
c010c149:	83 c4 10             	add    $0x10,%esp
c010c14c:	c7 45 ec 00 00 00 00 	movl   $0x0,-0x14(%ebp)
c010c153:	eb 30                	jmp    c010c185 <delete_proc+0x10e>
c010c155:	8b 45 08             	mov    0x8(%ebp),%eax
c010c158:	8b 40 28             	mov    0x28(%eax),%eax
c010c15b:	83 ec 08             	sub    $0x8,%esp
c010c15e:	ff 75 ec             	pushl  -0x14(%ebp)
c010c161:	50                   	push   %eax
c010c162:	e8 e1 69 00 00       	call   c0112b48 <vect_get>
c010c167:	83 c4 10             	add    $0x10,%esp
c010c16a:	89 45 e0             	mov    %eax,-0x20(%ebp)
c010c16d:	83 7d e0 00          	cmpl   $0x0,-0x20(%ebp)
c010c171:	74 0e                	je     c010c181 <delete_proc+0x10a>
c010c173:	83 ec 0c             	sub    $0xc,%esp
c010c176:	ff 75 e0             	pushl  -0x20(%ebp)
c010c179:	e8 e1 04 00 00       	call   c010c65f <kevent_delete>
c010c17e:	83 c4 10             	add    $0x10,%esp
c010c181:	83 45 ec 01          	addl   $0x1,-0x14(%ebp)
c010c185:	8b 45 08             	mov    0x8(%ebp),%eax
c010c188:	8b 40 28             	mov    0x28(%eax),%eax
c010c18b:	8b 40 04             	mov    0x4(%eax),%eax
c010c18e:	39 45 ec             	cmp    %eax,-0x14(%ebp)
c010c191:	72 c2                	jb     c010c155 <delete_proc+0xde>
c010c193:	8b 45 08             	mov    0x8(%ebp),%eax
c010c196:	8b 40 28             	mov    0x28(%eax),%eax
c010c199:	83 ec 0c             	sub    $0xc,%esp
c010c19c:	50                   	push   %eax
c010c19d:	e8 7e 69 00 00       	call   c0112b20 <vect_delete>
c010c1a2:	83 c4 10             	add    $0x10,%esp
c010c1a5:	c7 45 e8 00 00 00 00 	movl   $0x0,-0x18(%ebp)
c010c1ac:	eb 30                	jmp    c010c1de <delete_proc+0x167>
c010c1ae:	8b 45 08             	mov    0x8(%ebp),%eax
c010c1b1:	8b 40 24             	mov    0x24(%eax),%eax
c010c1b4:	83 ec 08             	sub    $0x8,%esp
c010c1b7:	ff 75 e8             	pushl  -0x18(%ebp)
c010c1ba:	50                   	push   %eax
c010c1bb:	e8 88 69 00 00       	call   c0112b48 <vect_get>
c010c1c0:	83 c4 10             	add    $0x10,%esp
c010c1c3:	89 45 e4             	mov    %eax,-0x1c(%ebp)
c010c1c6:	83 7d e4 00          	cmpl   $0x0,-0x1c(%ebp)
c010c1ca:	74 0e                	je     c010c1da <delete_proc+0x163>
c010c1cc:	83 ec 0c             	sub    $0xc,%esp
c010c1cf:	ff 75 e4             	pushl  -0x1c(%ebp)
c010c1d2:	e8 a7 01 00 00       	call   c010c37e <kql_delete>
c010c1d7:	83 c4 10             	add    $0x10,%esp
c010c1da:	83 45 e8 01          	addl   $0x1,-0x18(%ebp)
c010c1de:	8b 45 08             	mov    0x8(%ebp),%eax
c010c1e1:	8b 40 24             	mov    0x24(%eax),%eax
c010c1e4:	8b 40 04             	mov    0x4(%eax),%eax
c010c1e7:	39 45 e8             	cmp    %eax,-0x18(%ebp)
c010c1ea:	72 c2                	jb     c010c1ae <delete_proc+0x137>
c010c1ec:	8b 45 08             	mov    0x8(%ebp),%eax
c010c1ef:	8b 40 24             	mov    0x24(%eax),%eax
c010c1f2:	83 ec 0c             	sub    $0xc,%esp
c010c1f5:	50                   	push   %eax
c010c1f6:	e8 25 69 00 00       	call   c0112b20 <vect_delete>
c010c1fb:	83 c4 10             	add    $0x10,%esp
c010c1fe:	8b 45 08             	mov    0x8(%ebp),%eax
c010c201:	8b 40 30             	mov    0x30(%eax),%eax
c010c204:	83 ec 0c             	sub    $0xc,%esp
c010c207:	50                   	push   %eax
c010c208:	e8 cf e6 ff ff       	call   c010a8dc <kfree>
c010c20d:	83 c4 10             	add    $0x10,%esp
c010c210:	8b 45 08             	mov    0x8(%ebp),%eax
c010c213:	8b 40 04             	mov    0x4(%eax),%eax
c010c216:	83 ec 0c             	sub    $0xc,%esp
c010c219:	50                   	push   %eax
c010c21a:	e8 5f 01 00 00       	call   c010c37e <kql_delete>
c010c21f:	83 c4 10             	add    $0x10,%esp
c010c222:	83 ec 0c             	sub    $0xc,%esp
c010c225:	ff 75 08             	pushl  0x8(%ebp)
c010c228:	e8 af e6 ff ff       	call   c010a8dc <kfree>
c010c22d:	83 c4 10             	add    $0x10,%esp
c010c230:	a1 24 60 10 c0       	mov    0xc0106024,%eax
c010c235:	83 ec 0c             	sub    $0xc,%esp
c010c238:	50                   	push   %eax
c010c239:	e8 43 02 00 00       	call   c010c481 <kql_release>
c010c23e:	83 c4 10             	add    $0x10,%esp
c010c241:	90                   	nop
c010c242:	c9                   	leave  
c010c243:	c3                   	ret    

c010c244 <kproc_wait>:
c010c244:	55                   	push   %ebp
c010c245:	89 e5                	mov    %esp,%ebp
c010c247:	83 ec 18             	sub    $0x18,%esp
c010c24a:	83 ec 0c             	sub    $0xc,%esp
c010c24d:	ff 75 08             	pushl  0x8(%ebp)
c010c250:	e8 70 f2 ff ff       	call   c010b4c5 <get_process>
c010c255:	83 c4 10             	add    $0x10,%esp
c010c258:	89 45 f4             	mov    %eax,-0xc(%ebp)
c010c25b:	8b 45 f4             	mov    -0xc(%ebp),%eax
c010c25e:	8b 40 04             	mov    0x4(%eax),%eax
c010c261:	83 ec 0c             	sub    $0xc,%esp
c010c264:	50                   	push   %eax
c010c265:	e8 61 01 00 00       	call   c010c3cb <kql_acquire>
c010c26a:	83 c4 10             	add    $0x10,%esp
c010c26d:	eb 12                	jmp    c010c281 <kproc_wait+0x3d>
c010c26f:	8b 45 f4             	mov    -0xc(%ebp),%eax
c010c272:	8b 40 1c             	mov    0x1c(%eax),%eax
c010c275:	83 ec 0c             	sub    $0xc,%esp
c010c278:	50                   	push   %eax
c010c279:	e8 28 04 00 00       	call   c010c6a6 <kevent_wait>
c010c27e:	83 c4 10             	add    $0x10,%esp
c010c281:	8b 45 f4             	mov    -0xc(%ebp),%eax
c010c284:	8b 40 14             	mov    0x14(%eax),%eax
c010c287:	83 f8 02             	cmp    $0x2,%eax
c010c28a:	75 e3                	jne    c010c26f <kproc_wait+0x2b>
c010c28c:	8b 45 f4             	mov    -0xc(%ebp),%eax
c010c28f:	8b 40 18             	mov    0x18(%eax),%eax
c010c292:	89 45 f0             	mov    %eax,-0x10(%ebp)
c010c295:	83 ec 0c             	sub    $0xc,%esp
c010c298:	ff 75 f4             	pushl  -0xc(%ebp)
c010c29b:	e8 d7 fd ff ff       	call   c010c077 <delete_proc>
c010c2a0:	83 c4 10             	add    $0x10,%esp
c010c2a3:	8b 45 f0             	mov    -0x10(%ebp),%eax
c010c2a6:	c9                   	leave  
c010c2a7:	c3                   	ret    

c010c2a8 <exec_jump_asm>:
c010c2a8:	fa                   	cli    
c010c2a9:	55                   	push   %ebp
c010c2aa:	89 e5                	mov    %esp,%ebp
c010c2ac:	6a 23                	push   $0x23
c010c2ae:	ff 75 0c             	pushl  0xc(%ebp)
c010c2b1:	9c                   	pushf  
c010c2b2:	66 81 0c 24 00 02    	orw    $0x200,(%esp)
c010c2b8:	6a 1b                	push   $0x1b
c010c2ba:	ff 75 08             	pushl  0x8(%ebp)
c010c2bd:	66 b8 23 00          	mov    $0x23,%ax
c010c2c1:	8e d8                	mov    %eax,%ds
c010c2c3:	8e c0                	mov    %eax,%es
c010c2c5:	8e e0                	mov    %eax,%fs
c010c2c7:	8e e8                	mov    %eax,%gs
c010c2c9:	cf                   	iret   

c010c2ca <str>:
c010c2ca:	25                   	.byte 0x25
c010c2cb:	78 0a                	js     c010c2d7 <ksl_create+0x9>
	...

c010c2ce <ksl_create>:
c010c2ce:	55                   	push   %ebp
c010c2cf:	89 e5                	mov    %esp,%ebp
c010c2d1:	83 ec 18             	sub    $0x18,%esp
c010c2d4:	83 ec 0c             	sub    $0xc,%esp
c010c2d7:	6a 04                	push   $0x4
c010c2d9:	e8 12 e5 ff ff       	call   c010a7f0 <kmalloc>
c010c2de:	83 c4 10             	add    $0x10,%esp
c010c2e1:	89 45 f4             	mov    %eax,-0xc(%ebp)
c010c2e4:	8b 45 f4             	mov    -0xc(%ebp),%eax
c010c2e7:	c7 00 00 00 00 00    	movl   $0x0,(%eax)
c010c2ed:	8b 45 f4             	mov    -0xc(%ebp),%eax
c010c2f0:	c9                   	leave  
c010c2f1:	c3                   	ret    

c010c2f2 <ksl_delete>:
c010c2f2:	55                   	push   %ebp
c010c2f3:	89 e5                	mov    %esp,%ebp
c010c2f5:	83 ec 08             	sub    $0x8,%esp
c010c2f8:	83 ec 0c             	sub    $0xc,%esp
c010c2fb:	ff 75 08             	pushl  0x8(%ebp)
c010c2fe:	e8 d9 e5 ff ff       	call   c010a8dc <kfree>
c010c303:	83 c4 10             	add    $0x10,%esp
c010c306:	90                   	nop
c010c307:	c9                   	leave  
c010c308:	c3                   	ret    

c010c309 <ksl_acquire>:
c010c309:	55                   	push   %ebp
c010c30a:	89 e5                	mov    %esp,%ebp
c010c30c:	eb 0a                	jmp    c010c318 <ksl_acquire+0xf>
c010c30e:	90                   	nop
c010c30f:	8b 45 08             	mov    0x8(%ebp),%eax
c010c312:	8b 00                	mov    (%eax),%eax
c010c314:	85 c0                	test   %eax,%eax
c010c316:	75 f7                	jne    c010c30f <ksl_acquire+0x6>
c010c318:	8b 55 08             	mov    0x8(%ebp),%edx
c010c31b:	b8 01 00 00 00       	mov    $0x1,%eax
c010c320:	87 02                	xchg   %eax,(%edx)
c010c322:	85 c0                	test   %eax,%eax
c010c324:	75 e8                	jne    c010c30e <ksl_acquire+0x5>
c010c326:	90                   	nop
c010c327:	90                   	nop
c010c328:	5d                   	pop    %ebp
c010c329:	c3                   	ret    

c010c32a <ksl_release>:
c010c32a:	55                   	push   %ebp
c010c32b:	89 e5                	mov    %esp,%ebp
c010c32d:	8b 45 08             	mov    0x8(%ebp),%eax
c010c330:	ba 00 00 00 00       	mov    $0x0,%edx
c010c335:	89 10                	mov    %edx,(%eax)
c010c337:	90                   	nop
c010c338:	5d                   	pop    %ebp
c010c339:	c3                   	ret    

c010c33a <kql_create>:
c010c33a:	55                   	push   %ebp
c010c33b:	89 e5                	mov    %esp,%ebp
c010c33d:	83 ec 18             	sub    $0x18,%esp
c010c340:	83 ec 0c             	sub    $0xc,%esp
c010c343:	6a 10                	push   $0x10
c010c345:	e8 a6 e4 ff ff       	call   c010a7f0 <kmalloc>
c010c34a:	83 c4 10             	add    $0x10,%esp
c010c34d:	89 45 f4             	mov    %eax,-0xc(%ebp)
c010c350:	8b 45 f4             	mov    -0xc(%ebp),%eax
c010c353:	c7 00 00 00 00 00    	movl   $0x0,(%eax)
c010c359:	e8 0f 61 00 00       	call   c011246d <list_create>
c010c35e:	8b 55 f4             	mov    -0xc(%ebp),%edx
c010c361:	89 42 04             	mov    %eax,0x4(%edx)
c010c364:	e8 65 ff ff ff       	call   c010c2ce <ksl_create>
c010c369:	8b 55 f4             	mov    -0xc(%ebp),%edx
c010c36c:	89 42 08             	mov    %eax,0x8(%edx)
c010c36f:	8b 45 f4             	mov    -0xc(%ebp),%eax
c010c372:	c7 40 0c 00 00 00 00 	movl   $0x0,0xc(%eax)
c010c379:	8b 45 f4             	mov    -0xc(%ebp),%eax
c010c37c:	c9                   	leave  
c010c37d:	c3                   	ret    

c010c37e <kql_delete>:
c010c37e:	55                   	push   %ebp
c010c37f:	89 e5                	mov    %esp,%ebp
c010c381:	83 ec 08             	sub    $0x8,%esp
c010c384:	8b 45 08             	mov    0x8(%ebp),%eax
c010c387:	8b 40 08             	mov    0x8(%eax),%eax
c010c38a:	83 ec 0c             	sub    $0xc,%esp
c010c38d:	50                   	push   %eax
c010c38e:	e8 76 ff ff ff       	call   c010c309 <ksl_acquire>
c010c393:	83 c4 10             	add    $0x10,%esp
c010c396:	8b 45 08             	mov    0x8(%ebp),%eax
c010c399:	8b 40 04             	mov    0x4(%eax),%eax
c010c39c:	83 ec 0c             	sub    $0xc,%esp
c010c39f:	50                   	push   %eax
c010c3a0:	e8 f8 60 00 00       	call   c011249d <list_delete>
c010c3a5:	83 c4 10             	add    $0x10,%esp
c010c3a8:	8b 45 08             	mov    0x8(%ebp),%eax
c010c3ab:	8b 40 08             	mov    0x8(%eax),%eax
c010c3ae:	83 ec 0c             	sub    $0xc,%esp
c010c3b1:	50                   	push   %eax
c010c3b2:	e8 3b ff ff ff       	call   c010c2f2 <ksl_delete>
c010c3b7:	83 c4 10             	add    $0x10,%esp
c010c3ba:	83 ec 0c             	sub    $0xc,%esp
c010c3bd:	ff 75 08             	pushl  0x8(%ebp)
c010c3c0:	e8 17 e5 ff ff       	call   c010a8dc <kfree>
c010c3c5:	83 c4 10             	add    $0x10,%esp
c010c3c8:	90                   	nop
c010c3c9:	c9                   	leave  
c010c3ca:	c3                   	ret    

c010c3cb <kql_acquire>:
c010c3cb:	55                   	push   %ebp
c010c3cc:	89 e5                	mov    %esp,%ebp
c010c3ce:	53                   	push   %ebx
c010c3cf:	83 ec 04             	sub    $0x4,%esp
c010c3d2:	8b 45 08             	mov    0x8(%ebp),%eax
c010c3d5:	8b 40 08             	mov    0x8(%eax),%eax
c010c3d8:	83 ec 0c             	sub    $0xc,%esp
c010c3db:	50                   	push   %eax
c010c3dc:	e8 28 ff ff ff       	call   c010c309 <ksl_acquire>
c010c3e1:	83 c4 10             	add    $0x10,%esp
c010c3e4:	8b 45 08             	mov    0x8(%ebp),%eax
c010c3e7:	8b 00                	mov    (%eax),%eax
c010c3e9:	85 c0                	test   %eax,%eax
c010c3eb:	7e 5c                	jle    c010c449 <kql_acquire+0x7e>
c010c3ed:	8b 45 08             	mov    0x8(%ebp),%eax
c010c3f0:	8b 58 0c             	mov    0xc(%eax),%ebx
c010c3f3:	e8 61 e5 ff ff       	call   c010a959 <curr_thread>
c010c3f8:	8b 00                	mov    (%eax),%eax
c010c3fa:	39 c3                	cmp    %eax,%ebx
c010c3fc:	75 4b                	jne    c010c449 <kql_acquire+0x7e>
c010c3fe:	8b 45 08             	mov    0x8(%ebp),%eax
c010c401:	8b 00                	mov    (%eax),%eax
c010c403:	8d 50 01             	lea    0x1(%eax),%edx
c010c406:	8b 45 08             	mov    0x8(%ebp),%eax
c010c409:	89 10                	mov    %edx,(%eax)
c010c40b:	eb 5c                	jmp    c010c469 <kql_acquire+0x9e>
c010c40d:	e8 47 e5 ff ff       	call   c010a959 <curr_thread>
c010c412:	8b 55 08             	mov    0x8(%ebp),%edx
c010c415:	8b 52 04             	mov    0x4(%edx),%edx
c010c418:	83 ec 08             	sub    $0x8,%esp
c010c41b:	50                   	push   %eax
c010c41c:	52                   	push   %edx
c010c41d:	e8 36 61 00 00       	call   c0112558 <list_add_back>
c010c422:	83 c4 10             	add    $0x10,%esp
c010c425:	8b 45 08             	mov    0x8(%ebp),%eax
c010c428:	8b 40 08             	mov    0x8(%eax),%eax
c010c42b:	83 ec 0c             	sub    $0xc,%esp
c010c42e:	50                   	push   %eax
c010c42f:	e8 52 ea ff ff       	call   c010ae86 <sched_suspend_and_release_spinlock>
c010c434:	83 c4 10             	add    $0x10,%esp
c010c437:	8b 45 08             	mov    0x8(%ebp),%eax
c010c43a:	8b 40 08             	mov    0x8(%eax),%eax
c010c43d:	83 ec 0c             	sub    $0xc,%esp
c010c440:	50                   	push   %eax
c010c441:	e8 c3 fe ff ff       	call   c010c309 <ksl_acquire>
c010c446:	83 c4 10             	add    $0x10,%esp
c010c449:	8b 45 08             	mov    0x8(%ebp),%eax
c010c44c:	8b 00                	mov    (%eax),%eax
c010c44e:	83 f8 01             	cmp    $0x1,%eax
c010c451:	74 ba                	je     c010c40d <kql_acquire+0x42>
c010c453:	8b 45 08             	mov    0x8(%ebp),%eax
c010c456:	c7 00 01 00 00 00    	movl   $0x1,(%eax)
c010c45c:	e8 f8 e4 ff ff       	call   c010a959 <curr_thread>
c010c461:	8b 10                	mov    (%eax),%edx
c010c463:	8b 45 08             	mov    0x8(%ebp),%eax
c010c466:	89 50 0c             	mov    %edx,0xc(%eax)
c010c469:	8b 45 08             	mov    0x8(%ebp),%eax
c010c46c:	8b 40 08             	mov    0x8(%eax),%eax
c010c46f:	83 ec 0c             	sub    $0xc,%esp
c010c472:	50                   	push   %eax
c010c473:	e8 b2 fe ff ff       	call   c010c32a <ksl_release>
c010c478:	83 c4 10             	add    $0x10,%esp
c010c47b:	90                   	nop
c010c47c:	8b 5d fc             	mov    -0x4(%ebp),%ebx
c010c47f:	c9                   	leave  
c010c480:	c3                   	ret    

c010c481 <kql_release>:
c010c481:	55                   	push   %ebp
c010c482:	89 e5                	mov    %esp,%ebp
c010c484:	53                   	push   %ebx
c010c485:	83 ec 14             	sub    $0x14,%esp
c010c488:	8b 45 08             	mov    0x8(%ebp),%eax
c010c48b:	8b 40 08             	mov    0x8(%eax),%eax
c010c48e:	83 ec 0c             	sub    $0xc,%esp
c010c491:	50                   	push   %eax
c010c492:	e8 72 fe ff ff       	call   c010c309 <ksl_acquire>
c010c497:	83 c4 10             	add    $0x10,%esp
c010c49a:	8b 45 08             	mov    0x8(%ebp),%eax
c010c49d:	8b 00                	mov    (%eax),%eax
c010c49f:	85 c0                	test   %eax,%eax
c010c4a1:	75 10                	jne    c010c4b3 <kql_release+0x32>
c010c4a3:	83 ec 0c             	sub    $0xc,%esp
c010c4a6:	68 c8 34 11 c0       	push   $0xc01134c8
c010c4ab:	e8 f3 5c 00 00       	call   c01121a3 <panic>
c010c4b0:	83 c4 10             	add    $0x10,%esp
c010c4b3:	8b 45 08             	mov    0x8(%ebp),%eax
c010c4b6:	8b 58 0c             	mov    0xc(%eax),%ebx
c010c4b9:	e8 9b e4 ff ff       	call   c010a959 <curr_thread>
c010c4be:	8b 00                	mov    (%eax),%eax
c010c4c0:	39 c3                	cmp    %eax,%ebx
c010c4c2:	74 10                	je     c010c4d4 <kql_release+0x53>
c010c4c4:	83 ec 0c             	sub    $0xc,%esp
c010c4c7:	68 f0 34 11 c0       	push   $0xc01134f0
c010c4cc:	e8 d2 5c 00 00       	call   c01121a3 <panic>
c010c4d1:	83 c4 10             	add    $0x10,%esp
c010c4d4:	8b 45 08             	mov    0x8(%ebp),%eax
c010c4d7:	8b 00                	mov    (%eax),%eax
c010c4d9:	8d 50 ff             	lea    -0x1(%eax),%edx
c010c4dc:	8b 45 08             	mov    0x8(%ebp),%eax
c010c4df:	89 10                	mov    %edx,(%eax)
c010c4e1:	8b 45 08             	mov    0x8(%ebp),%eax
c010c4e4:	8b 00                	mov    (%eax),%eax
c010c4e6:	85 c0                	test   %eax,%eax
c010c4e8:	75 3c                	jne    c010c526 <kql_release+0xa5>
c010c4ea:	8b 45 08             	mov    0x8(%ebp),%eax
c010c4ed:	8b 40 04             	mov    0x4(%eax),%eax
c010c4f0:	83 ec 0c             	sub    $0xc,%esp
c010c4f3:	50                   	push   %eax
c010c4f4:	e8 e8 5f 00 00       	call   c01124e1 <list_empty>
c010c4f9:	83 c4 10             	add    $0x10,%esp
c010c4fc:	83 f0 01             	xor    $0x1,%eax
c010c4ff:	84 c0                	test   %al,%al
c010c501:	74 23                	je     c010c526 <kql_release+0xa5>
c010c503:	8b 45 08             	mov    0x8(%ebp),%eax
c010c506:	8b 40 04             	mov    0x4(%eax),%eax
c010c509:	83 ec 0c             	sub    $0xc,%esp
c010c50c:	50                   	push   %eax
c010c50d:	e8 b1 60 00 00       	call   c01125c3 <list_pop_front>
c010c512:	83 c4 10             	add    $0x10,%esp
c010c515:	89 45 f4             	mov    %eax,-0xc(%ebp)
c010c518:	83 ec 0c             	sub    $0xc,%esp
c010c51b:	ff 75 f4             	pushl  -0xc(%ebp)
c010c51e:	e8 75 e7 ff ff       	call   c010ac98 <sched_wake_up>
c010c523:	83 c4 10             	add    $0x10,%esp
c010c526:	8b 45 08             	mov    0x8(%ebp),%eax
c010c529:	8b 40 08             	mov    0x8(%eax),%eax
c010c52c:	83 ec 0c             	sub    $0xc,%esp
c010c52f:	50                   	push   %eax
c010c530:	e8 f5 fd ff ff       	call   c010c32a <ksl_release>
c010c535:	83 c4 10             	add    $0x10,%esp
c010c538:	90                   	nop
c010c539:	8b 5d fc             	mov    -0x4(%ebp),%ebx
c010c53c:	c9                   	leave  
c010c53d:	c3                   	ret    

c010c53e <kql_is_held>:
c010c53e:	55                   	push   %ebp
c010c53f:	89 e5                	mov    %esp,%ebp
c010c541:	53                   	push   %ebx
c010c542:	83 ec 14             	sub    $0x14,%esp
c010c545:	8b 45 08             	mov    0x8(%ebp),%eax
c010c548:	8b 40 08             	mov    0x8(%eax),%eax
c010c54b:	83 ec 0c             	sub    $0xc,%esp
c010c54e:	50                   	push   %eax
c010c54f:	e8 b5 fd ff ff       	call   c010c309 <ksl_acquire>
c010c554:	83 c4 10             	add    $0x10,%esp
c010c557:	8b 45 08             	mov    0x8(%ebp),%eax
c010c55a:	8b 00                	mov    (%eax),%eax
c010c55c:	85 c0                	test   %eax,%eax
c010c55e:	7e 18                	jle    c010c578 <kql_is_held+0x3a>
c010c560:	8b 45 08             	mov    0x8(%ebp),%eax
c010c563:	8b 58 0c             	mov    0xc(%eax),%ebx
c010c566:	e8 ee e3 ff ff       	call   c010a959 <curr_thread>
c010c56b:	8b 00                	mov    (%eax),%eax
c010c56d:	39 c3                	cmp    %eax,%ebx
c010c56f:	75 07                	jne    c010c578 <kql_is_held+0x3a>
c010c571:	b8 01 00 00 00       	mov    $0x1,%eax
c010c576:	eb 05                	jmp    c010c57d <kql_is_held+0x3f>
c010c578:	b8 00 00 00 00       	mov    $0x0,%eax
c010c57d:	88 45 f7             	mov    %al,-0x9(%ebp)
c010c580:	80 65 f7 01          	andb   $0x1,-0x9(%ebp)
c010c584:	8b 45 08             	mov    0x8(%ebp),%eax
c010c587:	8b 40 08             	mov    0x8(%eax),%eax
c010c58a:	83 ec 0c             	sub    $0xc,%esp
c010c58d:	50                   	push   %eax
c010c58e:	e8 97 fd ff ff       	call   c010c32a <ksl_release>
c010c593:	83 c4 10             	add    $0x10,%esp
c010c596:	0f b6 45 f7          	movzbl -0x9(%ebp),%eax
c010c59a:	8b 5d fc             	mov    -0x4(%ebp),%ebx
c010c59d:	c9                   	leave  
c010c59e:	c3                   	ret    

c010c59f <add_waiting>:
c010c59f:	55                   	push   %ebp
c010c5a0:	89 e5                	mov    %esp,%ebp
c010c5a2:	83 ec 08             	sub    $0x8,%esp
c010c5a5:	8b 45 08             	mov    0x8(%ebp),%eax
c010c5a8:	8b 00                	mov    (%eax),%eax
c010c5aa:	83 ec 08             	sub    $0x8,%esp
c010c5ad:	ff 75 0c             	pushl  0xc(%ebp)
c010c5b0:	50                   	push   %eax
c010c5b1:	e8 a2 5f 00 00       	call   c0112558 <list_add_back>
c010c5b6:	83 c4 10             	add    $0x10,%esp
c010c5b9:	90                   	nop
c010c5ba:	c9                   	leave  
c010c5bb:	c3                   	ret    

c010c5bc <has_waiting>:
c010c5bc:	55                   	push   %ebp
c010c5bd:	89 e5                	mov    %esp,%ebp
c010c5bf:	83 ec 08             	sub    $0x8,%esp
c010c5c2:	8b 45 08             	mov    0x8(%ebp),%eax
c010c5c5:	8b 00                	mov    (%eax),%eax
c010c5c7:	83 ec 0c             	sub    $0xc,%esp
c010c5ca:	50                   	push   %eax
c010c5cb:	e8 11 5f 00 00       	call   c01124e1 <list_empty>
c010c5d0:	83 c4 10             	add    $0x10,%esp
c010c5d3:	0f b6 c0             	movzbl %al,%eax
c010c5d6:	85 c0                	test   %eax,%eax
c010c5d8:	0f 95 c0             	setne  %al
c010c5db:	83 f0 01             	xor    $0x1,%eax
c010c5de:	0f b6 c0             	movzbl %al,%eax
c010c5e1:	83 e0 01             	and    $0x1,%eax
c010c5e4:	c9                   	leave  
c010c5e5:	c3                   	ret    

c010c5e6 <pop_waiting>:
c010c5e6:	55                   	push   %ebp
c010c5e7:	89 e5                	mov    %esp,%ebp
c010c5e9:	83 ec 08             	sub    $0x8,%esp
c010c5ec:	8b 45 08             	mov    0x8(%ebp),%eax
c010c5ef:	8b 00                	mov    (%eax),%eax
c010c5f1:	83 ec 0c             	sub    $0xc,%esp
c010c5f4:	50                   	push   %eax
c010c5f5:	e8 c9 5f 00 00       	call   c01125c3 <list_pop_front>
c010c5fa:	83 c4 10             	add    $0x10,%esp
c010c5fd:	c9                   	leave  
c010c5fe:	c3                   	ret    

c010c5ff <check_monitor>:
c010c5ff:	55                   	push   %ebp
c010c600:	89 e5                	mov    %esp,%ebp
c010c602:	83 ec 08             	sub    $0x8,%esp
c010c605:	8b 45 08             	mov    0x8(%ebp),%eax
c010c608:	8b 40 04             	mov    0x4(%eax),%eax
c010c60b:	83 ec 0c             	sub    $0xc,%esp
c010c60e:	50                   	push   %eax
c010c60f:	e8 2a ff ff ff       	call   c010c53e <kql_is_held>
c010c614:	83 c4 10             	add    $0x10,%esp
c010c617:	83 f0 01             	xor    $0x1,%eax
c010c61a:	84 c0                	test   %al,%al
c010c61c:	74 10                	je     c010c62e <check_monitor+0x2f>
c010c61e:	83 ec 0c             	sub    $0xc,%esp
c010c621:	68 18 35 11 c0       	push   $0xc0113518
c010c626:	e8 78 5b 00 00       	call   c01121a3 <panic>
c010c62b:	83 c4 10             	add    $0x10,%esp
c010c62e:	90                   	nop
c010c62f:	c9                   	leave  
c010c630:	c3                   	ret    

c010c631 <kevent_create>:
c010c631:	55                   	push   %ebp
c010c632:	89 e5                	mov    %esp,%ebp
c010c634:	83 ec 18             	sub    $0x18,%esp
c010c637:	83 ec 0c             	sub    $0xc,%esp
c010c63a:	6a 08                	push   $0x8
c010c63c:	e8 af e1 ff ff       	call   c010a7f0 <kmalloc>
c010c641:	83 c4 10             	add    $0x10,%esp
c010c644:	89 45 f4             	mov    %eax,-0xc(%ebp)
c010c647:	e8 21 5e 00 00       	call   c011246d <list_create>
c010c64c:	8b 55 f4             	mov    -0xc(%ebp),%edx
c010c64f:	89 02                	mov    %eax,(%edx)
c010c651:	8b 45 f4             	mov    -0xc(%ebp),%eax
c010c654:	8b 55 08             	mov    0x8(%ebp),%edx
c010c657:	89 50 04             	mov    %edx,0x4(%eax)
c010c65a:	8b 45 f4             	mov    -0xc(%ebp),%eax
c010c65d:	c9                   	leave  
c010c65e:	c3                   	ret    

c010c65f <kevent_delete>:
c010c65f:	55                   	push   %ebp
c010c660:	89 e5                	mov    %esp,%ebp
c010c662:	83 ec 08             	sub    $0x8,%esp
c010c665:	83 ec 0c             	sub    $0xc,%esp
c010c668:	ff 75 08             	pushl  0x8(%ebp)
c010c66b:	e8 8f ff ff ff       	call   c010c5ff <check_monitor>
c010c670:	83 c4 10             	add    $0x10,%esp
c010c673:	83 ec 0c             	sub    $0xc,%esp
c010c676:	ff 75 08             	pushl  0x8(%ebp)
c010c679:	e8 3e ff ff ff       	call   c010c5bc <has_waiting>
c010c67e:	83 c4 10             	add    $0x10,%esp
c010c681:	84 c0                	test   %al,%al
c010c683:	74 10                	je     c010c695 <kevent_delete+0x36>
c010c685:	83 ec 0c             	sub    $0xc,%esp
c010c688:	68 5c 35 11 c0       	push   $0xc011355c
c010c68d:	e8 11 5b 00 00       	call   c01121a3 <panic>
c010c692:	83 c4 10             	add    $0x10,%esp
c010c695:	83 ec 0c             	sub    $0xc,%esp
c010c698:	ff 75 08             	pushl  0x8(%ebp)
c010c69b:	e8 3c e2 ff ff       	call   c010a8dc <kfree>
c010c6a0:	83 c4 10             	add    $0x10,%esp
c010c6a3:	90                   	nop
c010c6a4:	c9                   	leave  
c010c6a5:	c3                   	ret    

c010c6a6 <kevent_wait>:
c010c6a6:	55                   	push   %ebp
c010c6a7:	89 e5                	mov    %esp,%ebp
c010c6a9:	83 ec 08             	sub    $0x8,%esp
c010c6ac:	83 ec 0c             	sub    $0xc,%esp
c010c6af:	ff 75 08             	pushl  0x8(%ebp)
c010c6b2:	e8 48 ff ff ff       	call   c010c5ff <check_monitor>
c010c6b7:	83 c4 10             	add    $0x10,%esp
c010c6ba:	e8 9a e2 ff ff       	call   c010a959 <curr_thread>
c010c6bf:	83 ec 08             	sub    $0x8,%esp
c010c6c2:	50                   	push   %eax
c010c6c3:	ff 75 08             	pushl  0x8(%ebp)
c010c6c6:	e8 d4 fe ff ff       	call   c010c59f <add_waiting>
c010c6cb:	83 c4 10             	add    $0x10,%esp
c010c6ce:	8b 45 08             	mov    0x8(%ebp),%eax
c010c6d1:	8b 40 04             	mov    0x4(%eax),%eax
c010c6d4:	83 ec 0c             	sub    $0xc,%esp
c010c6d7:	50                   	push   %eax
c010c6d8:	e8 57 e8 ff ff       	call   c010af34 <sched_suspend_and_release_queuelock>
c010c6dd:	83 c4 10             	add    $0x10,%esp
c010c6e0:	8b 45 08             	mov    0x8(%ebp),%eax
c010c6e3:	8b 40 04             	mov    0x4(%eax),%eax
c010c6e6:	83 ec 0c             	sub    $0xc,%esp
c010c6e9:	50                   	push   %eax
c010c6ea:	e8 dc fc ff ff       	call   c010c3cb <kql_acquire>
c010c6ef:	83 c4 10             	add    $0x10,%esp
c010c6f2:	90                   	nop
c010c6f3:	c9                   	leave  
c010c6f4:	c3                   	ret    

c010c6f5 <kevent_signal>:
c010c6f5:	55                   	push   %ebp
c010c6f6:	89 e5                	mov    %esp,%ebp
c010c6f8:	83 ec 18             	sub    $0x18,%esp
c010c6fb:	83 ec 0c             	sub    $0xc,%esp
c010c6fe:	ff 75 08             	pushl  0x8(%ebp)
c010c701:	e8 f9 fe ff ff       	call   c010c5ff <check_monitor>
c010c706:	83 c4 10             	add    $0x10,%esp
c010c709:	83 ec 0c             	sub    $0xc,%esp
c010c70c:	ff 75 08             	pushl  0x8(%ebp)
c010c70f:	e8 a8 fe ff ff       	call   c010c5bc <has_waiting>
c010c714:	83 c4 10             	add    $0x10,%esp
c010c717:	84 c0                	test   %al,%al
c010c719:	74 1f                	je     c010c73a <kevent_signal+0x45>
c010c71b:	83 ec 0c             	sub    $0xc,%esp
c010c71e:	ff 75 08             	pushl  0x8(%ebp)
c010c721:	e8 c0 fe ff ff       	call   c010c5e6 <pop_waiting>
c010c726:	83 c4 10             	add    $0x10,%esp
c010c729:	89 45 f4             	mov    %eax,-0xc(%ebp)
c010c72c:	83 ec 0c             	sub    $0xc,%esp
c010c72f:	ff 75 f4             	pushl  -0xc(%ebp)
c010c732:	e8 61 e5 ff ff       	call   c010ac98 <sched_wake_up>
c010c737:	83 c4 10             	add    $0x10,%esp
c010c73a:	90                   	nop
c010c73b:	c9                   	leave  
c010c73c:	c3                   	ret    

c010c73d <kevent_broadcast>:
c010c73d:	55                   	push   %ebp
c010c73e:	89 e5                	mov    %esp,%ebp
c010c740:	83 ec 18             	sub    $0x18,%esp
c010c743:	83 ec 0c             	sub    $0xc,%esp
c010c746:	ff 75 08             	pushl  0x8(%ebp)
c010c749:	e8 b1 fe ff ff       	call   c010c5ff <check_monitor>
c010c74e:	83 c4 10             	add    $0x10,%esp
c010c751:	eb 1f                	jmp    c010c772 <kevent_broadcast+0x35>
c010c753:	83 ec 0c             	sub    $0xc,%esp
c010c756:	ff 75 08             	pushl  0x8(%ebp)
c010c759:	e8 88 fe ff ff       	call   c010c5e6 <pop_waiting>
c010c75e:	83 c4 10             	add    $0x10,%esp
c010c761:	89 45 f4             	mov    %eax,-0xc(%ebp)
c010c764:	83 ec 0c             	sub    $0xc,%esp
c010c767:	ff 75 f4             	pushl  -0xc(%ebp)
c010c76a:	e8 29 e5 ff ff       	call   c010ac98 <sched_wake_up>
c010c76f:	83 c4 10             	add    $0x10,%esp
c010c772:	83 ec 0c             	sub    $0xc,%esp
c010c775:	ff 75 08             	pushl  0x8(%ebp)
c010c778:	e8 3f fe ff ff       	call   c010c5bc <has_waiting>
c010c77d:	83 c4 10             	add    $0x10,%esp
c010c780:	84 c0                	test   %al,%al
c010c782:	75 cf                	jne    c010c753 <kevent_broadcast+0x16>
c010c784:	90                   	nop
c010c785:	90                   	nop
c010c786:	c9                   	leave  
c010c787:	c3                   	ret    

c010c788 <valid_header>:
c010c788:	55                   	push   %ebp
c010c789:	89 e5                	mov    %esp,%ebp
c010c78b:	8b 45 08             	mov    0x8(%ebp),%eax
c010c78e:	0f b6 00             	movzbl (%eax),%eax
c010c791:	3c 7f                	cmp    $0x7f,%al
c010c793:	75 28                	jne    c010c7bd <valid_header+0x35>
c010c795:	8b 45 08             	mov    0x8(%ebp),%eax
c010c798:	0f b6 40 01          	movzbl 0x1(%eax),%eax
c010c79c:	3c 45                	cmp    $0x45,%al
c010c79e:	75 1d                	jne    c010c7bd <valid_header+0x35>
c010c7a0:	8b 45 08             	mov    0x8(%ebp),%eax
c010c7a3:	0f b6 40 02          	movzbl 0x2(%eax),%eax
c010c7a7:	3c 4c                	cmp    $0x4c,%al
c010c7a9:	75 12                	jne    c010c7bd <valid_header+0x35>
c010c7ab:	8b 45 08             	mov    0x8(%ebp),%eax
c010c7ae:	0f b6 40 03          	movzbl 0x3(%eax),%eax
c010c7b2:	3c 46                	cmp    $0x46,%al
c010c7b4:	75 07                	jne    c010c7bd <valid_header+0x35>
c010c7b6:	b8 01 00 00 00       	mov    $0x1,%eax
c010c7bb:	eb 05                	jmp    c010c7c2 <valid_header+0x3a>
c010c7bd:	b8 00 00 00 00       	mov    $0x0,%eax
c010c7c2:	5d                   	pop    %ebp
c010c7c3:	c3                   	ret    

c010c7c4 <max>:
c010c7c4:	55                   	push   %ebp
c010c7c5:	89 e5                	mov    %esp,%ebp
c010c7c7:	8b 45 08             	mov    0x8(%ebp),%eax
c010c7ca:	39 45 0c             	cmp    %eax,0xc(%ebp)
c010c7cd:	0f 43 45 0c          	cmovae 0xc(%ebp),%eax
c010c7d1:	5d                   	pop    %ebp
c010c7d2:	c3                   	ret    

c010c7d3 <load_program>:
c010c7d3:	55                   	push   %ebp
c010c7d4:	89 e5                	mov    %esp,%ebp
c010c7d6:	53                   	push   %ebx
c010c7d7:	83 ec 24             	sub    $0x24,%esp
c010c7da:	83 ec 08             	sub    $0x8,%esp
c010c7dd:	8d 45 e0             	lea    -0x20(%ebp),%eax
c010c7e0:	50                   	push   %eax
c010c7e1:	ff 75 08             	pushl  0x8(%ebp)
c010c7e4:	e8 bd 31 00 00       	call   c010f9a6 <fs_find_inode>
c010c7e9:	83 c4 10             	add    $0x10,%esp
c010c7ec:	89 45 ec             	mov    %eax,-0x14(%ebp)
c010c7ef:	83 7d ec 00          	cmpl   $0x0,-0x14(%ebp)
c010c7f3:	79 10                	jns    c010c805 <load_program+0x32>
c010c7f5:	83 ec 0c             	sub    $0xc,%esp
c010c7f8:	68 94 35 11 c0       	push   $0xc0113594
c010c7fd:	e8 a1 59 00 00       	call   c01121a3 <panic>
c010c802:	83 c4 10             	add    $0x10,%esp
c010c805:	83 ec 0c             	sub    $0xc,%esp
c010c808:	6a 34                	push   $0x34
c010c80a:	e8 e1 df ff ff       	call   c010a7f0 <kmalloc>
c010c80f:	83 c4 10             	add    $0x10,%esp
c010c812:	89 45 e8             	mov    %eax,-0x18(%ebp)
c010c815:	8b 45 e0             	mov    -0x20(%ebp),%eax
c010c818:	ff 75 e8             	pushl  -0x18(%ebp)
c010c81b:	6a 34                	push   $0x34
c010c81d:	6a 00                	push   $0x0
c010c81f:	50                   	push   %eax
c010c820:	e8 ec 36 00 00       	call   c010ff11 <fs_read_file>
c010c825:	83 c4 10             	add    $0x10,%esp
c010c828:	89 45 ec             	mov    %eax,-0x14(%ebp)
c010c82b:	83 7d ec 00          	cmpl   $0x0,-0x14(%ebp)
c010c82f:	79 10                	jns    c010c841 <load_program+0x6e>
c010c831:	83 ec 0c             	sub    $0xc,%esp
c010c834:	68 c4 35 11 c0       	push   $0xc01135c4
c010c839:	e8 65 59 00 00       	call   c01121a3 <panic>
c010c83e:	83 c4 10             	add    $0x10,%esp
c010c841:	83 ec 0c             	sub    $0xc,%esp
c010c844:	ff 75 e8             	pushl  -0x18(%ebp)
c010c847:	e8 3c ff ff ff       	call   c010c788 <valid_header>
c010c84c:	83 c4 10             	add    $0x10,%esp
c010c84f:	83 f0 01             	xor    $0x1,%eax
c010c852:	84 c0                	test   %al,%al
c010c854:	74 10                	je     c010c866 <load_program+0x93>
c010c856:	83 ec 0c             	sub    $0xc,%esp
c010c859:	68 ec 35 11 c0       	push   $0xc01135ec
c010c85e:	e8 40 59 00 00       	call   c01121a3 <panic>
c010c863:	83 c4 10             	add    $0x10,%esp
c010c866:	8b 45 e8             	mov    -0x18(%ebp),%eax
c010c869:	0f b7 40 10          	movzwl 0x10(%eax),%eax
c010c86d:	66 83 f8 02          	cmp    $0x2,%ax
c010c871:	74 10                	je     c010c883 <load_program+0xb0>
c010c873:	83 ec 0c             	sub    $0xc,%esp
c010c876:	68 0c 36 11 c0       	push   $0xc011360c
c010c87b:	e8 23 59 00 00       	call   c01121a3 <panic>
c010c880:	83 c4 10             	add    $0x10,%esp
c010c883:	c7 45 f4 00 00 00 00 	movl   $0x0,-0xc(%ebp)
c010c88a:	c7 45 f0 00 00 00 00 	movl   $0x0,-0x10(%ebp)
c010c891:	e9 ea 00 00 00       	jmp    c010c980 <load_program+0x1ad>
c010c896:	83 ec 0c             	sub    $0xc,%esp
c010c899:	6a 20                	push   $0x20
c010c89b:	e8 50 df ff ff       	call   c010a7f0 <kmalloc>
c010c8a0:	83 c4 10             	add    $0x10,%esp
c010c8a3:	89 45 e4             	mov    %eax,-0x1c(%ebp)
c010c8a6:	8b 45 e8             	mov    -0x18(%ebp),%eax
c010c8a9:	8b 50 1c             	mov    0x1c(%eax),%edx
c010c8ac:	8b 45 e8             	mov    -0x18(%ebp),%eax
c010c8af:	0f b7 40 2a          	movzwl 0x2a(%eax),%eax
c010c8b3:	0f b7 c0             	movzwl %ax,%eax
c010c8b6:	0f af 45 f0          	imul   -0x10(%ebp),%eax
c010c8ba:	01 c2                	add    %eax,%edx
c010c8bc:	8b 45 e0             	mov    -0x20(%ebp),%eax
c010c8bf:	ff 75 e4             	pushl  -0x1c(%ebp)
c010c8c2:	6a 20                	push   $0x20
c010c8c4:	52                   	push   %edx
c010c8c5:	50                   	push   %eax
c010c8c6:	e8 46 36 00 00       	call   c010ff11 <fs_read_file>
c010c8cb:	83 c4 10             	add    $0x10,%esp
c010c8ce:	89 45 ec             	mov    %eax,-0x14(%ebp)
c010c8d1:	83 7d ec 00          	cmpl   $0x0,-0x14(%ebp)
c010c8d5:	79 10                	jns    c010c8e7 <load_program+0x114>
c010c8d7:	83 ec 0c             	sub    $0xc,%esp
c010c8da:	68 34 36 11 c0       	push   $0xc0113634
c010c8df:	e8 bf 58 00 00       	call   c01121a3 <panic>
c010c8e4:	83 c4 10             	add    $0x10,%esp
c010c8e7:	8b 45 e4             	mov    -0x1c(%ebp),%eax
c010c8ea:	8b 00                	mov    (%eax),%eax
c010c8ec:	83 f8 01             	cmp    $0x1,%eax
c010c8ef:	0f 85 87 00 00 00    	jne    c010c97c <load_program+0x1a9>
c010c8f5:	8b 45 e4             	mov    -0x1c(%ebp),%eax
c010c8f8:	8b 40 08             	mov    0x8(%eax),%eax
c010c8fb:	89 c3                	mov    %eax,%ebx
c010c8fd:	8b 45 e4             	mov    -0x1c(%ebp),%eax
c010c900:	8b 48 10             	mov    0x10(%eax),%ecx
c010c903:	8b 45 e4             	mov    -0x1c(%ebp),%eax
c010c906:	8b 50 04             	mov    0x4(%eax),%edx
c010c909:	8b 45 e0             	mov    -0x20(%ebp),%eax
c010c90c:	53                   	push   %ebx
c010c90d:	51                   	push   %ecx
c010c90e:	52                   	push   %edx
c010c90f:	50                   	push   %eax
c010c910:	e8 fc 35 00 00       	call   c010ff11 <fs_read_file>
c010c915:	83 c4 10             	add    $0x10,%esp
c010c918:	89 45 ec             	mov    %eax,-0x14(%ebp)
c010c91b:	83 7d ec 00          	cmpl   $0x0,-0x14(%ebp)
c010c91f:	79 10                	jns    c010c931 <load_program+0x15e>
c010c921:	83 ec 0c             	sub    $0xc,%esp
c010c924:	68 60 36 11 c0       	push   $0xc0113660
c010c929:	e8 75 58 00 00       	call   c01121a3 <panic>
c010c92e:	83 c4 10             	add    $0x10,%esp
c010c931:	8b 45 e4             	mov    -0x1c(%ebp),%eax
c010c934:	8b 50 14             	mov    0x14(%eax),%edx
c010c937:	8b 45 e4             	mov    -0x1c(%ebp),%eax
c010c93a:	8b 40 10             	mov    0x10(%eax),%eax
c010c93d:	29 c2                	sub    %eax,%edx
c010c93f:	8b 45 e4             	mov    -0x1c(%ebp),%eax
c010c942:	8b 48 08             	mov    0x8(%eax),%ecx
c010c945:	8b 45 e4             	mov    -0x1c(%ebp),%eax
c010c948:	8b 40 10             	mov    0x10(%eax),%eax
c010c94b:	01 c8                	add    %ecx,%eax
c010c94d:	83 ec 04             	sub    $0x4,%esp
c010c950:	52                   	push   %edx
c010c951:	6a 00                	push   $0x0
c010c953:	50                   	push   %eax
c010c954:	e8 0f 58 00 00       	call   c0112168 <memset>
c010c959:	83 c4 10             	add    $0x10,%esp
c010c95c:	8b 45 e4             	mov    -0x1c(%ebp),%eax
c010c95f:	8b 50 08             	mov    0x8(%eax),%edx
c010c962:	8b 45 e4             	mov    -0x1c(%ebp),%eax
c010c965:	8b 40 14             	mov    0x14(%eax),%eax
c010c968:	01 d0                	add    %edx,%eax
c010c96a:	83 ec 08             	sub    $0x8,%esp
c010c96d:	50                   	push   %eax
c010c96e:	ff 75 f4             	pushl  -0xc(%ebp)
c010c971:	e8 4e fe ff ff       	call   c010c7c4 <max>
c010c976:	83 c4 10             	add    $0x10,%esp
c010c979:	89 45 f4             	mov    %eax,-0xc(%ebp)
c010c97c:	83 45 f0 01          	addl   $0x1,-0x10(%ebp)
c010c980:	8b 45 e8             	mov    -0x18(%ebp),%eax
c010c983:	0f b7 40 2c          	movzwl 0x2c(%eax),%eax
c010c987:	0f b7 c0             	movzwl %ax,%eax
c010c98a:	39 45 f0             	cmp    %eax,-0x10(%ebp)
c010c98d:	0f 8c 03 ff ff ff    	jl     c010c896 <load_program+0xc3>
c010c993:	8b 45 e8             	mov    -0x18(%ebp),%eax
c010c996:	8b 50 18             	mov    0x18(%eax),%edx
c010c999:	8b 45 0c             	mov    0xc(%ebp),%eax
c010c99c:	89 10                	mov    %edx,(%eax)
c010c99e:	8b 45 10             	mov    0x10(%ebp),%eax
c010c9a1:	c7 00 00 00 00 c0    	movl   $0xc0000000,(%eax)
c010c9a7:	8b 45 14             	mov    0x14(%ebp),%eax
c010c9aa:	8b 55 f4             	mov    -0xc(%ebp),%edx
c010c9ad:	89 10                	mov    %edx,(%eax)
c010c9af:	8b 45 18             	mov    0x18(%ebp),%eax
c010c9b2:	c7 00 00 20 00 00    	movl   $0x2000,(%eax)
c010c9b8:	90                   	nop
c010c9b9:	8b 5d fc             	mov    -0x4(%ebp),%ebx
c010c9bc:	c9                   	leave  
c010c9bd:	c3                   	ret    

c010c9be <loader_jump_user>:
c010c9be:	8b 4c 24 04          	mov    0x4(%esp),%ecx
c010c9c2:	8b 54 24 08          	mov    0x8(%esp),%edx
c010c9c6:	fa                   	cli    
c010c9c7:	66 b8 23 00          	mov    $0x23,%ax
c010c9cb:	8e d8                	mov    %eax,%ds
c010c9cd:	8e c0                	mov    %eax,%es
c010c9cf:	8e e0                	mov    %eax,%fs
c010c9d1:	8e e8                	mov    %eax,%gs
c010c9d3:	6a 23                	push   $0x23
c010c9d5:	6a 00                	push   $0x0
c010c9d7:	68 02 02 00 00       	push   $0x202
c010c9dc:	6a 1b                	push   $0x1b
c010c9de:	51                   	push   %ecx
c010c9df:	cf                   	iret   

c010c9e0 <init_ext2>:
c010c9e0:	55                   	push   %ebp
c010c9e1:	89 e5                	mov    %esp,%ebp
c010c9e3:	83 ec 18             	sub    $0x18,%esp
c010c9e6:	83 ec 0c             	sub    $0xc,%esp
c010c9e9:	6a 24                	push   $0x24
c010c9eb:	e8 00 de ff ff       	call   c010a7f0 <kmalloc>
c010c9f0:	83 c4 10             	add    $0x10,%esp
c010c9f3:	a3 30 60 10 c0       	mov    %eax,0xc0106030
c010c9f8:	a1 30 60 10 c0       	mov    0xc0106030,%eax
c010c9fd:	83 ec 0c             	sub    $0xc,%esp
c010ca00:	50                   	push   %eax
c010ca01:	e8 8e 23 00 00       	call   c010ed94 <get_superblock>
c010ca06:	83 c4 10             	add    $0x10,%esp
c010ca09:	89 45 f4             	mov    %eax,-0xc(%ebp)
c010ca0c:	8b 45 f4             	mov    -0xc(%ebp),%eax
c010ca0f:	c9                   	leave  
c010ca10:	c3                   	ret    

c010ca11 <get_inode_type>:
c010ca11:	55                   	push   %ebp
c010ca12:	89 e5                	mov    %esp,%ebp
c010ca14:	83 ec 18             	sub    $0x18,%esp
c010ca17:	83 ec 0c             	sub    $0xc,%esp
c010ca1a:	6a 40                	push   $0x40
c010ca1c:	e8 cf dd ff ff       	call   c010a7f0 <kmalloc>
c010ca21:	83 c4 10             	add    $0x10,%esp
c010ca24:	89 45 f4             	mov    %eax,-0xc(%ebp)
c010ca27:	83 ec 08             	sub    $0x8,%esp
c010ca2a:	ff 75 f4             	pushl  -0xc(%ebp)
c010ca2d:	ff 75 08             	pushl  0x8(%ebp)
c010ca30:	e8 45 26 00 00       	call   c010f07a <get_inode>
c010ca35:	83 c4 10             	add    $0x10,%esp
c010ca38:	89 45 f0             	mov    %eax,-0x10(%ebp)
c010ca3b:	83 7d f0 00          	cmpl   $0x0,-0x10(%ebp)
c010ca3f:	79 13                	jns    c010ca54 <get_inode_type+0x43>
c010ca41:	83 ec 0c             	sub    $0xc,%esp
c010ca44:	ff 75 f4             	pushl  -0xc(%ebp)
c010ca47:	e8 90 de ff ff       	call   c010a8dc <kfree>
c010ca4c:	83 c4 10             	add    $0x10,%esp
c010ca4f:	8b 45 f0             	mov    -0x10(%ebp),%eax
c010ca52:	eb 1e                	jmp    c010ca72 <get_inode_type+0x61>
c010ca54:	8b 45 f4             	mov    -0xc(%ebp),%eax
c010ca57:	8b 50 04             	mov    0x4(%eax),%edx
c010ca5a:	8b 45 0c             	mov    0xc(%ebp),%eax
c010ca5d:	89 10                	mov    %edx,(%eax)
c010ca5f:	83 ec 0c             	sub    $0xc,%esp
c010ca62:	ff 75 f4             	pushl  -0xc(%ebp)
c010ca65:	e8 72 de ff ff       	call   c010a8dc <kfree>
c010ca6a:	83 c4 10             	add    $0x10,%esp
c010ca6d:	b8 00 00 00 00       	mov    $0x0,%eax
c010ca72:	c9                   	leave  
c010ca73:	c3                   	ret    

c010ca74 <get_inode_fsize>:
c010ca74:	55                   	push   %ebp
c010ca75:	89 e5                	mov    %esp,%ebp
c010ca77:	83 ec 18             	sub    $0x18,%esp
c010ca7a:	83 ec 0c             	sub    $0xc,%esp
c010ca7d:	6a 40                	push   $0x40
c010ca7f:	e8 6c dd ff ff       	call   c010a7f0 <kmalloc>
c010ca84:	83 c4 10             	add    $0x10,%esp
c010ca87:	89 45 f4             	mov    %eax,-0xc(%ebp)
c010ca8a:	83 ec 08             	sub    $0x8,%esp
c010ca8d:	ff 75 f4             	pushl  -0xc(%ebp)
c010ca90:	ff 75 08             	pushl  0x8(%ebp)
c010ca93:	e8 e2 25 00 00       	call   c010f07a <get_inode>
c010ca98:	83 c4 10             	add    $0x10,%esp
c010ca9b:	89 45 f0             	mov    %eax,-0x10(%ebp)
c010ca9e:	83 7d f0 00          	cmpl   $0x0,-0x10(%ebp)
c010caa2:	79 13                	jns    c010cab7 <get_inode_fsize+0x43>
c010caa4:	83 ec 0c             	sub    $0xc,%esp
c010caa7:	ff 75 f4             	pushl  -0xc(%ebp)
c010caaa:	e8 2d de ff ff       	call   c010a8dc <kfree>
c010caaf:	83 c4 10             	add    $0x10,%esp
c010cab2:	8b 45 f0             	mov    -0x10(%ebp),%eax
c010cab5:	eb 1d                	jmp    c010cad4 <get_inode_fsize+0x60>
c010cab7:	8b 45 f4             	mov    -0xc(%ebp),%eax
c010caba:	8b 10                	mov    (%eax),%edx
c010cabc:	8b 45 0c             	mov    0xc(%ebp),%eax
c010cabf:	89 10                	mov    %edx,(%eax)
c010cac1:	83 ec 0c             	sub    $0xc,%esp
c010cac4:	ff 75 f4             	pushl  -0xc(%ebp)
c010cac7:	e8 10 de ff ff       	call   c010a8dc <kfree>
c010cacc:	83 c4 10             	add    $0x10,%esp
c010cacf:	b8 00 00 00 00       	mov    $0x0,%eax
c010cad4:	c9                   	leave  
c010cad5:	c3                   	ret    

c010cad6 <set_inode_fsize>:
c010cad6:	55                   	push   %ebp
c010cad7:	89 e5                	mov    %esp,%ebp
c010cad9:	83 ec 18             	sub    $0x18,%esp
c010cadc:	83 ec 0c             	sub    $0xc,%esp
c010cadf:	6a 40                	push   $0x40
c010cae1:	e8 0a dd ff ff       	call   c010a7f0 <kmalloc>
c010cae6:	83 c4 10             	add    $0x10,%esp
c010cae9:	89 45 f4             	mov    %eax,-0xc(%ebp)
c010caec:	83 ec 08             	sub    $0x8,%esp
c010caef:	ff 75 f4             	pushl  -0xc(%ebp)
c010caf2:	ff 75 08             	pushl  0x8(%ebp)
c010caf5:	e8 80 25 00 00       	call   c010f07a <get_inode>
c010cafa:	83 c4 10             	add    $0x10,%esp
c010cafd:	89 45 f0             	mov    %eax,-0x10(%ebp)
c010cb00:	83 7d f0 00          	cmpl   $0x0,-0x10(%ebp)
c010cb04:	79 13                	jns    c010cb19 <set_inode_fsize+0x43>
c010cb06:	83 ec 0c             	sub    $0xc,%esp
c010cb09:	ff 75 f4             	pushl  -0xc(%ebp)
c010cb0c:	e8 cb dd ff ff       	call   c010a8dc <kfree>
c010cb11:	83 c4 10             	add    $0x10,%esp
c010cb14:	8b 45 f0             	mov    -0x10(%ebp),%eax
c010cb17:	eb 2d                	jmp    c010cb46 <set_inode_fsize+0x70>
c010cb19:	8b 45 f4             	mov    -0xc(%ebp),%eax
c010cb1c:	8b 55 0c             	mov    0xc(%ebp),%edx
c010cb1f:	89 10                	mov    %edx,(%eax)
c010cb21:	83 ec 08             	sub    $0x8,%esp
c010cb24:	ff 75 f4             	pushl  -0xc(%ebp)
c010cb27:	ff 75 08             	pushl  0x8(%ebp)
c010cb2a:	e8 40 26 00 00       	call   c010f16f <sync_inode>
c010cb2f:	83 c4 10             	add    $0x10,%esp
c010cb32:	89 45 f0             	mov    %eax,-0x10(%ebp)
c010cb35:	83 ec 0c             	sub    $0xc,%esp
c010cb38:	ff 75 f4             	pushl  -0xc(%ebp)
c010cb3b:	e8 9c dd ff ff       	call   c010a8dc <kfree>
c010cb40:	83 c4 10             	add    $0x10,%esp
c010cb43:	8b 45 f0             	mov    -0x10(%ebp),%eax
c010cb46:	c9                   	leave  
c010cb47:	c3                   	ret    

c010cb48 <read_block>:
c010cb48:	55                   	push   %ebp
c010cb49:	89 e5                	mov    %esp,%ebp
c010cb4b:	83 ec 18             	sub    $0x18,%esp
c010cb4e:	83 7d 10 00          	cmpl   $0x0,0x10(%ebp)
c010cb52:	74 0c                	je     c010cb60 <read_block+0x18>
c010cb54:	a1 30 60 10 c0       	mov    0xc0106030,%eax
c010cb59:	8b 00                	mov    (%eax),%eax
c010cb5b:	39 45 0c             	cmp    %eax,0xc(%ebp)
c010cb5e:	72 07                	jb     c010cb67 <read_block+0x1f>
c010cb60:	b8 00 00 00 00       	mov    $0x0,%eax
c010cb65:	eb 72                	jmp    c010cbd9 <read_block+0x91>
c010cb67:	8b 55 0c             	mov    0xc(%ebp),%edx
c010cb6a:	8b 45 10             	mov    0x10(%ebp),%eax
c010cb6d:	01 c2                	add    %eax,%edx
c010cb6f:	a1 30 60 10 c0       	mov    0xc0106030,%eax
c010cb74:	8b 00                	mov    (%eax),%eax
c010cb76:	39 c2                	cmp    %eax,%edx
c010cb78:	76 0d                	jbe    c010cb87 <read_block+0x3f>
c010cb7a:	a1 30 60 10 c0       	mov    0xc0106030,%eax
c010cb7f:	8b 00                	mov    (%eax),%eax
c010cb81:	2b 45 0c             	sub    0xc(%ebp),%eax
c010cb84:	89 45 10             	mov    %eax,0x10(%ebp)
c010cb87:	83 7d 08 00          	cmpl   $0x0,0x8(%ebp)
c010cb8b:	75 15                	jne    c010cba2 <read_block+0x5a>
c010cb8d:	83 ec 04             	sub    $0x4,%esp
c010cb90:	ff 75 10             	pushl  0x10(%ebp)
c010cb93:	6a 00                	push   $0x0
c010cb95:	ff 75 14             	pushl  0x14(%ebp)
c010cb98:	e8 cb 55 00 00       	call   c0112168 <memset>
c010cb9d:	83 c4 10             	add    $0x10,%esp
c010cba0:	eb 34                	jmp    c010cbd6 <read_block+0x8e>
c010cba2:	a1 30 60 10 c0       	mov    0xc0106030,%eax
c010cba7:	8b 00                	mov    (%eax),%eax
c010cba9:	0f af 45 08          	imul   0x8(%ebp),%eax
c010cbad:	89 c2                	mov    %eax,%edx
c010cbaf:	8b 45 0c             	mov    0xc(%ebp),%eax
c010cbb2:	01 d0                	add    %edx,%eax
c010cbb4:	83 ec 04             	sub    $0x4,%esp
c010cbb7:	ff 75 14             	pushl  0x14(%ebp)
c010cbba:	ff 75 10             	pushl  0x10(%ebp)
c010cbbd:	50                   	push   %eax
c010cbbe:	e8 9f cd ff ff       	call   c0109962 <ata_read>
c010cbc3:	83 c4 10             	add    $0x10,%esp
c010cbc6:	89 45 f4             	mov    %eax,-0xc(%ebp)
c010cbc9:	83 7d f4 00          	cmpl   $0x0,-0xc(%ebp)
c010cbcd:	79 07                	jns    c010cbd6 <read_block+0x8e>
c010cbcf:	b8 fc ff ff ff       	mov    $0xfffffffc,%eax
c010cbd4:	eb 03                	jmp    c010cbd9 <read_block+0x91>
c010cbd6:	8b 45 10             	mov    0x10(%ebp),%eax
c010cbd9:	c9                   	leave  
c010cbda:	c3                   	ret    

c010cbdb <write_block>:
c010cbdb:	55                   	push   %ebp
c010cbdc:	89 e5                	mov    %esp,%ebp
c010cbde:	83 ec 28             	sub    $0x28,%esp
c010cbe1:	83 7d 10 00          	cmpl   $0x0,0x10(%ebp)
c010cbe5:	74 0c                	je     c010cbf3 <write_block+0x18>
c010cbe7:	a1 30 60 10 c0       	mov    0xc0106030,%eax
c010cbec:	8b 00                	mov    (%eax),%eax
c010cbee:	39 45 0c             	cmp    %eax,0xc(%ebp)
c010cbf1:	72 0a                	jb     c010cbfd <write_block+0x22>
c010cbf3:	b8 00 00 00 00       	mov    $0x0,%eax
c010cbf8:	e9 9d 01 00 00       	jmp    c010cd9a <write_block+0x1bf>
c010cbfd:	8b 55 0c             	mov    0xc(%ebp),%edx
c010cc00:	8b 45 10             	mov    0x10(%ebp),%eax
c010cc03:	01 c2                	add    %eax,%edx
c010cc05:	a1 30 60 10 c0       	mov    0xc0106030,%eax
c010cc0a:	8b 00                	mov    (%eax),%eax
c010cc0c:	39 c2                	cmp    %eax,%edx
c010cc0e:	76 0d                	jbe    c010cc1d <write_block+0x42>
c010cc10:	a1 30 60 10 c0       	mov    0xc0106030,%eax
c010cc15:	8b 00                	mov    (%eax),%eax
c010cc17:	2b 45 0c             	sub    0xc(%ebp),%eax
c010cc1a:	89 45 10             	mov    %eax,0x10(%ebp)
c010cc1d:	83 7d 0c 00          	cmpl   $0x0,0xc(%ebp)
c010cc21:	75 10                	jne    c010cc33 <write_block+0x58>
c010cc23:	a1 30 60 10 c0       	mov    0xc0106030,%eax
c010cc28:	8b 00                	mov    (%eax),%eax
c010cc2a:	39 45 10             	cmp    %eax,0x10(%ebp)
c010cc2d:	0f 83 06 01 00 00    	jae    c010cd39 <write_block+0x15e>
c010cc33:	a1 30 60 10 c0       	mov    0xc0106030,%eax
c010cc38:	8b 00                	mov    (%eax),%eax
c010cc3a:	83 ec 0c             	sub    $0xc,%esp
c010cc3d:	50                   	push   %eax
c010cc3e:	e8 ad db ff ff       	call   c010a7f0 <kmalloc>
c010cc43:	83 c4 10             	add    $0x10,%esp
c010cc46:	89 45 e4             	mov    %eax,-0x1c(%ebp)
c010cc49:	a1 30 60 10 c0       	mov    0xc0106030,%eax
c010cc4e:	8b 00                	mov    (%eax),%eax
c010cc50:	ff 75 e4             	pushl  -0x1c(%ebp)
c010cc53:	50                   	push   %eax
c010cc54:	6a 00                	push   $0x0
c010cc56:	ff 75 08             	pushl  0x8(%ebp)
c010cc59:	e8 ea fe ff ff       	call   c010cb48 <read_block>
c010cc5e:	83 c4 10             	add    $0x10,%esp
c010cc61:	89 45 e8             	mov    %eax,-0x18(%ebp)
c010cc64:	83 7d e8 00          	cmpl   $0x0,-0x18(%ebp)
c010cc68:	79 16                	jns    c010cc80 <write_block+0xa5>
c010cc6a:	83 ec 0c             	sub    $0xc,%esp
c010cc6d:	ff 75 e4             	pushl  -0x1c(%ebp)
c010cc70:	e8 67 dc ff ff       	call   c010a8dc <kfree>
c010cc75:	83 c4 10             	add    $0x10,%esp
c010cc78:	8b 45 e8             	mov    -0x18(%ebp),%eax
c010cc7b:	e9 1a 01 00 00       	jmp    c010cd9a <write_block+0x1bf>
c010cc80:	8b 55 e4             	mov    -0x1c(%ebp),%edx
c010cc83:	8b 45 0c             	mov    0xc(%ebp),%eax
c010cc86:	01 d0                	add    %edx,%eax
c010cc88:	83 ec 04             	sub    $0x4,%esp
c010cc8b:	ff 75 10             	pushl  0x10(%ebp)
c010cc8e:	ff 75 14             	pushl  0x14(%ebp)
c010cc91:	50                   	push   %eax
c010cc92:	e8 bf 54 00 00       	call   c0112156 <memcpy>
c010cc97:	83 c4 10             	add    $0x10,%esp
c010cc9a:	a1 30 60 10 c0       	mov    0xc0106030,%eax
c010cc9f:	8b 00                	mov    (%eax),%eax
c010cca1:	c1 e8 09             	shr    $0x9,%eax
c010cca4:	89 45 e0             	mov    %eax,-0x20(%ebp)
c010cca7:	8b 45 0c             	mov    0xc(%ebp),%eax
c010ccaa:	c1 e8 09             	shr    $0x9,%eax
c010ccad:	89 45 dc             	mov    %eax,-0x24(%ebp)
c010ccb0:	8b 55 0c             	mov    0xc(%ebp),%edx
c010ccb3:	8b 45 10             	mov    0x10(%ebp),%eax
c010ccb6:	01 d0                	add    %edx,%eax
c010ccb8:	83 e8 01             	sub    $0x1,%eax
c010ccbb:	c1 e8 09             	shr    $0x9,%eax
c010ccbe:	89 45 d8             	mov    %eax,-0x28(%ebp)
c010ccc1:	8b 45 dc             	mov    -0x24(%ebp),%eax
c010ccc4:	89 45 f4             	mov    %eax,-0xc(%ebp)
c010ccc7:	eb 4d                	jmp    c010cd16 <write_block+0x13b>
c010ccc9:	8b 45 f4             	mov    -0xc(%ebp),%eax
c010cccc:	c1 e0 09             	shl    $0x9,%eax
c010cccf:	89 c2                	mov    %eax,%edx
c010ccd1:	8b 45 e4             	mov    -0x1c(%ebp),%eax
c010ccd4:	01 c2                	add    %eax,%edx
c010ccd6:	8b 45 08             	mov    0x8(%ebp),%eax
c010ccd9:	0f af 45 e0          	imul   -0x20(%ebp),%eax
c010ccdd:	89 c1                	mov    %eax,%ecx
c010ccdf:	8b 45 f4             	mov    -0xc(%ebp),%eax
c010cce2:	01 c8                	add    %ecx,%eax
c010cce4:	83 ec 08             	sub    $0x8,%esp
c010cce7:	52                   	push   %edx
c010cce8:	50                   	push   %eax
c010cce9:	e8 cb cd ff ff       	call   c0109ab9 <ata_write_sector>
c010ccee:	83 c4 10             	add    $0x10,%esp
c010ccf1:	89 45 e8             	mov    %eax,-0x18(%ebp)
c010ccf4:	83 7d e8 00          	cmpl   $0x0,-0x18(%ebp)
c010ccf8:	79 18                	jns    c010cd12 <write_block+0x137>
c010ccfa:	83 ec 0c             	sub    $0xc,%esp
c010ccfd:	ff 75 e4             	pushl  -0x1c(%ebp)
c010cd00:	e8 d7 db ff ff       	call   c010a8dc <kfree>
c010cd05:	83 c4 10             	add    $0x10,%esp
c010cd08:	b8 fb ff ff ff       	mov    $0xfffffffb,%eax
c010cd0d:	e9 88 00 00 00       	jmp    c010cd9a <write_block+0x1bf>
c010cd12:	83 45 f4 01          	addl   $0x1,-0xc(%ebp)
c010cd16:	8b 45 f4             	mov    -0xc(%ebp),%eax
c010cd19:	3b 45 e0             	cmp    -0x20(%ebp),%eax
c010cd1c:	73 08                	jae    c010cd26 <write_block+0x14b>
c010cd1e:	8b 45 f4             	mov    -0xc(%ebp),%eax
c010cd21:	3b 45 d8             	cmp    -0x28(%ebp),%eax
c010cd24:	76 a3                	jbe    c010ccc9 <write_block+0xee>
c010cd26:	83 ec 0c             	sub    $0xc,%esp
c010cd29:	ff 75 e4             	pushl  -0x1c(%ebp)
c010cd2c:	e8 ab db ff ff       	call   c010a8dc <kfree>
c010cd31:	83 c4 10             	add    $0x10,%esp
c010cd34:	8b 45 10             	mov    0x10(%ebp),%eax
c010cd37:	eb 61                	jmp    c010cd9a <write_block+0x1bf>
c010cd39:	a1 30 60 10 c0       	mov    0xc0106030,%eax
c010cd3e:	8b 00                	mov    (%eax),%eax
c010cd40:	c1 e8 09             	shr    $0x9,%eax
c010cd43:	89 45 ec             	mov    %eax,-0x14(%ebp)
c010cd46:	c7 45 f0 00 00 00 00 	movl   $0x0,-0x10(%ebp)
c010cd4d:	eb 3c                	jmp    c010cd8b <write_block+0x1b0>
c010cd4f:	8b 45 f0             	mov    -0x10(%ebp),%eax
c010cd52:	c1 e0 09             	shl    $0x9,%eax
c010cd55:	89 c2                	mov    %eax,%edx
c010cd57:	8b 45 14             	mov    0x14(%ebp),%eax
c010cd5a:	01 c2                	add    %eax,%edx
c010cd5c:	8b 45 08             	mov    0x8(%ebp),%eax
c010cd5f:	0f af 45 ec          	imul   -0x14(%ebp),%eax
c010cd63:	89 c1                	mov    %eax,%ecx
c010cd65:	8b 45 f0             	mov    -0x10(%ebp),%eax
c010cd68:	01 c8                	add    %ecx,%eax
c010cd6a:	83 ec 08             	sub    $0x8,%esp
c010cd6d:	52                   	push   %edx
c010cd6e:	50                   	push   %eax
c010cd6f:	e8 45 cd ff ff       	call   c0109ab9 <ata_write_sector>
c010cd74:	83 c4 10             	add    $0x10,%esp
c010cd77:	89 45 e8             	mov    %eax,-0x18(%ebp)
c010cd7a:	83 7d e8 00          	cmpl   $0x0,-0x18(%ebp)
c010cd7e:	79 07                	jns    c010cd87 <write_block+0x1ac>
c010cd80:	b8 fb ff ff ff       	mov    $0xfffffffb,%eax
c010cd85:	eb 13                	jmp    c010cd9a <write_block+0x1bf>
c010cd87:	83 45 f0 01          	addl   $0x1,-0x10(%ebp)
c010cd8b:	8b 45 f0             	mov    -0x10(%ebp),%eax
c010cd8e:	3b 45 ec             	cmp    -0x14(%ebp),%eax
c010cd91:	72 bc                	jb     c010cd4f <write_block+0x174>
c010cd93:	a1 30 60 10 c0       	mov    0xc0106030,%eax
c010cd98:	8b 00                	mov    (%eax),%eax
c010cd9a:	c9                   	leave  
c010cd9b:	c3                   	ret    

c010cd9c <write_block_sparse>:
c010cd9c:	55                   	push   %ebp
c010cd9d:	89 e5                	mov    %esp,%ebp
c010cd9f:	83 ec 28             	sub    $0x28,%esp
c010cda2:	83 7d 10 00          	cmpl   $0x0,0x10(%ebp)
c010cda6:	74 0c                	je     c010cdb4 <write_block_sparse+0x18>
c010cda8:	a1 30 60 10 c0       	mov    0xc0106030,%eax
c010cdad:	8b 00                	mov    (%eax),%eax
c010cdaf:	39 45 0c             	cmp    %eax,0xc(%ebp)
c010cdb2:	72 0a                	jb     c010cdbe <write_block_sparse+0x22>
c010cdb4:	b8 00 00 00 00       	mov    $0x0,%eax
c010cdb9:	e9 e6 01 00 00       	jmp    c010cfa4 <write_block_sparse+0x208>
c010cdbe:	8b 55 0c             	mov    0xc(%ebp),%edx
c010cdc1:	8b 45 10             	mov    0x10(%ebp),%eax
c010cdc4:	01 c2                	add    %eax,%edx
c010cdc6:	a1 30 60 10 c0       	mov    0xc0106030,%eax
c010cdcb:	8b 00                	mov    (%eax),%eax
c010cdcd:	39 c2                	cmp    %eax,%edx
c010cdcf:	76 0d                	jbe    c010cdde <write_block_sparse+0x42>
c010cdd1:	a1 30 60 10 c0       	mov    0xc0106030,%eax
c010cdd6:	8b 00                	mov    (%eax),%eax
c010cdd8:	2b 45 0c             	sub    0xc(%ebp),%eax
c010cddb:	89 45 10             	mov    %eax,0x10(%ebp)
c010cdde:	8b 45 08             	mov    0x8(%ebp),%eax
c010cde1:	8b 00                	mov    (%eax),%eax
c010cde3:	85 c0                	test   %eax,%eax
c010cde5:	0f 85 ad 00 00 00    	jne    c010ce98 <write_block_sparse+0xfc>
c010cdeb:	c6 45 f3 01          	movb   $0x1,-0xd(%ebp)
c010cdef:	c7 45 ec 00 00 00 00 	movl   $0x0,-0x14(%ebp)
c010cdf6:	eb 19                	jmp    c010ce11 <write_block_sparse+0x75>
c010cdf8:	8b 55 14             	mov    0x14(%ebp),%edx
c010cdfb:	8b 45 ec             	mov    -0x14(%ebp),%eax
c010cdfe:	01 d0                	add    %edx,%eax
c010ce00:	0f b6 00             	movzbl (%eax),%eax
c010ce03:	84 c0                	test   %al,%al
c010ce05:	74 06                	je     c010ce0d <write_block_sparse+0x71>
c010ce07:	c6 45 f3 00          	movb   $0x0,-0xd(%ebp)
c010ce0b:	eb 0c                	jmp    c010ce19 <write_block_sparse+0x7d>
c010ce0d:	83 45 ec 01          	addl   $0x1,-0x14(%ebp)
c010ce11:	8b 45 ec             	mov    -0x14(%ebp),%eax
c010ce14:	3b 45 10             	cmp    0x10(%ebp),%eax
c010ce17:	72 df                	jb     c010cdf8 <write_block_sparse+0x5c>
c010ce19:	80 7d f3 00          	cmpb   $0x0,-0xd(%ebp)
c010ce1d:	74 0a                	je     c010ce29 <write_block_sparse+0x8d>
c010ce1f:	b8 00 00 00 00       	mov    $0x0,%eax
c010ce24:	e9 7b 01 00 00       	jmp    c010cfa4 <write_block_sparse+0x208>
c010ce29:	83 ec 08             	sub    $0x8,%esp
c010ce2c:	ff 75 18             	pushl  0x18(%ebp)
c010ce2f:	ff 75 08             	pushl  0x8(%ebp)
c010ce32:	e8 cd 17 00 00       	call   c010e604 <alloc_block>
c010ce37:	83 c4 10             	add    $0x10,%esp
c010ce3a:	89 45 e0             	mov    %eax,-0x20(%ebp)
c010ce3d:	83 7d e0 00          	cmpl   $0x0,-0x20(%ebp)
c010ce41:	79 08                	jns    c010ce4b <write_block_sparse+0xaf>
c010ce43:	8b 45 e0             	mov    -0x20(%ebp),%eax
c010ce46:	e9 59 01 00 00       	jmp    c010cfa4 <write_block_sparse+0x208>
c010ce4b:	a1 30 60 10 c0       	mov    0xc0106030,%eax
c010ce50:	8b 00                	mov    (%eax),%eax
c010ce52:	83 ec 0c             	sub    $0xc,%esp
c010ce55:	50                   	push   %eax
c010ce56:	e8 95 d9 ff ff       	call   c010a7f0 <kmalloc>
c010ce5b:	83 c4 10             	add    $0x10,%esp
c010ce5e:	89 45 f4             	mov    %eax,-0xc(%ebp)
c010ce61:	a1 30 60 10 c0       	mov    0xc0106030,%eax
c010ce66:	8b 00                	mov    (%eax),%eax
c010ce68:	83 ec 04             	sub    $0x4,%esp
c010ce6b:	50                   	push   %eax
c010ce6c:	6a 00                	push   $0x0
c010ce6e:	ff 75 f4             	pushl  -0xc(%ebp)
c010ce71:	e8 f2 52 00 00       	call   c0112168 <memset>
c010ce76:	83 c4 10             	add    $0x10,%esp
c010ce79:	8b 55 f4             	mov    -0xc(%ebp),%edx
c010ce7c:	8b 45 0c             	mov    0xc(%ebp),%eax
c010ce7f:	01 d0                	add    %edx,%eax
c010ce81:	83 ec 04             	sub    $0x4,%esp
c010ce84:	ff 75 10             	pushl  0x10(%ebp)
c010ce87:	ff 75 14             	pushl  0x14(%ebp)
c010ce8a:	50                   	push   %eax
c010ce8b:	e8 c6 52 00 00       	call   c0112156 <memcpy>
c010ce90:	83 c4 10             	add    $0x10,%esp
c010ce93:	e9 d2 00 00 00       	jmp    c010cf6a <write_block_sparse+0x1ce>
c010ce98:	a1 30 60 10 c0       	mov    0xc0106030,%eax
c010ce9d:	8b 00                	mov    (%eax),%eax
c010ce9f:	83 ec 0c             	sub    $0xc,%esp
c010cea2:	50                   	push   %eax
c010cea3:	e8 48 d9 ff ff       	call   c010a7f0 <kmalloc>
c010cea8:	83 c4 10             	add    $0x10,%esp
c010ceab:	89 45 f4             	mov    %eax,-0xc(%ebp)
c010ceae:	a1 30 60 10 c0       	mov    0xc0106030,%eax
c010ceb3:	8b 10                	mov    (%eax),%edx
c010ceb5:	8b 45 08             	mov    0x8(%ebp),%eax
c010ceb8:	8b 00                	mov    (%eax),%eax
c010ceba:	ff 75 f4             	pushl  -0xc(%ebp)
c010cebd:	52                   	push   %edx
c010cebe:	6a 00                	push   $0x0
c010cec0:	50                   	push   %eax
c010cec1:	e8 82 fc ff ff       	call   c010cb48 <read_block>
c010cec6:	83 c4 10             	add    $0x10,%esp
c010cec9:	89 45 e0             	mov    %eax,-0x20(%ebp)
c010cecc:	83 7d e0 00          	cmpl   $0x0,-0x20(%ebp)
c010ced0:	79 16                	jns    c010cee8 <write_block_sparse+0x14c>
c010ced2:	83 ec 0c             	sub    $0xc,%esp
c010ced5:	ff 75 f4             	pushl  -0xc(%ebp)
c010ced8:	e8 ff d9 ff ff       	call   c010a8dc <kfree>
c010cedd:	83 c4 10             	add    $0x10,%esp
c010cee0:	8b 45 e0             	mov    -0x20(%ebp),%eax
c010cee3:	e9 bc 00 00 00       	jmp    c010cfa4 <write_block_sparse+0x208>
c010cee8:	8b 55 f4             	mov    -0xc(%ebp),%edx
c010ceeb:	8b 45 0c             	mov    0xc(%ebp),%eax
c010ceee:	01 d0                	add    %edx,%eax
c010cef0:	83 ec 04             	sub    $0x4,%esp
c010cef3:	ff 75 10             	pushl  0x10(%ebp)
c010cef6:	ff 75 14             	pushl  0x14(%ebp)
c010cef9:	50                   	push   %eax
c010cefa:	e8 57 52 00 00       	call   c0112156 <memcpy>
c010ceff:	83 c4 10             	add    $0x10,%esp
c010cf02:	c6 45 eb 01          	movb   $0x1,-0x15(%ebp)
c010cf06:	c7 45 e4 00 00 00 00 	movl   $0x0,-0x1c(%ebp)
c010cf0d:	eb 19                	jmp    c010cf28 <write_block_sparse+0x18c>
c010cf0f:	8b 55 f4             	mov    -0xc(%ebp),%edx
c010cf12:	8b 45 e4             	mov    -0x1c(%ebp),%eax
c010cf15:	01 d0                	add    %edx,%eax
c010cf17:	0f b6 00             	movzbl (%eax),%eax
c010cf1a:	84 c0                	test   %al,%al
c010cf1c:	74 06                	je     c010cf24 <write_block_sparse+0x188>
c010cf1e:	c6 45 eb 00          	movb   $0x0,-0x15(%ebp)
c010cf22:	eb 10                	jmp    c010cf34 <write_block_sparse+0x198>
c010cf24:	83 45 e4 01          	addl   $0x1,-0x1c(%ebp)
c010cf28:	a1 30 60 10 c0       	mov    0xc0106030,%eax
c010cf2d:	8b 00                	mov    (%eax),%eax
c010cf2f:	39 45 e4             	cmp    %eax,-0x1c(%ebp)
c010cf32:	72 db                	jb     c010cf0f <write_block_sparse+0x173>
c010cf34:	80 7d eb 00          	cmpb   $0x0,-0x15(%ebp)
c010cf38:	74 30                	je     c010cf6a <write_block_sparse+0x1ce>
c010cf3a:	83 ec 0c             	sub    $0xc,%esp
c010cf3d:	ff 75 f4             	pushl  -0xc(%ebp)
c010cf40:	e8 97 d9 ff ff       	call   c010a8dc <kfree>
c010cf45:	83 c4 10             	add    $0x10,%esp
c010cf48:	8b 45 08             	mov    0x8(%ebp),%eax
c010cf4b:	8b 00                	mov    (%eax),%eax
c010cf4d:	83 ec 0c             	sub    $0xc,%esp
c010cf50:	50                   	push   %eax
c010cf51:	e8 78 17 00 00       	call   c010e6ce <free_block>
c010cf56:	83 c4 10             	add    $0x10,%esp
c010cf59:	89 45 e0             	mov    %eax,-0x20(%ebp)
c010cf5c:	8b 45 08             	mov    0x8(%ebp),%eax
c010cf5f:	c7 00 00 00 00 00    	movl   $0x0,(%eax)
c010cf65:	8b 45 e0             	mov    -0x20(%ebp),%eax
c010cf68:	eb 3a                	jmp    c010cfa4 <write_block_sparse+0x208>
c010cf6a:	a1 30 60 10 c0       	mov    0xc0106030,%eax
c010cf6f:	8b 10                	mov    (%eax),%edx
c010cf71:	8b 45 08             	mov    0x8(%ebp),%eax
c010cf74:	8b 00                	mov    (%eax),%eax
c010cf76:	ff 75 f4             	pushl  -0xc(%ebp)
c010cf79:	52                   	push   %edx
c010cf7a:	6a 00                	push   $0x0
c010cf7c:	50                   	push   %eax
c010cf7d:	e8 59 fc ff ff       	call   c010cbdb <write_block>
c010cf82:	83 c4 10             	add    $0x10,%esp
c010cf85:	89 45 e0             	mov    %eax,-0x20(%ebp)
c010cf88:	83 ec 0c             	sub    $0xc,%esp
c010cf8b:	ff 75 f4             	pushl  -0xc(%ebp)
c010cf8e:	e8 49 d9 ff ff       	call   c010a8dc <kfree>
c010cf93:	83 c4 10             	add    $0x10,%esp
c010cf96:	83 7d e0 00          	cmpl   $0x0,-0x20(%ebp)
c010cf9a:	79 05                	jns    c010cfa1 <write_block_sparse+0x205>
c010cf9c:	8b 45 e0             	mov    -0x20(%ebp),%eax
c010cf9f:	eb 03                	jmp    c010cfa4 <write_block_sparse+0x208>
c010cfa1:	8b 45 10             	mov    0x10(%ebp),%eax
c010cfa4:	c9                   	leave  
c010cfa5:	c3                   	ret    

c010cfa6 <write_bl_num_recurs>:
c010cfa6:	55                   	push   %ebp
c010cfa7:	89 e5                	mov    %esp,%ebp
c010cfa9:	56                   	push   %esi
c010cfaa:	53                   	push   %ebx
c010cfab:	83 ec 20             	sub    $0x20,%esp
c010cfae:	83 7d 18 02          	cmpl   $0x2,0x18(%ebp)
c010cfb2:	77 06                	ja     c010cfba <write_bl_num_recurs+0x14>
c010cfb4:	83 7d 18 00          	cmpl   $0x0,0x18(%ebp)
c010cfb8:	75 10                	jne    c010cfca <write_bl_num_recurs+0x24>
c010cfba:	83 ec 0c             	sub    $0xc,%esp
c010cfbd:	68 88 36 11 c0       	push   $0xc0113688
c010cfc2:	e8 dc 51 00 00       	call   c01121a3 <panic>
c010cfc7:	83 c4 10             	add    $0x10,%esp
c010cfca:	83 7d 18 01          	cmpl   $0x1,0x18(%ebp)
c010cfce:	75 2d                	jne    c010cffd <write_bl_num_recurs+0x57>
c010cfd0:	8b 45 0c             	mov    0xc(%ebp),%eax
c010cfd3:	8d 14 85 00 00 00 00 	lea    0x0(,%eax,4),%edx
c010cfda:	83 ec 0c             	sub    $0xc,%esp
c010cfdd:	ff 75 14             	pushl  0x14(%ebp)
c010cfe0:	8d 45 10             	lea    0x10(%ebp),%eax
c010cfe3:	50                   	push   %eax
c010cfe4:	6a 04                	push   $0x4
c010cfe6:	52                   	push   %edx
c010cfe7:	ff 75 08             	pushl  0x8(%ebp)
c010cfea:	e8 ad fd ff ff       	call   c010cd9c <write_block_sparse>
c010cfef:	83 c4 20             	add    $0x20,%esp
c010cff2:	89 45 e8             	mov    %eax,-0x18(%ebp)
c010cff5:	8b 45 e8             	mov    -0x18(%ebp),%eax
c010cff8:	e9 97 01 00 00       	jmp    c010d194 <write_bl_num_recurs+0x1ee>
c010cffd:	c7 45 f4 01 00 00 00 	movl   $0x1,-0xc(%ebp)
c010d004:	c7 45 f0 00 00 00 00 	movl   $0x0,-0x10(%ebp)
c010d00b:	eb 19                	jmp    c010d026 <write_bl_num_recurs+0x80>
c010d00d:	a1 30 60 10 c0       	mov    0xc0106030,%eax
c010d012:	8b 00                	mov    (%eax),%eax
c010d014:	c1 e8 02             	shr    $0x2,%eax
c010d017:	89 c2                	mov    %eax,%edx
c010d019:	8b 45 f4             	mov    -0xc(%ebp),%eax
c010d01c:	0f af c2             	imul   %edx,%eax
c010d01f:	89 45 f4             	mov    %eax,-0xc(%ebp)
c010d022:	83 45 f0 01          	addl   $0x1,-0x10(%ebp)
c010d026:	8b 45 18             	mov    0x18(%ebp),%eax
c010d029:	83 e8 01             	sub    $0x1,%eax
c010d02c:	39 45 f0             	cmp    %eax,-0x10(%ebp)
c010d02f:	72 dc                	jb     c010d00d <write_bl_num_recurs+0x67>
c010d031:	a1 30 60 10 c0       	mov    0xc0106030,%eax
c010d036:	8b 00                	mov    (%eax),%eax
c010d038:	c1 e8 02             	shr    $0x2,%eax
c010d03b:	0f af 45 f4          	imul   -0xc(%ebp),%eax
c010d03f:	39 45 0c             	cmp    %eax,0xc(%ebp)
c010d042:	72 0a                	jb     c010d04e <write_bl_num_recurs+0xa8>
c010d044:	b8 00 00 00 00       	mov    $0x0,%eax
c010d049:	e9 46 01 00 00       	jmp    c010d194 <write_bl_num_recurs+0x1ee>
c010d04e:	a1 30 60 10 c0       	mov    0xc0106030,%eax
c010d053:	8b 00                	mov    (%eax),%eax
c010d055:	83 ec 0c             	sub    $0xc,%esp
c010d058:	50                   	push   %eax
c010d059:	e8 92 d7 ff ff       	call   c010a7f0 <kmalloc>
c010d05e:	83 c4 10             	add    $0x10,%esp
c010d061:	89 45 ec             	mov    %eax,-0x14(%ebp)
c010d064:	a1 30 60 10 c0       	mov    0xc0106030,%eax
c010d069:	8b 10                	mov    (%eax),%edx
c010d06b:	8b 45 08             	mov    0x8(%ebp),%eax
c010d06e:	8b 00                	mov    (%eax),%eax
c010d070:	ff 75 ec             	pushl  -0x14(%ebp)
c010d073:	52                   	push   %edx
c010d074:	6a 00                	push   $0x0
c010d076:	50                   	push   %eax
c010d077:	e8 cc fa ff ff       	call   c010cb48 <read_block>
c010d07c:	83 c4 10             	add    $0x10,%esp
c010d07f:	89 45 e8             	mov    %eax,-0x18(%ebp)
c010d082:	83 7d e8 00          	cmpl   $0x0,-0x18(%ebp)
c010d086:	79 16                	jns    c010d09e <write_bl_num_recurs+0xf8>
c010d088:	83 ec 0c             	sub    $0xc,%esp
c010d08b:	ff 75 ec             	pushl  -0x14(%ebp)
c010d08e:	e8 49 d8 ff ff       	call   c010a8dc <kfree>
c010d093:	83 c4 10             	add    $0x10,%esp
c010d096:	8b 45 e8             	mov    -0x18(%ebp),%eax
c010d099:	e9 f6 00 00 00       	jmp    c010d194 <write_bl_num_recurs+0x1ee>
c010d09e:	8b 45 0c             	mov    0xc(%ebp),%eax
c010d0a1:	ba 00 00 00 00       	mov    $0x0,%edx
c010d0a6:	f7 75 f4             	divl   -0xc(%ebp)
c010d0a9:	89 45 e4             	mov    %eax,-0x1c(%ebp)
c010d0ac:	8b 45 e4             	mov    -0x1c(%ebp),%eax
c010d0af:	0f af 45 f4          	imul   -0xc(%ebp),%eax
c010d0b3:	89 45 e0             	mov    %eax,-0x20(%ebp)
c010d0b6:	8b 45 e4             	mov    -0x1c(%ebp),%eax
c010d0b9:	8d 14 85 00 00 00 00 	lea    0x0(,%eax,4),%edx
c010d0c0:	8b 45 ec             	mov    -0x14(%ebp),%eax
c010d0c3:	01 d0                	add    %edx,%eax
c010d0c5:	8b 00                	mov    (%eax),%eax
c010d0c7:	89 45 dc             	mov    %eax,-0x24(%ebp)
c010d0ca:	8b 45 18             	mov    0x18(%ebp),%eax
c010d0cd:	8d 58 ff             	lea    -0x1(%eax),%ebx
c010d0d0:	8b 55 10             	mov    0x10(%ebp),%edx
c010d0d3:	8b 45 e0             	mov    -0x20(%ebp),%eax
c010d0d6:	3b 45 0c             	cmp    0xc(%ebp),%eax
c010d0d9:	73 08                	jae    c010d0e3 <write_bl_num_recurs+0x13d>
c010d0db:	8b 45 0c             	mov    0xc(%ebp),%eax
c010d0de:	2b 45 e0             	sub    -0x20(%ebp),%eax
c010d0e1:	eb 05                	jmp    c010d0e8 <write_bl_num_recurs+0x142>
c010d0e3:	b8 00 00 00 00       	mov    $0x0,%eax
c010d0e8:	8b 4d e4             	mov    -0x1c(%ebp),%ecx
c010d0eb:	8d 34 8d 00 00 00 00 	lea    0x0(,%ecx,4),%esi
c010d0f2:	8b 4d ec             	mov    -0x14(%ebp),%ecx
c010d0f5:	01 f1                	add    %esi,%ecx
c010d0f7:	83 ec 0c             	sub    $0xc,%esp
c010d0fa:	53                   	push   %ebx
c010d0fb:	ff 75 14             	pushl  0x14(%ebp)
c010d0fe:	52                   	push   %edx
c010d0ff:	50                   	push   %eax
c010d100:	51                   	push   %ecx
c010d101:	e8 a0 fe ff ff       	call   c010cfa6 <write_bl_num_recurs>
c010d106:	83 c4 20             	add    $0x20,%esp
c010d109:	89 45 e8             	mov    %eax,-0x18(%ebp)
c010d10c:	83 7d e8 00          	cmpl   $0x0,-0x18(%ebp)
c010d110:	79 13                	jns    c010d125 <write_bl_num_recurs+0x17f>
c010d112:	83 ec 0c             	sub    $0xc,%esp
c010d115:	ff 75 ec             	pushl  -0x14(%ebp)
c010d118:	e8 bf d7 ff ff       	call   c010a8dc <kfree>
c010d11d:	83 c4 10             	add    $0x10,%esp
c010d120:	8b 45 e8             	mov    -0x18(%ebp),%eax
c010d123:	eb 6f                	jmp    c010d194 <write_bl_num_recurs+0x1ee>
c010d125:	8b 45 e4             	mov    -0x1c(%ebp),%eax
c010d128:	8d 14 85 00 00 00 00 	lea    0x0(,%eax,4),%edx
c010d12f:	8b 45 ec             	mov    -0x14(%ebp),%eax
c010d132:	01 d0                	add    %edx,%eax
c010d134:	8b 00                	mov    (%eax),%eax
c010d136:	39 45 dc             	cmp    %eax,-0x24(%ebp)
c010d139:	74 46                	je     c010d181 <write_bl_num_recurs+0x1db>
c010d13b:	8b 45 e4             	mov    -0x1c(%ebp),%eax
c010d13e:	8d 14 85 00 00 00 00 	lea    0x0(,%eax,4),%edx
c010d145:	8b 45 ec             	mov    -0x14(%ebp),%eax
c010d148:	01 c2                	add    %eax,%edx
c010d14a:	8b 45 e4             	mov    -0x1c(%ebp),%eax
c010d14d:	c1 e0 02             	shl    $0x2,%eax
c010d150:	83 ec 0c             	sub    $0xc,%esp
c010d153:	ff 75 14             	pushl  0x14(%ebp)
c010d156:	52                   	push   %edx
c010d157:	6a 04                	push   $0x4
c010d159:	50                   	push   %eax
c010d15a:	ff 75 08             	pushl  0x8(%ebp)
c010d15d:	e8 3a fc ff ff       	call   c010cd9c <write_block_sparse>
c010d162:	83 c4 20             	add    $0x20,%esp
c010d165:	89 45 e8             	mov    %eax,-0x18(%ebp)
c010d168:	83 7d e8 00          	cmpl   $0x0,-0x18(%ebp)
c010d16c:	79 13                	jns    c010d181 <write_bl_num_recurs+0x1db>
c010d16e:	83 ec 0c             	sub    $0xc,%esp
c010d171:	ff 75 ec             	pushl  -0x14(%ebp)
c010d174:	e8 63 d7 ff ff       	call   c010a8dc <kfree>
c010d179:	83 c4 10             	add    $0x10,%esp
c010d17c:	8b 45 e8             	mov    -0x18(%ebp),%eax
c010d17f:	eb 13                	jmp    c010d194 <write_bl_num_recurs+0x1ee>
c010d181:	83 ec 0c             	sub    $0xc,%esp
c010d184:	ff 75 ec             	pushl  -0x14(%ebp)
c010d187:	e8 50 d7 ff ff       	call   c010a8dc <kfree>
c010d18c:	83 c4 10             	add    $0x10,%esp
c010d18f:	b8 00 00 00 00       	mov    $0x0,%eax
c010d194:	8d 65 f8             	lea    -0x8(%ebp),%esp
c010d197:	5b                   	pop    %ebx
c010d198:	5e                   	pop    %esi
c010d199:	5d                   	pop    %ebp
c010d19a:	c3                   	ret    

c010d19b <read_bl_nums_recurs>:
c010d19b:	55                   	push   %ebp
c010d19c:	89 e5                	mov    %esp,%ebp
c010d19e:	56                   	push   %esi
c010d19f:	53                   	push   %ebx
c010d1a0:	83 ec 20             	sub    $0x20,%esp
c010d1a3:	83 7d 18 02          	cmpl   $0x2,0x18(%ebp)
c010d1a7:	77 06                	ja     c010d1af <read_bl_nums_recurs+0x14>
c010d1a9:	83 7d 18 00          	cmpl   $0x0,0x18(%ebp)
c010d1ad:	75 10                	jne    c010d1bf <read_bl_nums_recurs+0x24>
c010d1af:	83 ec 0c             	sub    $0xc,%esp
c010d1b2:	68 bc 36 11 c0       	push   $0xc01136bc
c010d1b7:	e8 e7 4f 00 00       	call   c01121a3 <panic>
c010d1bc:	83 c4 10             	add    $0x10,%esp
c010d1bf:	83 7d 10 00          	cmpl   $0x0,0x10(%ebp)
c010d1c3:	75 0a                	jne    c010d1cf <read_bl_nums_recurs+0x34>
c010d1c5:	b8 00 00 00 00       	mov    $0x0,%eax
c010d1ca:	e9 b1 01 00 00       	jmp    c010d380 <read_bl_nums_recurs+0x1e5>
c010d1cf:	83 7d 18 01          	cmpl   $0x1,0x18(%ebp)
c010d1d3:	75 2b                	jne    c010d200 <read_bl_nums_recurs+0x65>
c010d1d5:	8b 45 10             	mov    0x10(%ebp),%eax
c010d1d8:	8d 14 85 00 00 00 00 	lea    0x0(,%eax,4),%edx
c010d1df:	8b 45 0c             	mov    0xc(%ebp),%eax
c010d1e2:	c1 e0 02             	shl    $0x2,%eax
c010d1e5:	ff 75 14             	pushl  0x14(%ebp)
c010d1e8:	52                   	push   %edx
c010d1e9:	50                   	push   %eax
c010d1ea:	ff 75 08             	pushl  0x8(%ebp)
c010d1ed:	e8 56 f9 ff ff       	call   c010cb48 <read_block>
c010d1f2:	83 c4 10             	add    $0x10,%esp
c010d1f5:	89 45 e4             	mov    %eax,-0x1c(%ebp)
c010d1f8:	8b 45 e4             	mov    -0x1c(%ebp),%eax
c010d1fb:	e9 80 01 00 00       	jmp    c010d380 <read_bl_nums_recurs+0x1e5>
c010d200:	c7 45 f4 01 00 00 00 	movl   $0x1,-0xc(%ebp)
c010d207:	c7 45 f0 00 00 00 00 	movl   $0x0,-0x10(%ebp)
c010d20e:	eb 19                	jmp    c010d229 <read_bl_nums_recurs+0x8e>
c010d210:	a1 30 60 10 c0       	mov    0xc0106030,%eax
c010d215:	8b 00                	mov    (%eax),%eax
c010d217:	c1 e8 02             	shr    $0x2,%eax
c010d21a:	89 c2                	mov    %eax,%edx
c010d21c:	8b 45 f4             	mov    -0xc(%ebp),%eax
c010d21f:	0f af c2             	imul   %edx,%eax
c010d222:	89 45 f4             	mov    %eax,-0xc(%ebp)
c010d225:	83 45 f0 01          	addl   $0x1,-0x10(%ebp)
c010d229:	8b 45 18             	mov    0x18(%ebp),%eax
c010d22c:	83 e8 01             	sub    $0x1,%eax
c010d22f:	39 45 f0             	cmp    %eax,-0x10(%ebp)
c010d232:	72 dc                	jb     c010d210 <read_bl_nums_recurs+0x75>
c010d234:	a1 30 60 10 c0       	mov    0xc0106030,%eax
c010d239:	8b 00                	mov    (%eax),%eax
c010d23b:	c1 e8 02             	shr    $0x2,%eax
c010d23e:	0f af 45 f4          	imul   -0xc(%ebp),%eax
c010d242:	39 45 0c             	cmp    %eax,0xc(%ebp)
c010d245:	72 0a                	jb     c010d251 <read_bl_nums_recurs+0xb6>
c010d247:	b8 00 00 00 00       	mov    $0x0,%eax
c010d24c:	e9 2f 01 00 00       	jmp    c010d380 <read_bl_nums_recurs+0x1e5>
c010d251:	a1 30 60 10 c0       	mov    0xc0106030,%eax
c010d256:	8b 00                	mov    (%eax),%eax
c010d258:	83 ec 0c             	sub    $0xc,%esp
c010d25b:	50                   	push   %eax
c010d25c:	e8 8f d5 ff ff       	call   c010a7f0 <kmalloc>
c010d261:	83 c4 10             	add    $0x10,%esp
c010d264:	89 45 e8             	mov    %eax,-0x18(%ebp)
c010d267:	a1 30 60 10 c0       	mov    0xc0106030,%eax
c010d26c:	8b 00                	mov    (%eax),%eax
c010d26e:	ff 75 e8             	pushl  -0x18(%ebp)
c010d271:	50                   	push   %eax
c010d272:	6a 00                	push   $0x0
c010d274:	ff 75 08             	pushl  0x8(%ebp)
c010d277:	e8 cc f8 ff ff       	call   c010cb48 <read_block>
c010d27c:	83 c4 10             	add    $0x10,%esp
c010d27f:	89 45 e4             	mov    %eax,-0x1c(%ebp)
c010d282:	83 7d e4 00          	cmpl   $0x0,-0x1c(%ebp)
c010d286:	79 16                	jns    c010d29e <read_bl_nums_recurs+0x103>
c010d288:	83 ec 0c             	sub    $0xc,%esp
c010d28b:	ff 75 e8             	pushl  -0x18(%ebp)
c010d28e:	e8 49 d6 ff ff       	call   c010a8dc <kfree>
c010d293:	83 c4 10             	add    $0x10,%esp
c010d296:	8b 45 e4             	mov    -0x1c(%ebp),%eax
c010d299:	e9 e2 00 00 00       	jmp    c010d380 <read_bl_nums_recurs+0x1e5>
c010d29e:	8b 45 0c             	mov    0xc(%ebp),%eax
c010d2a1:	ba 00 00 00 00       	mov    $0x0,%edx
c010d2a6:	f7 75 f4             	divl   -0xc(%ebp)
c010d2a9:	89 45 e0             	mov    %eax,-0x20(%ebp)
c010d2ac:	8b 55 0c             	mov    0xc(%ebp),%edx
c010d2af:	8b 45 10             	mov    0x10(%ebp),%eax
c010d2b2:	01 d0                	add    %edx,%eax
c010d2b4:	83 e8 01             	sub    $0x1,%eax
c010d2b7:	ba 00 00 00 00       	mov    $0x0,%edx
c010d2bc:	f7 75 f4             	divl   -0xc(%ebp)
c010d2bf:	89 45 dc             	mov    %eax,-0x24(%ebp)
c010d2c2:	8b 45 e0             	mov    -0x20(%ebp),%eax
c010d2c5:	89 45 ec             	mov    %eax,-0x14(%ebp)
c010d2c8:	e9 94 00 00 00       	jmp    c010d361 <read_bl_nums_recurs+0x1c6>
c010d2cd:	8b 45 ec             	mov    -0x14(%ebp),%eax
c010d2d0:	0f af 45 f4          	imul   -0xc(%ebp),%eax
c010d2d4:	89 45 d8             	mov    %eax,-0x28(%ebp)
c010d2d7:	8b 45 18             	mov    0x18(%ebp),%eax
c010d2da:	8d 58 ff             	lea    -0x1(%eax),%ebx
c010d2dd:	8b 45 d8             	mov    -0x28(%ebp),%eax
c010d2e0:	3b 45 0c             	cmp    0xc(%ebp),%eax
c010d2e3:	72 21                	jb     c010d306 <read_bl_nums_recurs+0x16b>
c010d2e5:	8b 55 0c             	mov    0xc(%ebp),%edx
c010d2e8:	8b 45 10             	mov    0x10(%ebp),%eax
c010d2eb:	01 d0                	add    %edx,%eax
c010d2ed:	39 45 d8             	cmp    %eax,-0x28(%ebp)
c010d2f0:	73 0d                	jae    c010d2ff <read_bl_nums_recurs+0x164>
c010d2f2:	8b 55 0c             	mov    0xc(%ebp),%edx
c010d2f5:	8b 45 10             	mov    0x10(%ebp),%eax
c010d2f8:	01 d0                	add    %edx,%eax
c010d2fa:	2b 45 d8             	sub    -0x28(%ebp),%eax
c010d2fd:	eb 0a                	jmp    c010d309 <read_bl_nums_recurs+0x16e>
c010d2ff:	b8 00 00 00 00       	mov    $0x0,%eax
c010d304:	eb 03                	jmp    c010d309 <read_bl_nums_recurs+0x16e>
c010d306:	8b 45 10             	mov    0x10(%ebp),%eax
c010d309:	8b 55 d8             	mov    -0x28(%ebp),%edx
c010d30c:	3b 55 0c             	cmp    0xc(%ebp),%edx
c010d30f:	73 08                	jae    c010d319 <read_bl_nums_recurs+0x17e>
c010d311:	8b 55 0c             	mov    0xc(%ebp),%edx
c010d314:	2b 55 d8             	sub    -0x28(%ebp),%edx
c010d317:	eb 05                	jmp    c010d31e <read_bl_nums_recurs+0x183>
c010d319:	ba 00 00 00 00       	mov    $0x0,%edx
c010d31e:	8b 4d ec             	mov    -0x14(%ebp),%ecx
c010d321:	8d 34 8d 00 00 00 00 	lea    0x0(,%ecx,4),%esi
c010d328:	8b 4d e8             	mov    -0x18(%ebp),%ecx
c010d32b:	01 f1                	add    %esi,%ecx
c010d32d:	8b 09                	mov    (%ecx),%ecx
c010d32f:	83 ec 0c             	sub    $0xc,%esp
c010d332:	53                   	push   %ebx
c010d333:	ff 75 14             	pushl  0x14(%ebp)
c010d336:	50                   	push   %eax
c010d337:	52                   	push   %edx
c010d338:	51                   	push   %ecx
c010d339:	e8 5d fe ff ff       	call   c010d19b <read_bl_nums_recurs>
c010d33e:	83 c4 20             	add    $0x20,%esp
c010d341:	89 45 e4             	mov    %eax,-0x1c(%ebp)
c010d344:	83 7d e4 00          	cmpl   $0x0,-0x1c(%ebp)
c010d348:	79 13                	jns    c010d35d <read_bl_nums_recurs+0x1c2>
c010d34a:	83 ec 0c             	sub    $0xc,%esp
c010d34d:	ff 75 e8             	pushl  -0x18(%ebp)
c010d350:	e8 87 d5 ff ff       	call   c010a8dc <kfree>
c010d355:	83 c4 10             	add    $0x10,%esp
c010d358:	8b 45 e4             	mov    -0x1c(%ebp),%eax
c010d35b:	eb 23                	jmp    c010d380 <read_bl_nums_recurs+0x1e5>
c010d35d:	83 45 ec 01          	addl   $0x1,-0x14(%ebp)
c010d361:	8b 45 ec             	mov    -0x14(%ebp),%eax
c010d364:	3b 45 dc             	cmp    -0x24(%ebp),%eax
c010d367:	0f 86 60 ff ff ff    	jbe    c010d2cd <read_bl_nums_recurs+0x132>
c010d36d:	83 ec 0c             	sub    $0xc,%esp
c010d370:	ff 75 e8             	pushl  -0x18(%ebp)
c010d373:	e8 64 d5 ff ff       	call   c010a8dc <kfree>
c010d378:	83 c4 10             	add    $0x10,%esp
c010d37b:	b8 00 00 00 00       	mov    $0x0,%eax
c010d380:	8d 65 f8             	lea    -0x8(%ebp),%esp
c010d383:	5b                   	pop    %ebx
c010d384:	5e                   	pop    %esi
c010d385:	5d                   	pop    %ebp
c010d386:	c3                   	ret    

c010d387 <read_bl_nums>:
c010d387:	55                   	push   %ebp
c010d388:	89 e5                	mov    %esp,%ebp
c010d38a:	53                   	push   %ebx
c010d38b:	83 ec 24             	sub    $0x24,%esp
c010d38e:	83 ec 0c             	sub    $0xc,%esp
c010d391:	6a 40                	push   $0x40
c010d393:	e8 58 d4 ff ff       	call   c010a7f0 <kmalloc>
c010d398:	83 c4 10             	add    $0x10,%esp
c010d39b:	89 45 ec             	mov    %eax,-0x14(%ebp)
c010d39e:	83 ec 08             	sub    $0x8,%esp
c010d3a1:	ff 75 ec             	pushl  -0x14(%ebp)
c010d3a4:	ff 75 08             	pushl  0x8(%ebp)
c010d3a7:	e8 ce 1c 00 00       	call   c010f07a <get_inode>
c010d3ac:	83 c4 10             	add    $0x10,%esp
c010d3af:	89 45 e8             	mov    %eax,-0x18(%ebp)
c010d3b2:	83 7d e8 00          	cmpl   $0x0,-0x18(%ebp)
c010d3b6:	79 16                	jns    c010d3ce <read_bl_nums+0x47>
c010d3b8:	83 ec 0c             	sub    $0xc,%esp
c010d3bb:	ff 75 ec             	pushl  -0x14(%ebp)
c010d3be:	e8 19 d5 ff ff       	call   c010a8dc <kfree>
c010d3c3:	83 c4 10             	add    $0x10,%esp
c010d3c6:	8b 45 e8             	mov    -0x18(%ebp),%eax
c010d3c9:	e9 c3 01 00 00       	jmp    c010d591 <read_bl_nums+0x20a>
c010d3ce:	c7 45 f4 00 00 00 00 	movl   $0x0,-0xc(%ebp)
c010d3d5:	8b 45 0c             	mov    0xc(%ebp),%eax
c010d3d8:	89 45 f0             	mov    %eax,-0x10(%ebp)
c010d3db:	eb 24                	jmp    c010d401 <read_bl_nums+0x7a>
c010d3dd:	8b 45 f4             	mov    -0xc(%ebp),%eax
c010d3e0:	8d 14 85 00 00 00 00 	lea    0x0(,%eax,4),%edx
c010d3e7:	8b 45 14             	mov    0x14(%ebp),%eax
c010d3ea:	8d 0c 02             	lea    (%edx,%eax,1),%ecx
c010d3ed:	8b 45 ec             	mov    -0x14(%ebp),%eax
c010d3f0:	8b 55 f0             	mov    -0x10(%ebp),%edx
c010d3f3:	8b 44 90 08          	mov    0x8(%eax,%edx,4),%eax
c010d3f7:	89 01                	mov    %eax,(%ecx)
c010d3f9:	83 45 f4 01          	addl   $0x1,-0xc(%ebp)
c010d3fd:	83 45 f0 01          	addl   $0x1,-0x10(%ebp)
c010d401:	83 7d f0 0b          	cmpl   $0xb,-0x10(%ebp)
c010d405:	77 0d                	ja     c010d414 <read_bl_nums+0x8d>
c010d407:	8b 55 0c             	mov    0xc(%ebp),%edx
c010d40a:	8b 45 10             	mov    0x10(%ebp),%eax
c010d40d:	01 d0                	add    %edx,%eax
c010d40f:	39 45 f0             	cmp    %eax,-0x10(%ebp)
c010d412:	72 c9                	jb     c010d3dd <read_bl_nums+0x56>
c010d414:	c7 45 e4 0c 00 00 00 	movl   $0xc,-0x1c(%ebp)
c010d41b:	a1 30 60 10 c0       	mov    0xc0106030,%eax
c010d420:	8b 00                	mov    (%eax),%eax
c010d422:	c1 e8 02             	shr    $0x2,%eax
c010d425:	89 c2                	mov    %eax,%edx
c010d427:	8b 45 e4             	mov    -0x1c(%ebp),%eax
c010d42a:	01 d0                	add    %edx,%eax
c010d42c:	89 45 e0             	mov    %eax,-0x20(%ebp)
c010d42f:	8b 45 0c             	mov    0xc(%ebp),%eax
c010d432:	3b 45 e0             	cmp    -0x20(%ebp),%eax
c010d435:	0f 83 8c 00 00 00    	jae    c010d4c7 <read_bl_nums+0x140>
c010d43b:	8b 55 0c             	mov    0xc(%ebp),%edx
c010d43e:	8b 45 10             	mov    0x10(%ebp),%eax
c010d441:	01 d0                	add    %edx,%eax
c010d443:	39 45 e4             	cmp    %eax,-0x1c(%ebp)
c010d446:	73 7f                	jae    c010d4c7 <read_bl_nums+0x140>
c010d448:	8b 45 f4             	mov    -0xc(%ebp),%eax
c010d44b:	8d 14 85 00 00 00 00 	lea    0x0(,%eax,4),%edx
c010d452:	8b 45 14             	mov    0x14(%ebp),%eax
c010d455:	8d 1c 02             	lea    (%edx,%eax,1),%ebx
c010d458:	8b 45 e4             	mov    -0x1c(%ebp),%eax
c010d45b:	3b 45 0c             	cmp    0xc(%ebp),%eax
c010d45e:	72 21                	jb     c010d481 <read_bl_nums+0xfa>
c010d460:	8b 55 0c             	mov    0xc(%ebp),%edx
c010d463:	8b 45 10             	mov    0x10(%ebp),%eax
c010d466:	01 d0                	add    %edx,%eax
c010d468:	39 45 e4             	cmp    %eax,-0x1c(%ebp)
c010d46b:	73 0d                	jae    c010d47a <read_bl_nums+0xf3>
c010d46d:	8b 55 0c             	mov    0xc(%ebp),%edx
c010d470:	8b 45 10             	mov    0x10(%ebp),%eax
c010d473:	01 d0                	add    %edx,%eax
c010d475:	2b 45 e4             	sub    -0x1c(%ebp),%eax
c010d478:	eb 0a                	jmp    c010d484 <read_bl_nums+0xfd>
c010d47a:	b8 00 00 00 00       	mov    $0x0,%eax
c010d47f:	eb 03                	jmp    c010d484 <read_bl_nums+0xfd>
c010d481:	8b 45 10             	mov    0x10(%ebp),%eax
c010d484:	8b 55 e4             	mov    -0x1c(%ebp),%edx
c010d487:	3b 55 0c             	cmp    0xc(%ebp),%edx
c010d48a:	73 08                	jae    c010d494 <read_bl_nums+0x10d>
c010d48c:	8b 55 0c             	mov    0xc(%ebp),%edx
c010d48f:	2b 55 e4             	sub    -0x1c(%ebp),%edx
c010d492:	eb 05                	jmp    c010d499 <read_bl_nums+0x112>
c010d494:	ba 00 00 00 00       	mov    $0x0,%edx
c010d499:	8b 4d ec             	mov    -0x14(%ebp),%ecx
c010d49c:	8b 49 38             	mov    0x38(%ecx),%ecx
c010d49f:	83 ec 0c             	sub    $0xc,%esp
c010d4a2:	6a 01                	push   $0x1
c010d4a4:	53                   	push   %ebx
c010d4a5:	50                   	push   %eax
c010d4a6:	52                   	push   %edx
c010d4a7:	51                   	push   %ecx
c010d4a8:	e8 ee fc ff ff       	call   c010d19b <read_bl_nums_recurs>
c010d4ad:	83 c4 20             	add    $0x20,%esp
c010d4b0:	89 45 e8             	mov    %eax,-0x18(%ebp)
c010d4b3:	83 7d e8 00          	cmpl   $0x0,-0x18(%ebp)
c010d4b7:	79 08                	jns    c010d4c1 <read_bl_nums+0x13a>
c010d4b9:	8b 45 e8             	mov    -0x18(%ebp),%eax
c010d4bc:	e9 d0 00 00 00       	jmp    c010d591 <read_bl_nums+0x20a>
c010d4c1:	8b 45 e8             	mov    -0x18(%ebp),%eax
c010d4c4:	01 45 f4             	add    %eax,-0xc(%ebp)
c010d4c7:	8b 45 e0             	mov    -0x20(%ebp),%eax
c010d4ca:	89 45 e4             	mov    %eax,-0x1c(%ebp)
c010d4cd:	a1 30 60 10 c0       	mov    0xc0106030,%eax
c010d4d2:	8b 00                	mov    (%eax),%eax
c010d4d4:	c1 e8 02             	shr    $0x2,%eax
c010d4d7:	89 c2                	mov    %eax,%edx
c010d4d9:	a1 30 60 10 c0       	mov    0xc0106030,%eax
c010d4de:	8b 00                	mov    (%eax),%eax
c010d4e0:	c1 e8 02             	shr    $0x2,%eax
c010d4e3:	0f af c2             	imul   %edx,%eax
c010d4e6:	01 45 e0             	add    %eax,-0x20(%ebp)
c010d4e9:	8b 45 0c             	mov    0xc(%ebp),%eax
c010d4ec:	3b 45 e0             	cmp    -0x20(%ebp),%eax
c010d4ef:	0f 83 89 00 00 00    	jae    c010d57e <read_bl_nums+0x1f7>
c010d4f5:	8b 55 0c             	mov    0xc(%ebp),%edx
c010d4f8:	8b 45 10             	mov    0x10(%ebp),%eax
c010d4fb:	01 d0                	add    %edx,%eax
c010d4fd:	39 45 e4             	cmp    %eax,-0x1c(%ebp)
c010d500:	73 7c                	jae    c010d57e <read_bl_nums+0x1f7>
c010d502:	8b 45 f4             	mov    -0xc(%ebp),%eax
c010d505:	8d 14 85 00 00 00 00 	lea    0x0(,%eax,4),%edx
c010d50c:	8b 45 14             	mov    0x14(%ebp),%eax
c010d50f:	8d 1c 02             	lea    (%edx,%eax,1),%ebx
c010d512:	8b 45 e4             	mov    -0x1c(%ebp),%eax
c010d515:	3b 45 0c             	cmp    0xc(%ebp),%eax
c010d518:	72 21                	jb     c010d53b <read_bl_nums+0x1b4>
c010d51a:	8b 55 0c             	mov    0xc(%ebp),%edx
c010d51d:	8b 45 10             	mov    0x10(%ebp),%eax
c010d520:	01 d0                	add    %edx,%eax
c010d522:	39 45 e4             	cmp    %eax,-0x1c(%ebp)
c010d525:	73 0d                	jae    c010d534 <read_bl_nums+0x1ad>
c010d527:	8b 55 0c             	mov    0xc(%ebp),%edx
c010d52a:	8b 45 10             	mov    0x10(%ebp),%eax
c010d52d:	01 d0                	add    %edx,%eax
c010d52f:	2b 45 e4             	sub    -0x1c(%ebp),%eax
c010d532:	eb 0a                	jmp    c010d53e <read_bl_nums+0x1b7>
c010d534:	b8 00 00 00 00       	mov    $0x0,%eax
c010d539:	eb 03                	jmp    c010d53e <read_bl_nums+0x1b7>
c010d53b:	8b 45 10             	mov    0x10(%ebp),%eax
c010d53e:	8b 55 e4             	mov    -0x1c(%ebp),%edx
c010d541:	3b 55 0c             	cmp    0xc(%ebp),%edx
c010d544:	73 08                	jae    c010d54e <read_bl_nums+0x1c7>
c010d546:	8b 55 0c             	mov    0xc(%ebp),%edx
c010d549:	2b 55 e4             	sub    -0x1c(%ebp),%edx
c010d54c:	eb 05                	jmp    c010d553 <read_bl_nums+0x1cc>
c010d54e:	ba 00 00 00 00       	mov    $0x0,%edx
c010d553:	8b 4d ec             	mov    -0x14(%ebp),%ecx
c010d556:	8b 49 3c             	mov    0x3c(%ecx),%ecx
c010d559:	83 ec 0c             	sub    $0xc,%esp
c010d55c:	6a 02                	push   $0x2
c010d55e:	53                   	push   %ebx
c010d55f:	50                   	push   %eax
c010d560:	52                   	push   %edx
c010d561:	51                   	push   %ecx
c010d562:	e8 34 fc ff ff       	call   c010d19b <read_bl_nums_recurs>
c010d567:	83 c4 20             	add    $0x20,%esp
c010d56a:	89 45 e8             	mov    %eax,-0x18(%ebp)
c010d56d:	83 7d e8 00          	cmpl   $0x0,-0x18(%ebp)
c010d571:	79 05                	jns    c010d578 <read_bl_nums+0x1f1>
c010d573:	8b 45 e8             	mov    -0x18(%ebp),%eax
c010d576:	eb 19                	jmp    c010d591 <read_bl_nums+0x20a>
c010d578:	8b 45 e8             	mov    -0x18(%ebp),%eax
c010d57b:	01 45 f4             	add    %eax,-0xc(%ebp)
c010d57e:	83 ec 0c             	sub    $0xc,%esp
c010d581:	ff 75 ec             	pushl  -0x14(%ebp)
c010d584:	e8 53 d3 ff ff       	call   c010a8dc <kfree>
c010d589:	83 c4 10             	add    $0x10,%esp
c010d58c:	b8 00 00 00 00       	mov    $0x0,%eax
c010d591:	8b 5d fc             	mov    -0x4(%ebp),%ebx
c010d594:	c9                   	leave  
c010d595:	c3                   	ret    

c010d596 <write_bl_num>:
c010d596:	55                   	push   %ebp
c010d597:	89 e5                	mov    %esp,%ebp
c010d599:	83 ec 18             	sub    $0x18,%esp
c010d59c:	83 ec 0c             	sub    $0xc,%esp
c010d59f:	6a 40                	push   $0x40
c010d5a1:	e8 4a d2 ff ff       	call   c010a7f0 <kmalloc>
c010d5a6:	83 c4 10             	add    $0x10,%esp
c010d5a9:	89 45 f4             	mov    %eax,-0xc(%ebp)
c010d5ac:	83 ec 08             	sub    $0x8,%esp
c010d5af:	ff 75 f4             	pushl  -0xc(%ebp)
c010d5b2:	ff 75 08             	pushl  0x8(%ebp)
c010d5b5:	e8 c0 1a 00 00       	call   c010f07a <get_inode>
c010d5ba:	83 c4 10             	add    $0x10,%esp
c010d5bd:	89 45 f0             	mov    %eax,-0x10(%ebp)
c010d5c0:	83 7d f0 00          	cmpl   $0x0,-0x10(%ebp)
c010d5c4:	79 16                	jns    c010d5dc <write_bl_num+0x46>
c010d5c6:	83 ec 0c             	sub    $0xc,%esp
c010d5c9:	ff 75 f4             	pushl  -0xc(%ebp)
c010d5cc:	e8 0b d3 ff ff       	call   c010a8dc <kfree>
c010d5d1:	83 c4 10             	add    $0x10,%esp
c010d5d4:	8b 45 f0             	mov    -0x10(%ebp),%eax
c010d5d7:	e9 3d 01 00 00       	jmp    c010d719 <write_bl_num+0x183>
c010d5dc:	83 7d 0c 0b          	cmpl   $0xb,0xc(%ebp)
c010d5e0:	77 12                	ja     c010d5f4 <write_bl_num+0x5e>
c010d5e2:	8b 45 f4             	mov    -0xc(%ebp),%eax
c010d5e5:	8b 55 0c             	mov    0xc(%ebp),%edx
c010d5e8:	8b 4d 10             	mov    0x10(%ebp),%ecx
c010d5eb:	89 4c 90 08          	mov    %ecx,0x8(%eax,%edx,4)
c010d5ef:	e9 00 01 00 00       	jmp    c010d6f4 <write_bl_num+0x15e>
c010d5f4:	c7 45 ec 0c 00 00 00 	movl   $0xc,-0x14(%ebp)
c010d5fb:	a1 30 60 10 c0       	mov    0xc0106030,%eax
c010d600:	8b 00                	mov    (%eax),%eax
c010d602:	c1 e8 02             	shr    $0x2,%eax
c010d605:	89 c2                	mov    %eax,%edx
c010d607:	8b 45 ec             	mov    -0x14(%ebp),%eax
c010d60a:	01 d0                	add    %edx,%eax
c010d60c:	89 45 e8             	mov    %eax,-0x18(%ebp)
c010d60f:	8b 45 ec             	mov    -0x14(%ebp),%eax
c010d612:	3b 45 0c             	cmp    0xc(%ebp),%eax
c010d615:	77 50                	ja     c010d667 <write_bl_num+0xd1>
c010d617:	8b 45 0c             	mov    0xc(%ebp),%eax
c010d61a:	3b 45 e8             	cmp    -0x18(%ebp),%eax
c010d61d:	73 48                	jae    c010d667 <write_bl_num+0xd1>
c010d61f:	a1 30 60 10 c0       	mov    0xc0106030,%eax
c010d624:	8b 48 14             	mov    0x14(%eax),%ecx
c010d627:	8b 45 08             	mov    0x8(%ebp),%eax
c010d62a:	ba 00 00 00 00       	mov    $0x0,%edx
c010d62f:	f7 f1                	div    %ecx
c010d631:	89 c1                	mov    %eax,%ecx
c010d633:	8b 45 0c             	mov    0xc(%ebp),%eax
c010d636:	2b 45 ec             	sub    -0x14(%ebp),%eax
c010d639:	8b 55 f4             	mov    -0xc(%ebp),%edx
c010d63c:	83 c2 38             	add    $0x38,%edx
c010d63f:	83 ec 0c             	sub    $0xc,%esp
c010d642:	6a 01                	push   $0x1
c010d644:	51                   	push   %ecx
c010d645:	ff 75 10             	pushl  0x10(%ebp)
c010d648:	50                   	push   %eax
c010d649:	52                   	push   %edx
c010d64a:	e8 57 f9 ff ff       	call   c010cfa6 <write_bl_num_recurs>
c010d64f:	83 c4 20             	add    $0x20,%esp
c010d652:	89 45 f0             	mov    %eax,-0x10(%ebp)
c010d655:	83 7d f0 00          	cmpl   $0x0,-0x10(%ebp)
c010d659:	0f 89 91 00 00 00    	jns    c010d6f0 <write_bl_num+0x15a>
c010d65f:	8b 45 f0             	mov    -0x10(%ebp),%eax
c010d662:	e9 b2 00 00 00       	jmp    c010d719 <write_bl_num+0x183>
c010d667:	8b 45 e8             	mov    -0x18(%ebp),%eax
c010d66a:	89 45 ec             	mov    %eax,-0x14(%ebp)
c010d66d:	a1 30 60 10 c0       	mov    0xc0106030,%eax
c010d672:	8b 00                	mov    (%eax),%eax
c010d674:	c1 e8 02             	shr    $0x2,%eax
c010d677:	89 c2                	mov    %eax,%edx
c010d679:	a1 30 60 10 c0       	mov    0xc0106030,%eax
c010d67e:	8b 00                	mov    (%eax),%eax
c010d680:	c1 e8 02             	shr    $0x2,%eax
c010d683:	0f af c2             	imul   %edx,%eax
c010d686:	01 45 e8             	add    %eax,-0x18(%ebp)
c010d689:	8b 45 ec             	mov    -0x14(%ebp),%eax
c010d68c:	3b 45 0c             	cmp    0xc(%ebp),%eax
c010d68f:	77 49                	ja     c010d6da <write_bl_num+0x144>
c010d691:	8b 45 0c             	mov    0xc(%ebp),%eax
c010d694:	3b 45 e8             	cmp    -0x18(%ebp),%eax
c010d697:	73 41                	jae    c010d6da <write_bl_num+0x144>
c010d699:	a1 30 60 10 c0       	mov    0xc0106030,%eax
c010d69e:	8b 48 14             	mov    0x14(%eax),%ecx
c010d6a1:	8b 45 08             	mov    0x8(%ebp),%eax
c010d6a4:	ba 00 00 00 00       	mov    $0x0,%edx
c010d6a9:	f7 f1                	div    %ecx
c010d6ab:	89 c1                	mov    %eax,%ecx
c010d6ad:	8b 45 0c             	mov    0xc(%ebp),%eax
c010d6b0:	2b 45 ec             	sub    -0x14(%ebp),%eax
c010d6b3:	8b 55 f4             	mov    -0xc(%ebp),%edx
c010d6b6:	83 c2 3c             	add    $0x3c,%edx
c010d6b9:	83 ec 0c             	sub    $0xc,%esp
c010d6bc:	6a 02                	push   $0x2
c010d6be:	51                   	push   %ecx
c010d6bf:	ff 75 10             	pushl  0x10(%ebp)
c010d6c2:	50                   	push   %eax
c010d6c3:	52                   	push   %edx
c010d6c4:	e8 dd f8 ff ff       	call   c010cfa6 <write_bl_num_recurs>
c010d6c9:	83 c4 20             	add    $0x20,%esp
c010d6cc:	89 45 f0             	mov    %eax,-0x10(%ebp)
c010d6cf:	83 7d f0 00          	cmpl   $0x0,-0x10(%ebp)
c010d6d3:	79 1e                	jns    c010d6f3 <write_bl_num+0x15d>
c010d6d5:	8b 45 f0             	mov    -0x10(%ebp),%eax
c010d6d8:	eb 3f                	jmp    c010d719 <write_bl_num+0x183>
c010d6da:	90                   	nop
c010d6db:	83 ec 0c             	sub    $0xc,%esp
c010d6de:	ff 75 f4             	pushl  -0xc(%ebp)
c010d6e1:	e8 f6 d1 ff ff       	call   c010a8dc <kfree>
c010d6e6:	83 c4 10             	add    $0x10,%esp
c010d6e9:	b8 f7 ff ff ff       	mov    $0xfffffff7,%eax
c010d6ee:	eb 29                	jmp    c010d719 <write_bl_num+0x183>
c010d6f0:	90                   	nop
c010d6f1:	eb 01                	jmp    c010d6f4 <write_bl_num+0x15e>
c010d6f3:	90                   	nop
c010d6f4:	83 ec 08             	sub    $0x8,%esp
c010d6f7:	ff 75 f4             	pushl  -0xc(%ebp)
c010d6fa:	ff 75 08             	pushl  0x8(%ebp)
c010d6fd:	e8 6d 1a 00 00       	call   c010f16f <sync_inode>
c010d702:	83 c4 10             	add    $0x10,%esp
c010d705:	89 45 f0             	mov    %eax,-0x10(%ebp)
c010d708:	83 ec 0c             	sub    $0xc,%esp
c010d70b:	ff 75 f4             	pushl  -0xc(%ebp)
c010d70e:	e8 c9 d1 ff ff       	call   c010a8dc <kfree>
c010d713:	83 c4 10             	add    $0x10,%esp
c010d716:	8b 45 f0             	mov    -0x10(%ebp),%eax
c010d719:	c9                   	leave  
c010d71a:	c3                   	ret    

c010d71b <write_inode>:
c010d71b:	55                   	push   %ebp
c010d71c:	89 e5                	mov    %esp,%ebp
c010d71e:	57                   	push   %edi
c010d71f:	56                   	push   %esi
c010d720:	53                   	push   %ebx
c010d721:	83 ec 3c             	sub    $0x3c,%esp
c010d724:	83 ec 08             	sub    $0x8,%esp
c010d727:	8d 45 c0             	lea    -0x40(%ebp),%eax
c010d72a:	50                   	push   %eax
c010d72b:	ff 75 08             	pushl  0x8(%ebp)
c010d72e:	e8 41 f3 ff ff       	call   c010ca74 <get_inode_fsize>
c010d733:	83 c4 10             	add    $0x10,%esp
c010d736:	89 45 dc             	mov    %eax,-0x24(%ebp)
c010d739:	8b 55 0c             	mov    0xc(%ebp),%edx
c010d73c:	8b 45 10             	mov    0x10(%ebp),%eax
c010d73f:	01 c2                	add    %eax,%edx
c010d741:	8b 45 c0             	mov    -0x40(%ebp),%eax
c010d744:	39 c2                	cmp    %eax,%edx
c010d746:	76 0a                	jbe    c010d752 <write_inode+0x37>
c010d748:	b8 fa ff ff ff       	mov    $0xfffffffa,%eax
c010d74d:	e9 e2 01 00 00       	jmp    c010d934 <write_inode+0x219>
c010d752:	a1 30 60 10 c0       	mov    0xc0106030,%eax
c010d757:	8b 18                	mov    (%eax),%ebx
c010d759:	8b 45 0c             	mov    0xc(%ebp),%eax
c010d75c:	ba 00 00 00 00       	mov    $0x0,%edx
c010d761:	f7 f3                	div    %ebx
c010d763:	89 45 d8             	mov    %eax,-0x28(%ebp)
c010d766:	8b 55 0c             	mov    0xc(%ebp),%edx
c010d769:	8b 45 10             	mov    0x10(%ebp),%eax
c010d76c:	01 d0                	add    %edx,%eax
c010d76e:	8d 48 ff             	lea    -0x1(%eax),%ecx
c010d771:	a1 30 60 10 c0       	mov    0xc0106030,%eax
c010d776:	8b 30                	mov    (%eax),%esi
c010d778:	89 c8                	mov    %ecx,%eax
c010d77a:	ba 00 00 00 00       	mov    $0x0,%edx
c010d77f:	f7 f6                	div    %esi
c010d781:	89 45 d4             	mov    %eax,-0x2c(%ebp)
c010d784:	8b 45 d4             	mov    -0x2c(%ebp),%eax
c010d787:	2b 45 d8             	sub    -0x28(%ebp),%eax
c010d78a:	83 c0 01             	add    $0x1,%eax
c010d78d:	89 45 d0             	mov    %eax,-0x30(%ebp)
c010d790:	8b 45 d0             	mov    -0x30(%ebp),%eax
c010d793:	c1 e0 02             	shl    $0x2,%eax
c010d796:	83 ec 0c             	sub    $0xc,%esp
c010d799:	50                   	push   %eax
c010d79a:	e8 51 d0 ff ff       	call   c010a7f0 <kmalloc>
c010d79f:	83 c4 10             	add    $0x10,%esp
c010d7a2:	89 45 cc             	mov    %eax,-0x34(%ebp)
c010d7a5:	ff 75 cc             	pushl  -0x34(%ebp)
c010d7a8:	ff 75 d0             	pushl  -0x30(%ebp)
c010d7ab:	ff 75 d8             	pushl  -0x28(%ebp)
c010d7ae:	ff 75 08             	pushl  0x8(%ebp)
c010d7b1:	e8 d1 fb ff ff       	call   c010d387 <read_bl_nums>
c010d7b6:	83 c4 10             	add    $0x10,%esp
c010d7b9:	89 45 dc             	mov    %eax,-0x24(%ebp)
c010d7bc:	83 7d dc 00          	cmpl   $0x0,-0x24(%ebp)
c010d7c0:	79 16                	jns    c010d7d8 <write_inode+0xbd>
c010d7c2:	83 ec 0c             	sub    $0xc,%esp
c010d7c5:	ff 75 cc             	pushl  -0x34(%ebp)
c010d7c8:	e8 0f d1 ff ff       	call   c010a8dc <kfree>
c010d7cd:	83 c4 10             	add    $0x10,%esp
c010d7d0:	8b 45 dc             	mov    -0x24(%ebp),%eax
c010d7d3:	e9 5c 01 00 00       	jmp    c010d934 <write_inode+0x219>
c010d7d8:	c7 45 e4 00 00 00 00 	movl   $0x0,-0x1c(%ebp)
c010d7df:	c7 45 e0 00 00 00 00 	movl   $0x0,-0x20(%ebp)
c010d7e6:	e9 2a 01 00 00       	jmp    c010d915 <write_inode+0x1fa>
c010d7eb:	8b 55 e0             	mov    -0x20(%ebp),%edx
c010d7ee:	8b 45 d8             	mov    -0x28(%ebp),%eax
c010d7f1:	01 c2                	add    %eax,%edx
c010d7f3:	a1 30 60 10 c0       	mov    0xc0106030,%eax
c010d7f8:	8b 00                	mov    (%eax),%eax
c010d7fa:	0f af c2             	imul   %edx,%eax
c010d7fd:	89 45 c8             	mov    %eax,-0x38(%ebp)
c010d800:	8b 45 e0             	mov    -0x20(%ebp),%eax
c010d803:	8d 14 85 00 00 00 00 	lea    0x0(,%eax,4),%edx
c010d80a:	8b 45 cc             	mov    -0x34(%ebp),%eax
c010d80d:	01 d0                	add    %edx,%eax
c010d80f:	8b 00                	mov    (%eax),%eax
c010d811:	89 45 c4             	mov    %eax,-0x3c(%ebp)
c010d814:	a1 30 60 10 c0       	mov    0xc0106030,%eax
c010d819:	8b 78 14             	mov    0x14(%eax),%edi
c010d81c:	8b 45 08             	mov    0x8(%ebp),%eax
c010d81f:	ba 00 00 00 00       	mov    $0x0,%edx
c010d824:	f7 f7                	div    %edi
c010d826:	89 c6                	mov    %eax,%esi
c010d828:	8b 55 14             	mov    0x14(%ebp),%edx
c010d82b:	8b 45 e4             	mov    -0x1c(%ebp),%eax
c010d82e:	8d 1c 02             	lea    (%edx,%eax,1),%ebx
c010d831:	8b 45 c8             	mov    -0x38(%ebp),%eax
c010d834:	3b 45 0c             	cmp    0xc(%ebp),%eax
c010d837:	72 21                	jb     c010d85a <write_inode+0x13f>
c010d839:	8b 55 0c             	mov    0xc(%ebp),%edx
c010d83c:	8b 45 10             	mov    0x10(%ebp),%eax
c010d83f:	01 d0                	add    %edx,%eax
c010d841:	39 45 c8             	cmp    %eax,-0x38(%ebp)
c010d844:	73 0d                	jae    c010d853 <write_inode+0x138>
c010d846:	8b 55 0c             	mov    0xc(%ebp),%edx
c010d849:	8b 45 10             	mov    0x10(%ebp),%eax
c010d84c:	01 d0                	add    %edx,%eax
c010d84e:	2b 45 c8             	sub    -0x38(%ebp),%eax
c010d851:	eb 0a                	jmp    c010d85d <write_inode+0x142>
c010d853:	b8 00 00 00 00       	mov    $0x0,%eax
c010d858:	eb 03                	jmp    c010d85d <write_inode+0x142>
c010d85a:	8b 45 10             	mov    0x10(%ebp),%eax
c010d85d:	8b 55 c8             	mov    -0x38(%ebp),%edx
c010d860:	3b 55 0c             	cmp    0xc(%ebp),%edx
c010d863:	73 08                	jae    c010d86d <write_inode+0x152>
c010d865:	8b 55 0c             	mov    0xc(%ebp),%edx
c010d868:	2b 55 c8             	sub    -0x38(%ebp),%edx
c010d86b:	eb 05                	jmp    c010d872 <write_inode+0x157>
c010d86d:	ba 00 00 00 00       	mov    $0x0,%edx
c010d872:	8b 4d e0             	mov    -0x20(%ebp),%ecx
c010d875:	8d 3c 8d 00 00 00 00 	lea    0x0(,%ecx,4),%edi
c010d87c:	8b 4d cc             	mov    -0x34(%ebp),%ecx
c010d87f:	01 f9                	add    %edi,%ecx
c010d881:	83 ec 0c             	sub    $0xc,%esp
c010d884:	56                   	push   %esi
c010d885:	53                   	push   %ebx
c010d886:	50                   	push   %eax
c010d887:	52                   	push   %edx
c010d888:	51                   	push   %ecx
c010d889:	e8 0e f5 ff ff       	call   c010cd9c <write_block_sparse>
c010d88e:	83 c4 20             	add    $0x20,%esp
c010d891:	89 45 dc             	mov    %eax,-0x24(%ebp)
c010d894:	83 7d dc 00          	cmpl   $0x0,-0x24(%ebp)
c010d898:	79 16                	jns    c010d8b0 <write_inode+0x195>
c010d89a:	83 ec 0c             	sub    $0xc,%esp
c010d89d:	ff 75 cc             	pushl  -0x34(%ebp)
c010d8a0:	e8 37 d0 ff ff       	call   c010a8dc <kfree>
c010d8a5:	83 c4 10             	add    $0x10,%esp
c010d8a8:	8b 45 dc             	mov    -0x24(%ebp),%eax
c010d8ab:	e9 84 00 00 00       	jmp    c010d934 <write_inode+0x219>
c010d8b0:	8b 45 dc             	mov    -0x24(%ebp),%eax
c010d8b3:	01 45 e4             	add    %eax,-0x1c(%ebp)
c010d8b6:	8b 45 e0             	mov    -0x20(%ebp),%eax
c010d8b9:	8d 14 85 00 00 00 00 	lea    0x0(,%eax,4),%edx
c010d8c0:	8b 45 cc             	mov    -0x34(%ebp),%eax
c010d8c3:	01 d0                	add    %edx,%eax
c010d8c5:	8b 00                	mov    (%eax),%eax
c010d8c7:	39 45 c4             	cmp    %eax,-0x3c(%ebp)
c010d8ca:	74 45                	je     c010d911 <write_inode+0x1f6>
c010d8cc:	8b 45 e0             	mov    -0x20(%ebp),%eax
c010d8cf:	8d 14 85 00 00 00 00 	lea    0x0(,%eax,4),%edx
c010d8d6:	8b 45 cc             	mov    -0x34(%ebp),%eax
c010d8d9:	01 d0                	add    %edx,%eax
c010d8db:	8b 00                	mov    (%eax),%eax
c010d8dd:	8b 4d d8             	mov    -0x28(%ebp),%ecx
c010d8e0:	8b 55 e0             	mov    -0x20(%ebp),%edx
c010d8e3:	01 ca                	add    %ecx,%edx
c010d8e5:	83 ec 04             	sub    $0x4,%esp
c010d8e8:	50                   	push   %eax
c010d8e9:	52                   	push   %edx
c010d8ea:	ff 75 08             	pushl  0x8(%ebp)
c010d8ed:	e8 a4 fc ff ff       	call   c010d596 <write_bl_num>
c010d8f2:	83 c4 10             	add    $0x10,%esp
c010d8f5:	89 45 dc             	mov    %eax,-0x24(%ebp)
c010d8f8:	83 7d dc 00          	cmpl   $0x0,-0x24(%ebp)
c010d8fc:	79 13                	jns    c010d911 <write_inode+0x1f6>
c010d8fe:	83 ec 0c             	sub    $0xc,%esp
c010d901:	ff 75 cc             	pushl  -0x34(%ebp)
c010d904:	e8 d3 cf ff ff       	call   c010a8dc <kfree>
c010d909:	83 c4 10             	add    $0x10,%esp
c010d90c:	8b 45 dc             	mov    -0x24(%ebp),%eax
c010d90f:	eb 23                	jmp    c010d934 <write_inode+0x219>
c010d911:	83 45 e0 01          	addl   $0x1,-0x20(%ebp)
c010d915:	8b 45 e0             	mov    -0x20(%ebp),%eax
c010d918:	3b 45 d0             	cmp    -0x30(%ebp),%eax
c010d91b:	0f 82 ca fe ff ff    	jb     c010d7eb <write_inode+0xd0>
c010d921:	83 ec 0c             	sub    $0xc,%esp
c010d924:	ff 75 cc             	pushl  -0x34(%ebp)
c010d927:	e8 b0 cf ff ff       	call   c010a8dc <kfree>
c010d92c:	83 c4 10             	add    $0x10,%esp
c010d92f:	b8 00 00 00 00       	mov    $0x0,%eax
c010d934:	8d 65 f4             	lea    -0xc(%ebp),%esp
c010d937:	5b                   	pop    %ebx
c010d938:	5e                   	pop    %esi
c010d939:	5f                   	pop    %edi
c010d93a:	5d                   	pop    %ebp
c010d93b:	c3                   	ret    

c010d93c <read_inode>:
c010d93c:	55                   	push   %ebp
c010d93d:	89 e5                	mov    %esp,%ebp
c010d93f:	56                   	push   %esi
c010d940:	53                   	push   %ebx
c010d941:	83 ec 30             	sub    $0x30,%esp
c010d944:	83 ec 08             	sub    $0x8,%esp
c010d947:	8d 45 d4             	lea    -0x2c(%ebp),%eax
c010d94a:	50                   	push   %eax
c010d94b:	ff 75 08             	pushl  0x8(%ebp)
c010d94e:	e8 21 f1 ff ff       	call   c010ca74 <get_inode_fsize>
c010d953:	83 c4 10             	add    $0x10,%esp
c010d956:	89 45 ec             	mov    %eax,-0x14(%ebp)
c010d959:	8b 55 0c             	mov    0xc(%ebp),%edx
c010d95c:	8b 45 10             	mov    0x10(%ebp),%eax
c010d95f:	01 c2                	add    %eax,%edx
c010d961:	8b 45 d4             	mov    -0x2c(%ebp),%eax
c010d964:	39 c2                	cmp    %eax,%edx
c010d966:	76 0a                	jbe    c010d972 <read_inode+0x36>
c010d968:	b8 fa ff ff ff       	mov    $0xfffffffa,%eax
c010d96d:	e9 5a 01 00 00       	jmp    c010dacc <read_inode+0x190>
c010d972:	a1 30 60 10 c0       	mov    0xc0106030,%eax
c010d977:	8b 18                	mov    (%eax),%ebx
c010d979:	8b 45 0c             	mov    0xc(%ebp),%eax
c010d97c:	ba 00 00 00 00       	mov    $0x0,%edx
c010d981:	f7 f3                	div    %ebx
c010d983:	89 45 e8             	mov    %eax,-0x18(%ebp)
c010d986:	8b 55 0c             	mov    0xc(%ebp),%edx
c010d989:	8b 45 10             	mov    0x10(%ebp),%eax
c010d98c:	01 d0                	add    %edx,%eax
c010d98e:	8d 48 ff             	lea    -0x1(%eax),%ecx
c010d991:	a1 30 60 10 c0       	mov    0xc0106030,%eax
c010d996:	8b 30                	mov    (%eax),%esi
c010d998:	89 c8                	mov    %ecx,%eax
c010d99a:	ba 00 00 00 00       	mov    $0x0,%edx
c010d99f:	f7 f6                	div    %esi
c010d9a1:	89 45 e4             	mov    %eax,-0x1c(%ebp)
c010d9a4:	8b 45 e4             	mov    -0x1c(%ebp),%eax
c010d9a7:	2b 45 e8             	sub    -0x18(%ebp),%eax
c010d9aa:	83 c0 01             	add    $0x1,%eax
c010d9ad:	89 45 e0             	mov    %eax,-0x20(%ebp)
c010d9b0:	8b 45 e0             	mov    -0x20(%ebp),%eax
c010d9b3:	c1 e0 02             	shl    $0x2,%eax
c010d9b6:	83 ec 0c             	sub    $0xc,%esp
c010d9b9:	50                   	push   %eax
c010d9ba:	e8 31 ce ff ff       	call   c010a7f0 <kmalloc>
c010d9bf:	83 c4 10             	add    $0x10,%esp
c010d9c2:	89 45 dc             	mov    %eax,-0x24(%ebp)
c010d9c5:	ff 75 dc             	pushl  -0x24(%ebp)
c010d9c8:	ff 75 e0             	pushl  -0x20(%ebp)
c010d9cb:	ff 75 e8             	pushl  -0x18(%ebp)
c010d9ce:	ff 75 08             	pushl  0x8(%ebp)
c010d9d1:	e8 b1 f9 ff ff       	call   c010d387 <read_bl_nums>
c010d9d6:	83 c4 10             	add    $0x10,%esp
c010d9d9:	89 45 ec             	mov    %eax,-0x14(%ebp)
c010d9dc:	83 7d ec 00          	cmpl   $0x0,-0x14(%ebp)
c010d9e0:	79 16                	jns    c010d9f8 <read_inode+0xbc>
c010d9e2:	83 ec 0c             	sub    $0xc,%esp
c010d9e5:	ff 75 dc             	pushl  -0x24(%ebp)
c010d9e8:	e8 ef ce ff ff       	call   c010a8dc <kfree>
c010d9ed:	83 c4 10             	add    $0x10,%esp
c010d9f0:	8b 45 ec             	mov    -0x14(%ebp),%eax
c010d9f3:	e9 d4 00 00 00       	jmp    c010dacc <read_inode+0x190>
c010d9f8:	c7 45 f4 00 00 00 00 	movl   $0x0,-0xc(%ebp)
c010d9ff:	c7 45 f0 00 00 00 00 	movl   $0x0,-0x10(%ebp)
c010da06:	e9 a2 00 00 00       	jmp    c010daad <read_inode+0x171>
c010da0b:	8b 55 f0             	mov    -0x10(%ebp),%edx
c010da0e:	8b 45 e8             	mov    -0x18(%ebp),%eax
c010da11:	01 c2                	add    %eax,%edx
c010da13:	a1 30 60 10 c0       	mov    0xc0106030,%eax
c010da18:	8b 00                	mov    (%eax),%eax
c010da1a:	0f af c2             	imul   %edx,%eax
c010da1d:	89 45 d8             	mov    %eax,-0x28(%ebp)
c010da20:	8b 55 14             	mov    0x14(%ebp),%edx
c010da23:	8b 45 f4             	mov    -0xc(%ebp),%eax
c010da26:	8d 1c 02             	lea    (%edx,%eax,1),%ebx
c010da29:	8b 45 d8             	mov    -0x28(%ebp),%eax
c010da2c:	3b 45 0c             	cmp    0xc(%ebp),%eax
c010da2f:	72 21                	jb     c010da52 <read_inode+0x116>
c010da31:	8b 55 0c             	mov    0xc(%ebp),%edx
c010da34:	8b 45 10             	mov    0x10(%ebp),%eax
c010da37:	01 d0                	add    %edx,%eax
c010da39:	39 45 d8             	cmp    %eax,-0x28(%ebp)
c010da3c:	73 0d                	jae    c010da4b <read_inode+0x10f>
c010da3e:	8b 55 0c             	mov    0xc(%ebp),%edx
c010da41:	8b 45 10             	mov    0x10(%ebp),%eax
c010da44:	01 d0                	add    %edx,%eax
c010da46:	2b 45 d8             	sub    -0x28(%ebp),%eax
c010da49:	eb 0a                	jmp    c010da55 <read_inode+0x119>
c010da4b:	b8 00 00 00 00       	mov    $0x0,%eax
c010da50:	eb 03                	jmp    c010da55 <read_inode+0x119>
c010da52:	8b 45 10             	mov    0x10(%ebp),%eax
c010da55:	8b 55 d8             	mov    -0x28(%ebp),%edx
c010da58:	3b 55 0c             	cmp    0xc(%ebp),%edx
c010da5b:	73 08                	jae    c010da65 <read_inode+0x129>
c010da5d:	8b 55 0c             	mov    0xc(%ebp),%edx
c010da60:	2b 55 d8             	sub    -0x28(%ebp),%edx
c010da63:	eb 05                	jmp    c010da6a <read_inode+0x12e>
c010da65:	ba 00 00 00 00       	mov    $0x0,%edx
c010da6a:	8b 4d f0             	mov    -0x10(%ebp),%ecx
c010da6d:	8d 34 8d 00 00 00 00 	lea    0x0(,%ecx,4),%esi
c010da74:	8b 4d dc             	mov    -0x24(%ebp),%ecx
c010da77:	01 f1                	add    %esi,%ecx
c010da79:	8b 09                	mov    (%ecx),%ecx
c010da7b:	53                   	push   %ebx
c010da7c:	50                   	push   %eax
c010da7d:	52                   	push   %edx
c010da7e:	51                   	push   %ecx
c010da7f:	e8 c4 f0 ff ff       	call   c010cb48 <read_block>
c010da84:	83 c4 10             	add    $0x10,%esp
c010da87:	89 45 ec             	mov    %eax,-0x14(%ebp)
c010da8a:	83 7d ec 00          	cmpl   $0x0,-0x14(%ebp)
c010da8e:	79 13                	jns    c010daa3 <read_inode+0x167>
c010da90:	83 ec 0c             	sub    $0xc,%esp
c010da93:	ff 75 dc             	pushl  -0x24(%ebp)
c010da96:	e8 41 ce ff ff       	call   c010a8dc <kfree>
c010da9b:	83 c4 10             	add    $0x10,%esp
c010da9e:	8b 45 ec             	mov    -0x14(%ebp),%eax
c010daa1:	eb 29                	jmp    c010dacc <read_inode+0x190>
c010daa3:	8b 45 ec             	mov    -0x14(%ebp),%eax
c010daa6:	01 45 f4             	add    %eax,-0xc(%ebp)
c010daa9:	83 45 f0 01          	addl   $0x1,-0x10(%ebp)
c010daad:	8b 45 f0             	mov    -0x10(%ebp),%eax
c010dab0:	3b 45 e0             	cmp    -0x20(%ebp),%eax
c010dab3:	0f 82 52 ff ff ff    	jb     c010da0b <read_inode+0xcf>
c010dab9:	83 ec 0c             	sub    $0xc,%esp
c010dabc:	ff 75 dc             	pushl  -0x24(%ebp)
c010dabf:	e8 18 ce ff ff       	call   c010a8dc <kfree>
c010dac4:	83 c4 10             	add    $0x10,%esp
c010dac7:	b8 00 00 00 00       	mov    $0x0,%eax
c010dacc:	8d 65 f8             	lea    -0x8(%ebp),%esp
c010dacf:	5b                   	pop    %ebx
c010dad0:	5e                   	pop    %esi
c010dad1:	5d                   	pop    %ebp
c010dad2:	c3                   	ret    

c010dad3 <decode_dir_entry>:
c010dad3:	55                   	push   %ebp
c010dad4:	89 e5                	mov    %esp,%ebp
c010dad6:	83 ec 08             	sub    $0x8,%esp
c010dad9:	8b 45 08             	mov    0x8(%ebp),%eax
c010dadc:	8b 10                	mov    (%eax),%edx
c010dade:	8b 45 0c             	mov    0xc(%ebp),%eax
c010dae1:	89 10                	mov    %edx,(%eax)
c010dae3:	8b 45 08             	mov    0x8(%ebp),%eax
c010dae6:	83 c0 04             	add    $0x4,%eax
c010dae9:	0f b7 00             	movzwl (%eax),%eax
c010daec:	0f b7 d0             	movzwl %ax,%edx
c010daef:	8b 45 10             	mov    0x10(%ebp),%eax
c010daf2:	89 10                	mov    %edx,(%eax)
c010daf4:	8b 45 08             	mov    0x8(%ebp),%eax
c010daf7:	0f b7 50 06          	movzwl 0x6(%eax),%edx
c010dafb:	8b 45 0c             	mov    0xc(%ebp),%eax
c010dafe:	66 89 50 04          	mov    %dx,0x4(%eax)
c010db02:	8b 45 0c             	mov    0xc(%ebp),%eax
c010db05:	0f b7 40 04          	movzwl 0x4(%eax),%eax
c010db09:	0f b7 c0             	movzwl %ax,%eax
c010db0c:	83 c0 01             	add    $0x1,%eax
c010db0f:	83 ec 0c             	sub    $0xc,%esp
c010db12:	50                   	push   %eax
c010db13:	e8 d8 cc ff ff       	call   c010a7f0 <kmalloc>
c010db18:	83 c4 10             	add    $0x10,%esp
c010db1b:	8b 55 0c             	mov    0xc(%ebp),%edx
c010db1e:	89 42 08             	mov    %eax,0x8(%edx)
c010db21:	8b 45 0c             	mov    0xc(%ebp),%eax
c010db24:	0f b7 40 04          	movzwl 0x4(%eax),%eax
c010db28:	0f b7 d0             	movzwl %ax,%edx
c010db2b:	8b 45 08             	mov    0x8(%ebp),%eax
c010db2e:	8d 48 08             	lea    0x8(%eax),%ecx
c010db31:	8b 45 0c             	mov    0xc(%ebp),%eax
c010db34:	8b 40 08             	mov    0x8(%eax),%eax
c010db37:	83 ec 04             	sub    $0x4,%esp
c010db3a:	52                   	push   %edx
c010db3b:	51                   	push   %ecx
c010db3c:	50                   	push   %eax
c010db3d:	e8 14 46 00 00       	call   c0112156 <memcpy>
c010db42:	83 c4 10             	add    $0x10,%esp
c010db45:	8b 45 0c             	mov    0xc(%ebp),%eax
c010db48:	8b 50 08             	mov    0x8(%eax),%edx
c010db4b:	8b 45 0c             	mov    0xc(%ebp),%eax
c010db4e:	0f b7 40 04          	movzwl 0x4(%eax),%eax
c010db52:	0f b7 c0             	movzwl %ax,%eax
c010db55:	01 d0                	add    %edx,%eax
c010db57:	c6 00 00             	movb   $0x0,(%eax)
c010db5a:	90                   	nop
c010db5b:	c9                   	leave  
c010db5c:	c3                   	ret    

c010db5d <read_dir>:
c010db5d:	55                   	push   %ebp
c010db5e:	89 e5                	mov    %esp,%ebp
c010db60:	83 ec 28             	sub    $0x28,%esp
c010db63:	83 ec 08             	sub    $0x8,%esp
c010db66:	8d 45 e4             	lea    -0x1c(%ebp),%eax
c010db69:	50                   	push   %eax
c010db6a:	ff 75 08             	pushl  0x8(%ebp)
c010db6d:	e8 9f ee ff ff       	call   c010ca11 <get_inode_type>
c010db72:	83 c4 10             	add    $0x10,%esp
c010db75:	89 45 ec             	mov    %eax,-0x14(%ebp)
c010db78:	83 7d ec 00          	cmpl   $0x0,-0x14(%ebp)
c010db7c:	79 08                	jns    c010db86 <read_dir+0x29>
c010db7e:	8b 45 ec             	mov    -0x14(%ebp),%eax
c010db81:	e9 4a 01 00 00       	jmp    c010dcd0 <read_dir+0x173>
c010db86:	8b 45 e4             	mov    -0x1c(%ebp),%eax
c010db89:	83 f8 02             	cmp    $0x2,%eax
c010db8c:	74 0a                	je     c010db98 <read_dir+0x3b>
c010db8e:	b8 fd ff ff ff       	mov    $0xfffffffd,%eax
c010db93:	e9 38 01 00 00       	jmp    c010dcd0 <read_dir+0x173>
c010db98:	83 ec 08             	sub    $0x8,%esp
c010db9b:	8d 45 e0             	lea    -0x20(%ebp),%eax
c010db9e:	50                   	push   %eax
c010db9f:	ff 75 08             	pushl  0x8(%ebp)
c010dba2:	e8 cd ee ff ff       	call   c010ca74 <get_inode_fsize>
c010dba7:	83 c4 10             	add    $0x10,%esp
c010dbaa:	89 45 ec             	mov    %eax,-0x14(%ebp)
c010dbad:	83 7d ec 00          	cmpl   $0x0,-0x14(%ebp)
c010dbb1:	79 08                	jns    c010dbbb <read_dir+0x5e>
c010dbb3:	8b 45 ec             	mov    -0x14(%ebp),%eax
c010dbb6:	e9 15 01 00 00       	jmp    c010dcd0 <read_dir+0x173>
c010dbbb:	8b 45 e0             	mov    -0x20(%ebp),%eax
c010dbbe:	85 c0                	test   %eax,%eax
c010dbc0:	75 13                	jne    c010dbd5 <read_dir+0x78>
c010dbc2:	8b 45 0c             	mov    0xc(%ebp),%eax
c010dbc5:	c7 00 00 00 00 00    	movl   $0x0,(%eax)
c010dbcb:	b8 00 00 00 00       	mov    $0x0,%eax
c010dbd0:	e9 fb 00 00 00       	jmp    c010dcd0 <read_dir+0x173>
c010dbd5:	8b 45 e0             	mov    -0x20(%ebp),%eax
c010dbd8:	83 ec 0c             	sub    $0xc,%esp
c010dbdb:	50                   	push   %eax
c010dbdc:	e8 0f cc ff ff       	call   c010a7f0 <kmalloc>
c010dbe1:	83 c4 10             	add    $0x10,%esp
c010dbe4:	89 45 e8             	mov    %eax,-0x18(%ebp)
c010dbe7:	8b 45 e0             	mov    -0x20(%ebp),%eax
c010dbea:	ff 75 e8             	pushl  -0x18(%ebp)
c010dbed:	50                   	push   %eax
c010dbee:	6a 00                	push   $0x0
c010dbf0:	ff 75 08             	pushl  0x8(%ebp)
c010dbf3:	e8 44 fd ff ff       	call   c010d93c <read_inode>
c010dbf8:	83 c4 10             	add    $0x10,%esp
c010dbfb:	89 45 ec             	mov    %eax,-0x14(%ebp)
c010dbfe:	83 7d ec 00          	cmpl   $0x0,-0x14(%ebp)
c010dc02:	79 16                	jns    c010dc1a <read_dir+0xbd>
c010dc04:	83 ec 0c             	sub    $0xc,%esp
c010dc07:	ff 75 e8             	pushl  -0x18(%ebp)
c010dc0a:	e8 cd cc ff ff       	call   c010a8dc <kfree>
c010dc0f:	83 c4 10             	add    $0x10,%esp
c010dc12:	8b 45 ec             	mov    -0x14(%ebp),%eax
c010dc15:	e9 b6 00 00 00       	jmp    c010dcd0 <read_dir+0x173>
c010dc1a:	c7 45 f4 00 00 00 00 	movl   $0x0,-0xc(%ebp)
c010dc21:	83 ec 0c             	sub    $0xc,%esp
c010dc24:	6a 10                	push   $0x10
c010dc26:	e8 c5 cb ff ff       	call   c010a7f0 <kmalloc>
c010dc2b:	83 c4 10             	add    $0x10,%esp
c010dc2e:	8b 55 0c             	mov    0xc(%ebp),%edx
c010dc31:	89 02                	mov    %eax,(%edx)
c010dc33:	8b 45 0c             	mov    0xc(%ebp),%eax
c010dc36:	8b 00                	mov    (%eax),%eax
c010dc38:	83 ec 04             	sub    $0x4,%esp
c010dc3b:	8d 55 dc             	lea    -0x24(%ebp),%edx
c010dc3e:	52                   	push   %edx
c010dc3f:	50                   	push   %eax
c010dc40:	ff 75 e8             	pushl  -0x18(%ebp)
c010dc43:	e8 8b fe ff ff       	call   c010dad3 <decode_dir_entry>
c010dc48:	83 c4 10             	add    $0x10,%esp
c010dc4b:	8b 45 dc             	mov    -0x24(%ebp),%eax
c010dc4e:	01 45 f4             	add    %eax,-0xc(%ebp)
c010dc51:	8b 45 0c             	mov    0xc(%ebp),%eax
c010dc54:	8b 00                	mov    (%eax),%eax
c010dc56:	89 45 f0             	mov    %eax,-0x10(%ebp)
c010dc59:	eb 41                	jmp    c010dc9c <read_dir+0x13f>
c010dc5b:	83 ec 0c             	sub    $0xc,%esp
c010dc5e:	6a 10                	push   $0x10
c010dc60:	e8 8b cb ff ff       	call   c010a7f0 <kmalloc>
c010dc65:	83 c4 10             	add    $0x10,%esp
c010dc68:	8b 55 f0             	mov    -0x10(%ebp),%edx
c010dc6b:	89 42 0c             	mov    %eax,0xc(%edx)
c010dc6e:	8b 45 f0             	mov    -0x10(%ebp),%eax
c010dc71:	8b 40 0c             	mov    0xc(%eax),%eax
c010dc74:	8b 4d e8             	mov    -0x18(%ebp),%ecx
c010dc77:	8b 55 f4             	mov    -0xc(%ebp),%edx
c010dc7a:	01 d1                	add    %edx,%ecx
c010dc7c:	83 ec 04             	sub    $0x4,%esp
c010dc7f:	8d 55 d8             	lea    -0x28(%ebp),%edx
c010dc82:	52                   	push   %edx
c010dc83:	50                   	push   %eax
c010dc84:	51                   	push   %ecx
c010dc85:	e8 49 fe ff ff       	call   c010dad3 <decode_dir_entry>
c010dc8a:	83 c4 10             	add    $0x10,%esp
c010dc8d:	8b 45 d8             	mov    -0x28(%ebp),%eax
c010dc90:	01 45 f4             	add    %eax,-0xc(%ebp)
c010dc93:	8b 45 f0             	mov    -0x10(%ebp),%eax
c010dc96:	8b 40 0c             	mov    0xc(%eax),%eax
c010dc99:	89 45 f0             	mov    %eax,-0x10(%ebp)
c010dc9c:	8b 45 e0             	mov    -0x20(%ebp),%eax
c010dc9f:	39 45 f4             	cmp    %eax,-0xc(%ebp)
c010dca2:	72 b7                	jb     c010dc5b <read_dir+0xfe>
c010dca4:	83 ec 0c             	sub    $0xc,%esp
c010dca7:	ff 75 e8             	pushl  -0x18(%ebp)
c010dcaa:	e8 2d cc ff ff       	call   c010a8dc <kfree>
c010dcaf:	83 c4 10             	add    $0x10,%esp
c010dcb2:	8b 45 f0             	mov    -0x10(%ebp),%eax
c010dcb5:	c7 40 0c 00 00 00 00 	movl   $0x0,0xc(%eax)
c010dcbc:	8b 45 e0             	mov    -0x20(%ebp),%eax
c010dcbf:	39 45 f4             	cmp    %eax,-0xc(%ebp)
c010dcc2:	76 07                	jbe    c010dccb <read_dir+0x16e>
c010dcc4:	b8 f9 ff ff ff       	mov    $0xfffffff9,%eax
c010dcc9:	eb 05                	jmp    c010dcd0 <read_dir+0x173>
c010dccb:	b8 00 00 00 00       	mov    $0x0,%eax
c010dcd0:	c9                   	leave  
c010dcd1:	c3                   	ret    

c010dcd2 <entry_size>:
c010dcd2:	55                   	push   %ebp
c010dcd3:	89 e5                	mov    %esp,%ebp
c010dcd5:	83 ec 10             	sub    $0x10,%esp
c010dcd8:	8b 45 08             	mov    0x8(%ebp),%eax
c010dcdb:	0f b7 40 04          	movzwl 0x4(%eax),%eax
c010dcdf:	83 c0 08             	add    $0x8,%eax
c010dce2:	66 89 45 fe          	mov    %ax,-0x2(%ebp)
c010dce6:	0f b7 45 fe          	movzwl -0x2(%ebp),%eax
c010dcea:	83 e0 03             	and    $0x3,%eax
c010dced:	85 c0                	test   %eax,%eax
c010dcef:	74 0c                	je     c010dcfd <entry_size+0x2b>
c010dcf1:	0f b7 45 fe          	movzwl -0x2(%ebp),%eax
c010dcf5:	83 e0 fc             	and    $0xfffffffc,%eax
c010dcf8:	83 c0 04             	add    $0x4,%eax
c010dcfb:	eb 04                	jmp    c010dd01 <entry_size+0x2f>
c010dcfd:	0f b7 45 fe          	movzwl -0x2(%ebp),%eax
c010dd01:	66 89 45 fe          	mov    %ax,-0x2(%ebp)
c010dd05:	8b 45 08             	mov    0x8(%ebp),%eax
c010dd08:	8b 40 0c             	mov    0xc(%eax),%eax
c010dd0b:	85 c0                	test   %eax,%eax
c010dd0d:	75 5b                	jne    c010dd6a <entry_size+0x98>
c010dd0f:	0f b7 55 fe          	movzwl -0x2(%ebp),%edx
c010dd13:	8b 45 0c             	mov    0xc(%ebp),%eax
c010dd16:	01 c2                	add    %eax,%edx
c010dd18:	a1 30 60 10 c0       	mov    0xc0106030,%eax
c010dd1d:	8b 00                	mov    (%eax),%eax
c010dd1f:	83 e8 01             	sub    $0x1,%eax
c010dd22:	21 d0                	and    %edx,%eax
c010dd24:	85 c0                	test   %eax,%eax
c010dd26:	74 1f                	je     c010dd47 <entry_size+0x75>
c010dd28:	0f b7 55 fe          	movzwl -0x2(%ebp),%edx
c010dd2c:	8b 45 0c             	mov    0xc(%ebp),%eax
c010dd2f:	01 c2                	add    %eax,%edx
c010dd31:	a1 30 60 10 c0       	mov    0xc0106030,%eax
c010dd36:	8b 00                	mov    (%eax),%eax
c010dd38:	f7 d8                	neg    %eax
c010dd3a:	21 c2                	and    %eax,%edx
c010dd3c:	a1 30 60 10 c0       	mov    0xc0106030,%eax
c010dd41:	8b 00                	mov    (%eax),%eax
c010dd43:	01 d0                	add    %edx,%eax
c010dd45:	eb 09                	jmp    c010dd50 <entry_size+0x7e>
c010dd47:	0f b7 55 fe          	movzwl -0x2(%ebp),%edx
c010dd4b:	8b 45 0c             	mov    0xc(%ebp),%eax
c010dd4e:	01 d0                	add    %edx,%eax
c010dd50:	89 45 f4             	mov    %eax,-0xc(%ebp)
c010dd53:	8b 45 f4             	mov    -0xc(%ebp),%eax
c010dd56:	89 c2                	mov    %eax,%edx
c010dd58:	8b 45 0c             	mov    0xc(%ebp),%eax
c010dd5b:	89 c1                	mov    %eax,%ecx
c010dd5d:	89 d0                	mov    %edx,%eax
c010dd5f:	29 c8                	sub    %ecx,%eax
c010dd61:	66 89 45 fe          	mov    %ax,-0x2(%ebp)
c010dd65:	e9 9a 00 00 00       	jmp    c010de04 <entry_size+0x132>
c010dd6a:	8b 45 08             	mov    0x8(%ebp),%eax
c010dd6d:	8b 40 0c             	mov    0xc(%eax),%eax
c010dd70:	0f b7 40 04          	movzwl 0x4(%eax),%eax
c010dd74:	83 c0 08             	add    $0x8,%eax
c010dd77:	66 89 45 fc          	mov    %ax,-0x4(%ebp)
c010dd7b:	0f b7 45 fc          	movzwl -0x4(%ebp),%eax
c010dd7f:	83 e0 03             	and    $0x3,%eax
c010dd82:	85 c0                	test   %eax,%eax
c010dd84:	74 0c                	je     c010dd92 <entry_size+0xc0>
c010dd86:	0f b7 45 fc          	movzwl -0x4(%ebp),%eax
c010dd8a:	83 e0 fc             	and    $0xfffffffc,%eax
c010dd8d:	83 c0 04             	add    $0x4,%eax
c010dd90:	eb 04                	jmp    c010dd96 <entry_size+0xc4>
c010dd92:	0f b7 45 fc          	movzwl -0x4(%ebp),%eax
c010dd96:	66 89 45 fc          	mov    %ax,-0x4(%ebp)
c010dd9a:	0f b7 55 fe          	movzwl -0x2(%ebp),%edx
c010dd9e:	8b 45 0c             	mov    0xc(%ebp),%eax
c010dda1:	01 c2                	add    %eax,%edx
c010dda3:	a1 30 60 10 c0       	mov    0xc0106030,%eax
c010dda8:	8b 00                	mov    (%eax),%eax
c010ddaa:	83 e8 01             	sub    $0x1,%eax
c010ddad:	21 d0                	and    %edx,%eax
c010ddaf:	85 c0                	test   %eax,%eax
c010ddb1:	74 1f                	je     c010ddd2 <entry_size+0x100>
c010ddb3:	0f b7 55 fe          	movzwl -0x2(%ebp),%edx
c010ddb7:	8b 45 0c             	mov    0xc(%ebp),%eax
c010ddba:	01 c2                	add    %eax,%edx
c010ddbc:	a1 30 60 10 c0       	mov    0xc0106030,%eax
c010ddc1:	8b 00                	mov    (%eax),%eax
c010ddc3:	f7 d8                	neg    %eax
c010ddc5:	21 c2                	and    %eax,%edx
c010ddc7:	a1 30 60 10 c0       	mov    0xc0106030,%eax
c010ddcc:	8b 00                	mov    (%eax),%eax
c010ddce:	01 d0                	add    %edx,%eax
c010ddd0:	eb 09                	jmp    c010dddb <entry_size+0x109>
c010ddd2:	0f b7 55 fe          	movzwl -0x2(%ebp),%edx
c010ddd6:	8b 45 0c             	mov    0xc(%ebp),%eax
c010ddd9:	01 d0                	add    %edx,%eax
c010dddb:	89 45 f8             	mov    %eax,-0x8(%ebp)
c010ddde:	0f b7 55 fe          	movzwl -0x2(%ebp),%edx
c010dde2:	8b 45 0c             	mov    0xc(%ebp),%eax
c010dde5:	01 c2                	add    %eax,%edx
c010dde7:	0f b7 45 fc          	movzwl -0x4(%ebp),%eax
c010ddeb:	01 d0                	add    %edx,%eax
c010dded:	39 45 f8             	cmp    %eax,-0x8(%ebp)
c010ddf0:	73 12                	jae    c010de04 <entry_size+0x132>
c010ddf2:	8b 45 f8             	mov    -0x8(%ebp),%eax
c010ddf5:	89 c2                	mov    %eax,%edx
c010ddf7:	8b 45 0c             	mov    0xc(%ebp),%eax
c010ddfa:	89 c1                	mov    %eax,%ecx
c010ddfc:	89 d0                	mov    %edx,%eax
c010ddfe:	29 c8                	sub    %ecx,%eax
c010de00:	66 89 45 fe          	mov    %ax,-0x2(%ebp)
c010de04:	0f b7 45 fe          	movzwl -0x2(%ebp),%eax
c010de08:	c9                   	leave  
c010de09:	c3                   	ret    

c010de0a <write_dir>:
c010de0a:	55                   	push   %ebp
c010de0b:	89 e5                	mov    %esp,%ebp
c010de0d:	53                   	push   %ebx
c010de0e:	83 ec 24             	sub    $0x24,%esp
c010de11:	83 ec 08             	sub    $0x8,%esp
c010de14:	8d 45 d8             	lea    -0x28(%ebp),%eax
c010de17:	50                   	push   %eax
c010de18:	ff 75 08             	pushl  0x8(%ebp)
c010de1b:	e8 f1 eb ff ff       	call   c010ca11 <get_inode_type>
c010de20:	83 c4 10             	add    $0x10,%esp
c010de23:	89 45 e4             	mov    %eax,-0x1c(%ebp)
c010de26:	83 7d e4 00          	cmpl   $0x0,-0x1c(%ebp)
c010de2a:	79 08                	jns    c010de34 <write_dir+0x2a>
c010de2c:	8b 45 e4             	mov    -0x1c(%ebp),%eax
c010de2f:	e9 5f 01 00 00       	jmp    c010df93 <write_dir+0x189>
c010de34:	8b 45 d8             	mov    -0x28(%ebp),%eax
c010de37:	83 f8 02             	cmp    $0x2,%eax
c010de3a:	74 0a                	je     c010de46 <write_dir+0x3c>
c010de3c:	b8 fd ff ff ff       	mov    $0xfffffffd,%eax
c010de41:	e9 4d 01 00 00       	jmp    c010df93 <write_dir+0x189>
c010de46:	c7 45 f4 00 00 00 00 	movl   $0x0,-0xc(%ebp)
c010de4d:	8b 45 0c             	mov    0xc(%ebp),%eax
c010de50:	89 45 f0             	mov    %eax,-0x10(%ebp)
c010de53:	eb 20                	jmp    c010de75 <write_dir+0x6b>
c010de55:	83 ec 08             	sub    $0x8,%esp
c010de58:	ff 75 f4             	pushl  -0xc(%ebp)
c010de5b:	ff 75 f0             	pushl  -0x10(%ebp)
c010de5e:	e8 6f fe ff ff       	call   c010dcd2 <entry_size>
c010de63:	83 c4 10             	add    $0x10,%esp
c010de66:	0f b7 c0             	movzwl %ax,%eax
c010de69:	01 45 f4             	add    %eax,-0xc(%ebp)
c010de6c:	8b 45 f0             	mov    -0x10(%ebp),%eax
c010de6f:	8b 40 0c             	mov    0xc(%eax),%eax
c010de72:	89 45 f0             	mov    %eax,-0x10(%ebp)
c010de75:	83 7d f0 00          	cmpl   $0x0,-0x10(%ebp)
c010de79:	75 da                	jne    c010de55 <write_dir+0x4b>
c010de7b:	83 ec 0c             	sub    $0xc,%esp
c010de7e:	ff 75 f4             	pushl  -0xc(%ebp)
c010de81:	e8 6a c9 ff ff       	call   c010a7f0 <kmalloc>
c010de86:	83 c4 10             	add    $0x10,%esp
c010de89:	89 45 e0             	mov    %eax,-0x20(%ebp)
c010de8c:	83 ec 04             	sub    $0x4,%esp
c010de8f:	ff 75 f4             	pushl  -0xc(%ebp)
c010de92:	6a 00                	push   $0x0
c010de94:	ff 75 e0             	pushl  -0x20(%ebp)
c010de97:	e8 cc 42 00 00       	call   c0112168 <memset>
c010de9c:	83 c4 10             	add    $0x10,%esp
c010de9f:	c7 45 ec 00 00 00 00 	movl   $0x0,-0x14(%ebp)
c010dea6:	8b 45 0c             	mov    0xc(%ebp),%eax
c010dea9:	89 45 e8             	mov    %eax,-0x18(%ebp)
c010deac:	e9 84 00 00 00       	jmp    c010df35 <write_dir+0x12b>
c010deb1:	83 ec 08             	sub    $0x8,%esp
c010deb4:	ff 75 ec             	pushl  -0x14(%ebp)
c010deb7:	ff 75 e8             	pushl  -0x18(%ebp)
c010deba:	e8 13 fe ff ff       	call   c010dcd2 <entry_size>
c010debf:	83 c4 10             	add    $0x10,%esp
c010dec2:	66 89 45 de          	mov    %ax,-0x22(%ebp)
c010dec6:	8b 55 e0             	mov    -0x20(%ebp),%edx
c010dec9:	8b 45 ec             	mov    -0x14(%ebp),%eax
c010decc:	01 c2                	add    %eax,%edx
c010dece:	8b 45 e8             	mov    -0x18(%ebp),%eax
c010ded1:	8b 00                	mov    (%eax),%eax
c010ded3:	89 02                	mov    %eax,(%edx)
c010ded5:	8b 45 ec             	mov    -0x14(%ebp),%eax
c010ded8:	8d 50 04             	lea    0x4(%eax),%edx
c010dedb:	8b 45 e0             	mov    -0x20(%ebp),%eax
c010dede:	01 c2                	add    %eax,%edx
c010dee0:	0f b7 45 de          	movzwl -0x22(%ebp),%eax
c010dee4:	66 89 02             	mov    %ax,(%edx)
c010dee7:	8b 45 ec             	mov    -0x14(%ebp),%eax
c010deea:	8d 50 06             	lea    0x6(%eax),%edx
c010deed:	8b 45 e0             	mov    -0x20(%ebp),%eax
c010def0:	01 c2                	add    %eax,%edx
c010def2:	8b 45 e8             	mov    -0x18(%ebp),%eax
c010def5:	0f b7 40 04          	movzwl 0x4(%eax),%eax
c010def9:	66 89 02             	mov    %ax,(%edx)
c010defc:	8b 45 e8             	mov    -0x18(%ebp),%eax
c010deff:	0f b7 40 04          	movzwl 0x4(%eax),%eax
c010df03:	0f b7 d0             	movzwl %ax,%edx
c010df06:	8b 45 e8             	mov    -0x18(%ebp),%eax
c010df09:	8b 40 08             	mov    0x8(%eax),%eax
c010df0c:	8b 4d ec             	mov    -0x14(%ebp),%ecx
c010df0f:	8d 59 08             	lea    0x8(%ecx),%ebx
c010df12:	8b 4d e0             	mov    -0x20(%ebp),%ecx
c010df15:	01 d9                	add    %ebx,%ecx
c010df17:	83 ec 04             	sub    $0x4,%esp
c010df1a:	52                   	push   %edx
c010df1b:	50                   	push   %eax
c010df1c:	51                   	push   %ecx
c010df1d:	e8 34 42 00 00       	call   c0112156 <memcpy>
c010df22:	83 c4 10             	add    $0x10,%esp
c010df25:	0f b7 45 de          	movzwl -0x22(%ebp),%eax
c010df29:	01 45 ec             	add    %eax,-0x14(%ebp)
c010df2c:	8b 45 e8             	mov    -0x18(%ebp),%eax
c010df2f:	8b 40 0c             	mov    0xc(%eax),%eax
c010df32:	89 45 e8             	mov    %eax,-0x18(%ebp)
c010df35:	83 7d e8 00          	cmpl   $0x0,-0x18(%ebp)
c010df39:	0f 85 72 ff ff ff    	jne    c010deb1 <write_dir+0xa7>
c010df3f:	83 ec 08             	sub    $0x8,%esp
c010df42:	ff 75 f4             	pushl  -0xc(%ebp)
c010df45:	ff 75 08             	pushl  0x8(%ebp)
c010df48:	e8 4a 09 00 00       	call   c010e897 <resize_inode>
c010df4d:	83 c4 10             	add    $0x10,%esp
c010df50:	89 45 e4             	mov    %eax,-0x1c(%ebp)
c010df53:	83 7d e4 00          	cmpl   $0x0,-0x1c(%ebp)
c010df57:	79 13                	jns    c010df6c <write_dir+0x162>
c010df59:	83 ec 0c             	sub    $0xc,%esp
c010df5c:	ff 75 e0             	pushl  -0x20(%ebp)
c010df5f:	e8 78 c9 ff ff       	call   c010a8dc <kfree>
c010df64:	83 c4 10             	add    $0x10,%esp
c010df67:	8b 45 e4             	mov    -0x1c(%ebp),%eax
c010df6a:	eb 27                	jmp    c010df93 <write_dir+0x189>
c010df6c:	ff 75 e0             	pushl  -0x20(%ebp)
c010df6f:	ff 75 f4             	pushl  -0xc(%ebp)
c010df72:	6a 00                	push   $0x0
c010df74:	ff 75 08             	pushl  0x8(%ebp)
c010df77:	e8 9f f7 ff ff       	call   c010d71b <write_inode>
c010df7c:	83 c4 10             	add    $0x10,%esp
c010df7f:	89 45 e4             	mov    %eax,-0x1c(%ebp)
c010df82:	83 ec 0c             	sub    $0xc,%esp
c010df85:	ff 75 e0             	pushl  -0x20(%ebp)
c010df88:	e8 4f c9 ff ff       	call   c010a8dc <kfree>
c010df8d:	83 c4 10             	add    $0x10,%esp
c010df90:	8b 45 e4             	mov    -0x1c(%ebp),%eax
c010df93:	8b 5d fc             	mov    -0x4(%ebp),%ebx
c010df96:	c9                   	leave  
c010df97:	c3                   	ret    

c010df98 <claim_new_inode>:
c010df98:	55                   	push   %ebp
c010df99:	89 e5                	mov    %esp,%ebp
c010df9b:	83 ec 28             	sub    $0x28,%esp
c010df9e:	a1 30 60 10 c0       	mov    0xc0106030,%eax
c010dfa3:	8b 40 1c             	mov    0x1c(%eax),%eax
c010dfa6:	85 c0                	test   %eax,%eax
c010dfa8:	75 0a                	jne    c010dfb4 <claim_new_inode+0x1c>
c010dfaa:	b8 f8 ff ff ff       	mov    $0xfffffff8,%eax
c010dfaf:	e9 61 02 00 00       	jmp    c010e215 <claim_new_inode+0x27d>
c010dfb4:	83 ec 0c             	sub    $0xc,%esp
c010dfb7:	6a 14                	push   $0x14
c010dfb9:	e8 32 c8 ff ff       	call   c010a7f0 <kmalloc>
c010dfbe:	83 c4 10             	add    $0x10,%esp
c010dfc1:	89 45 f0             	mov    %eax,-0x10(%ebp)
c010dfc4:	c7 45 f4 00 00 00 00 	movl   $0x0,-0xc(%ebp)
c010dfcb:	eb 3e                	jmp    c010e00b <claim_new_inode+0x73>
c010dfcd:	83 ec 08             	sub    $0x8,%esp
c010dfd0:	ff 75 f0             	pushl  -0x10(%ebp)
c010dfd3:	ff 75 f4             	pushl  -0xc(%ebp)
c010dfd6:	e8 73 0f 00 00       	call   c010ef4e <get_bg_descr>
c010dfdb:	83 c4 10             	add    $0x10,%esp
c010dfde:	89 45 ec             	mov    %eax,-0x14(%ebp)
c010dfe1:	83 7d ec 00          	cmpl   $0x0,-0x14(%ebp)
c010dfe5:	79 16                	jns    c010dffd <claim_new_inode+0x65>
c010dfe7:	83 ec 0c             	sub    $0xc,%esp
c010dfea:	ff 75 f0             	pushl  -0x10(%ebp)
c010dfed:	e8 ea c8 ff ff       	call   c010a8dc <kfree>
c010dff2:	83 c4 10             	add    $0x10,%esp
c010dff5:	8b 45 ec             	mov    -0x14(%ebp),%eax
c010dff8:	e9 18 02 00 00       	jmp    c010e215 <claim_new_inode+0x27d>
c010dffd:	8b 45 f0             	mov    -0x10(%ebp),%eax
c010e000:	8b 40 10             	mov    0x10(%eax),%eax
c010e003:	85 c0                	test   %eax,%eax
c010e005:	75 13                	jne    c010e01a <claim_new_inode+0x82>
c010e007:	83 45 f4 01          	addl   $0x1,-0xc(%ebp)
c010e00b:	a1 30 60 10 c0       	mov    0xc0106030,%eax
c010e010:	8b 40 04             	mov    0x4(%eax),%eax
c010e013:	39 45 f4             	cmp    %eax,-0xc(%ebp)
c010e016:	72 b5                	jb     c010dfcd <claim_new_inode+0x35>
c010e018:	eb 01                	jmp    c010e01b <claim_new_inode+0x83>
c010e01a:	90                   	nop
c010e01b:	a1 30 60 10 c0       	mov    0xc0106030,%eax
c010e020:	8b 40 04             	mov    0x4(%eax),%eax
c010e023:	39 45 f4             	cmp    %eax,-0xc(%ebp)
c010e026:	72 18                	jb     c010e040 <claim_new_inode+0xa8>
c010e028:	83 ec 0c             	sub    $0xc,%esp
c010e02b:	ff 75 f0             	pushl  -0x10(%ebp)
c010e02e:	e8 a9 c8 ff ff       	call   c010a8dc <kfree>
c010e033:	83 c4 10             	add    $0x10,%esp
c010e036:	b8 f9 ff ff ff       	mov    $0xfffffff9,%eax
c010e03b:	e9 d5 01 00 00       	jmp    c010e215 <claim_new_inode+0x27d>
c010e040:	a1 30 60 10 c0       	mov    0xc0106030,%eax
c010e045:	8b 00                	mov    (%eax),%eax
c010e047:	83 ec 0c             	sub    $0xc,%esp
c010e04a:	50                   	push   %eax
c010e04b:	e8 a0 c7 ff ff       	call   c010a7f0 <kmalloc>
c010e050:	83 c4 10             	add    $0x10,%esp
c010e053:	89 45 e8             	mov    %eax,-0x18(%ebp)
c010e056:	a1 30 60 10 c0       	mov    0xc0106030,%eax
c010e05b:	8b 10                	mov    (%eax),%edx
c010e05d:	8b 45 f0             	mov    -0x10(%ebp),%eax
c010e060:	8b 40 04             	mov    0x4(%eax),%eax
c010e063:	ff 75 e8             	pushl  -0x18(%ebp)
c010e066:	52                   	push   %edx
c010e067:	6a 00                	push   $0x0
c010e069:	50                   	push   %eax
c010e06a:	e8 d9 ea ff ff       	call   c010cb48 <read_block>
c010e06f:	83 c4 10             	add    $0x10,%esp
c010e072:	89 45 ec             	mov    %eax,-0x14(%ebp)
c010e075:	83 7d ec 00          	cmpl   $0x0,-0x14(%ebp)
c010e079:	79 24                	jns    c010e09f <claim_new_inode+0x107>
c010e07b:	83 ec 0c             	sub    $0xc,%esp
c010e07e:	ff 75 e8             	pushl  -0x18(%ebp)
c010e081:	e8 56 c8 ff ff       	call   c010a8dc <kfree>
c010e086:	83 c4 10             	add    $0x10,%esp
c010e089:	83 ec 0c             	sub    $0xc,%esp
c010e08c:	ff 75 f0             	pushl  -0x10(%ebp)
c010e08f:	e8 48 c8 ff ff       	call   c010a8dc <kfree>
c010e094:	83 c4 10             	add    $0x10,%esp
c010e097:	8b 45 ec             	mov    -0x14(%ebp),%eax
c010e09a:	e9 76 01 00 00       	jmp    c010e215 <claim_new_inode+0x27d>
c010e09f:	a1 30 60 10 c0       	mov    0xc0106030,%eax
c010e0a4:	8b 40 14             	mov    0x14(%eax),%eax
c010e0a7:	83 ec 08             	sub    $0x8,%esp
c010e0aa:	50                   	push   %eax
c010e0ab:	ff 75 e8             	pushl  -0x18(%ebp)
c010e0ae:	e8 20 43 00 00       	call   c01123d3 <bitset_find_zero>
c010e0b3:	83 c4 10             	add    $0x10,%esp
c010e0b6:	89 45 e4             	mov    %eax,-0x1c(%ebp)
c010e0b9:	a1 30 60 10 c0       	mov    0xc0106030,%eax
c010e0be:	8b 40 14             	mov    0x14(%eax),%eax
c010e0c1:	39 45 e4             	cmp    %eax,-0x1c(%ebp)
c010e0c4:	72 26                	jb     c010e0ec <claim_new_inode+0x154>
c010e0c6:	83 ec 0c             	sub    $0xc,%esp
c010e0c9:	ff 75 e8             	pushl  -0x18(%ebp)
c010e0cc:	e8 0b c8 ff ff       	call   c010a8dc <kfree>
c010e0d1:	83 c4 10             	add    $0x10,%esp
c010e0d4:	83 ec 0c             	sub    $0xc,%esp
c010e0d7:	ff 75 f0             	pushl  -0x10(%ebp)
c010e0da:	e8 fd c7 ff ff       	call   c010a8dc <kfree>
c010e0df:	83 c4 10             	add    $0x10,%esp
c010e0e2:	b8 f9 ff ff ff       	mov    $0xfffffff9,%eax
c010e0e7:	e9 29 01 00 00       	jmp    c010e215 <claim_new_inode+0x27d>
c010e0ec:	a1 30 60 10 c0       	mov    0xc0106030,%eax
c010e0f1:	8b 40 14             	mov    0x14(%eax),%eax
c010e0f4:	0f af 45 f4          	imul   -0xc(%ebp),%eax
c010e0f8:	89 c2                	mov    %eax,%edx
c010e0fa:	8b 45 e4             	mov    -0x1c(%ebp),%eax
c010e0fd:	01 d0                	add    %edx,%eax
c010e0ff:	8d 50 01             	lea    0x1(%eax),%edx
c010e102:	8b 45 08             	mov    0x8(%ebp),%eax
c010e105:	89 10                	mov    %edx,(%eax)
c010e107:	83 ec 08             	sub    $0x8,%esp
c010e10a:	ff 75 e4             	pushl  -0x1c(%ebp)
c010e10d:	ff 75 e8             	pushl  -0x18(%ebp)
c010e110:	e8 a9 40 00 00       	call   c01121be <bitset_set>
c010e115:	83 c4 10             	add    $0x10,%esp
c010e118:	8b 45 f0             	mov    -0x10(%ebp),%eax
c010e11b:	8b 40 10             	mov    0x10(%eax),%eax
c010e11e:	8d 50 ff             	lea    -0x1(%eax),%edx
c010e121:	8b 45 f0             	mov    -0x10(%ebp),%eax
c010e124:	89 50 10             	mov    %edx,0x10(%eax)
c010e127:	a1 30 60 10 c0       	mov    0xc0106030,%eax
c010e12c:	8b 50 1c             	mov    0x1c(%eax),%edx
c010e12f:	83 ea 01             	sub    $0x1,%edx
c010e132:	89 50 1c             	mov    %edx,0x1c(%eax)
c010e135:	a1 30 60 10 c0       	mov    0xc0106030,%eax
c010e13a:	8b 10                	mov    (%eax),%edx
c010e13c:	8b 45 f0             	mov    -0x10(%ebp),%eax
c010e13f:	8b 40 04             	mov    0x4(%eax),%eax
c010e142:	ff 75 e8             	pushl  -0x18(%ebp)
c010e145:	52                   	push   %edx
c010e146:	6a 00                	push   $0x0
c010e148:	50                   	push   %eax
c010e149:	e8 8d ea ff ff       	call   c010cbdb <write_block>
c010e14e:	83 c4 10             	add    $0x10,%esp
c010e151:	89 45 ec             	mov    %eax,-0x14(%ebp)
c010e154:	83 7d ec 00          	cmpl   $0x0,-0x14(%ebp)
c010e158:	79 24                	jns    c010e17e <claim_new_inode+0x1e6>
c010e15a:	83 ec 0c             	sub    $0xc,%esp
c010e15d:	ff 75 e8             	pushl  -0x18(%ebp)
c010e160:	e8 77 c7 ff ff       	call   c010a8dc <kfree>
c010e165:	83 c4 10             	add    $0x10,%esp
c010e168:	83 ec 0c             	sub    $0xc,%esp
c010e16b:	ff 75 f0             	pushl  -0x10(%ebp)
c010e16e:	e8 69 c7 ff ff       	call   c010a8dc <kfree>
c010e173:	83 c4 10             	add    $0x10,%esp
c010e176:	8b 45 ec             	mov    -0x14(%ebp),%eax
c010e179:	e9 97 00 00 00       	jmp    c010e215 <claim_new_inode+0x27d>
c010e17e:	83 ec 08             	sub    $0x8,%esp
c010e181:	ff 75 f0             	pushl  -0x10(%ebp)
c010e184:	ff 75 f4             	pushl  -0xc(%ebp)
c010e187:	e8 62 0e 00 00       	call   c010efee <sync_bg_descr>
c010e18c:	83 c4 10             	add    $0x10,%esp
c010e18f:	89 45 ec             	mov    %eax,-0x14(%ebp)
c010e192:	83 7d ec 00          	cmpl   $0x0,-0x14(%ebp)
c010e196:	79 21                	jns    c010e1b9 <claim_new_inode+0x221>
c010e198:	83 ec 0c             	sub    $0xc,%esp
c010e19b:	ff 75 e8             	pushl  -0x18(%ebp)
c010e19e:	e8 39 c7 ff ff       	call   c010a8dc <kfree>
c010e1a3:	83 c4 10             	add    $0x10,%esp
c010e1a6:	83 ec 0c             	sub    $0xc,%esp
c010e1a9:	ff 75 f0             	pushl  -0x10(%ebp)
c010e1ac:	e8 2b c7 ff ff       	call   c010a8dc <kfree>
c010e1b1:	83 c4 10             	add    $0x10,%esp
c010e1b4:	8b 45 ec             	mov    -0x14(%ebp),%eax
c010e1b7:	eb 5c                	jmp    c010e215 <claim_new_inode+0x27d>
c010e1b9:	a1 30 60 10 c0       	mov    0xc0106030,%eax
c010e1be:	83 ec 0c             	sub    $0xc,%esp
c010e1c1:	50                   	push   %eax
c010e1c2:	e8 00 0d 00 00       	call   c010eec7 <sync_superblock>
c010e1c7:	83 c4 10             	add    $0x10,%esp
c010e1ca:	89 45 ec             	mov    %eax,-0x14(%ebp)
c010e1cd:	83 7d ec 00          	cmpl   $0x0,-0x14(%ebp)
c010e1d1:	79 21                	jns    c010e1f4 <claim_new_inode+0x25c>
c010e1d3:	83 ec 0c             	sub    $0xc,%esp
c010e1d6:	ff 75 e8             	pushl  -0x18(%ebp)
c010e1d9:	e8 fe c6 ff ff       	call   c010a8dc <kfree>
c010e1de:	83 c4 10             	add    $0x10,%esp
c010e1e1:	83 ec 0c             	sub    $0xc,%esp
c010e1e4:	ff 75 f0             	pushl  -0x10(%ebp)
c010e1e7:	e8 f0 c6 ff ff       	call   c010a8dc <kfree>
c010e1ec:	83 c4 10             	add    $0x10,%esp
c010e1ef:	8b 45 ec             	mov    -0x14(%ebp),%eax
c010e1f2:	eb 21                	jmp    c010e215 <claim_new_inode+0x27d>
c010e1f4:	83 ec 0c             	sub    $0xc,%esp
c010e1f7:	ff 75 e8             	pushl  -0x18(%ebp)
c010e1fa:	e8 dd c6 ff ff       	call   c010a8dc <kfree>
c010e1ff:	83 c4 10             	add    $0x10,%esp
c010e202:	83 ec 0c             	sub    $0xc,%esp
c010e205:	ff 75 f0             	pushl  -0x10(%ebp)
c010e208:	e8 cf c6 ff ff       	call   c010a8dc <kfree>
c010e20d:	83 c4 10             	add    $0x10,%esp
c010e210:	b8 00 00 00 00       	mov    $0x0,%eax
c010e215:	c9                   	leave  
c010e216:	c3                   	ret    

c010e217 <init_inode>:
c010e217:	55                   	push   %ebp
c010e218:	89 e5                	mov    %esp,%ebp
c010e21a:	83 ec 08             	sub    $0x8,%esp
c010e21d:	8b 45 08             	mov    0x8(%ebp),%eax
c010e220:	c7 00 00 00 00 00    	movl   $0x0,(%eax)
c010e226:	8b 45 08             	mov    0x8(%ebp),%eax
c010e229:	8b 55 0c             	mov    0xc(%ebp),%edx
c010e22c:	89 50 04             	mov    %edx,0x4(%eax)
c010e22f:	8b 45 08             	mov    0x8(%ebp),%eax
c010e232:	83 c0 08             	add    $0x8,%eax
c010e235:	83 ec 04             	sub    $0x4,%esp
c010e238:	6a 0c                	push   $0xc
c010e23a:	6a 00                	push   $0x0
c010e23c:	50                   	push   %eax
c010e23d:	e8 26 3f 00 00       	call   c0112168 <memset>
c010e242:	83 c4 10             	add    $0x10,%esp
c010e245:	8b 45 08             	mov    0x8(%ebp),%eax
c010e248:	c7 40 38 00 00 00 00 	movl   $0x0,0x38(%eax)
c010e24f:	8b 45 08             	mov    0x8(%ebp),%eax
c010e252:	c7 40 3c 00 00 00 00 	movl   $0x0,0x3c(%eax)
c010e259:	b8 00 00 00 00       	mov    $0x0,%eax
c010e25e:	c9                   	leave  
c010e25f:	c3                   	ret    

c010e260 <alloc_inode>:
c010e260:	55                   	push   %ebp
c010e261:	89 e5                	mov    %esp,%ebp
c010e263:	83 ec 18             	sub    $0x18,%esp
c010e266:	83 ec 0c             	sub    $0xc,%esp
c010e269:	ff 75 08             	pushl  0x8(%ebp)
c010e26c:	e8 27 fd ff ff       	call   c010df98 <claim_new_inode>
c010e271:	83 c4 10             	add    $0x10,%esp
c010e274:	89 45 f4             	mov    %eax,-0xc(%ebp)
c010e277:	83 7d f4 00          	cmpl   $0x0,-0xc(%ebp)
c010e27b:	79 05                	jns    c010e282 <alloc_inode+0x22>
c010e27d:	8b 45 f4             	mov    -0xc(%ebp),%eax
c010e280:	eb 65                	jmp    c010e2e7 <alloc_inode+0x87>
c010e282:	83 ec 0c             	sub    $0xc,%esp
c010e285:	6a 40                	push   $0x40
c010e287:	e8 64 c5 ff ff       	call   c010a7f0 <kmalloc>
c010e28c:	83 c4 10             	add    $0x10,%esp
c010e28f:	89 45 f0             	mov    %eax,-0x10(%ebp)
c010e292:	83 ec 08             	sub    $0x8,%esp
c010e295:	ff 75 0c             	pushl  0xc(%ebp)
c010e298:	ff 75 f0             	pushl  -0x10(%ebp)
c010e29b:	e8 77 ff ff ff       	call   c010e217 <init_inode>
c010e2a0:	83 c4 10             	add    $0x10,%esp
c010e2a3:	89 45 f4             	mov    %eax,-0xc(%ebp)
c010e2a6:	83 7d f4 00          	cmpl   $0x0,-0xc(%ebp)
c010e2aa:	79 13                	jns    c010e2bf <alloc_inode+0x5f>
c010e2ac:	83 ec 0c             	sub    $0xc,%esp
c010e2af:	ff 75 f0             	pushl  -0x10(%ebp)
c010e2b2:	e8 25 c6 ff ff       	call   c010a8dc <kfree>
c010e2b7:	83 c4 10             	add    $0x10,%esp
c010e2ba:	8b 45 f4             	mov    -0xc(%ebp),%eax
c010e2bd:	eb 28                	jmp    c010e2e7 <alloc_inode+0x87>
c010e2bf:	8b 45 08             	mov    0x8(%ebp),%eax
c010e2c2:	8b 00                	mov    (%eax),%eax
c010e2c4:	83 ec 08             	sub    $0x8,%esp
c010e2c7:	ff 75 f0             	pushl  -0x10(%ebp)
c010e2ca:	50                   	push   %eax
c010e2cb:	e8 9f 0e 00 00       	call   c010f16f <sync_inode>
c010e2d0:	83 c4 10             	add    $0x10,%esp
c010e2d3:	89 45 f4             	mov    %eax,-0xc(%ebp)
c010e2d6:	83 ec 0c             	sub    $0xc,%esp
c010e2d9:	ff 75 f0             	pushl  -0x10(%ebp)
c010e2dc:	e8 fb c5 ff ff       	call   c010a8dc <kfree>
c010e2e1:	83 c4 10             	add    $0x10,%esp
c010e2e4:	8b 45 f4             	mov    -0xc(%ebp),%eax
c010e2e7:	c9                   	leave  
c010e2e8:	c3                   	ret    

c010e2e9 <free_inode>:
c010e2e9:	55                   	push   %ebp
c010e2ea:	89 e5                	mov    %esp,%ebp
c010e2ec:	53                   	push   %ebx
c010e2ed:	83 ec 24             	sub    $0x24,%esp
c010e2f0:	8b 45 08             	mov    0x8(%ebp),%eax
c010e2f3:	8d 48 ff             	lea    -0x1(%eax),%ecx
c010e2f6:	a1 30 60 10 c0       	mov    0xc0106030,%eax
c010e2fb:	8b 58 14             	mov    0x14(%eax),%ebx
c010e2fe:	89 c8                	mov    %ecx,%eax
c010e300:	ba 00 00 00 00       	mov    $0x0,%edx
c010e305:	f7 f3                	div    %ebx
c010e307:	89 45 f4             	mov    %eax,-0xc(%ebp)
c010e30a:	8b 45 08             	mov    0x8(%ebp),%eax
c010e30d:	8d 50 ff             	lea    -0x1(%eax),%edx
c010e310:	a1 30 60 10 c0       	mov    0xc0106030,%eax
c010e315:	8b 48 14             	mov    0x14(%eax),%ecx
c010e318:	89 d0                	mov    %edx,%eax
c010e31a:	ba 00 00 00 00       	mov    $0x0,%edx
c010e31f:	f7 f1                	div    %ecx
c010e321:	89 55 f0             	mov    %edx,-0x10(%ebp)
c010e324:	83 ec 0c             	sub    $0xc,%esp
c010e327:	6a 14                	push   $0x14
c010e329:	e8 c2 c4 ff ff       	call   c010a7f0 <kmalloc>
c010e32e:	83 c4 10             	add    $0x10,%esp
c010e331:	89 45 ec             	mov    %eax,-0x14(%ebp)
c010e334:	83 ec 08             	sub    $0x8,%esp
c010e337:	ff 75 ec             	pushl  -0x14(%ebp)
c010e33a:	ff 75 f4             	pushl  -0xc(%ebp)
c010e33d:	e8 0c 0c 00 00       	call   c010ef4e <get_bg_descr>
c010e342:	83 c4 10             	add    $0x10,%esp
c010e345:	89 45 e8             	mov    %eax,-0x18(%ebp)
c010e348:	83 7d e8 00          	cmpl   $0x0,-0x18(%ebp)
c010e34c:	79 16                	jns    c010e364 <free_inode+0x7b>
c010e34e:	83 ec 0c             	sub    $0xc,%esp
c010e351:	ff 75 ec             	pushl  -0x14(%ebp)
c010e354:	e8 83 c5 ff ff       	call   c010a8dc <kfree>
c010e359:	83 c4 10             	add    $0x10,%esp
c010e35c:	8b 45 e8             	mov    -0x18(%ebp),%eax
c010e35f:	e9 17 01 00 00       	jmp    c010e47b <free_inode+0x192>
c010e364:	a1 30 60 10 c0       	mov    0xc0106030,%eax
c010e369:	8b 00                	mov    (%eax),%eax
c010e36b:	83 ec 0c             	sub    $0xc,%esp
c010e36e:	50                   	push   %eax
c010e36f:	e8 7c c4 ff ff       	call   c010a7f0 <kmalloc>
c010e374:	83 c4 10             	add    $0x10,%esp
c010e377:	89 45 e4             	mov    %eax,-0x1c(%ebp)
c010e37a:	a1 30 60 10 c0       	mov    0xc0106030,%eax
c010e37f:	8b 10                	mov    (%eax),%edx
c010e381:	8b 45 ec             	mov    -0x14(%ebp),%eax
c010e384:	8b 40 04             	mov    0x4(%eax),%eax
c010e387:	ff 75 e4             	pushl  -0x1c(%ebp)
c010e38a:	52                   	push   %edx
c010e38b:	6a 00                	push   $0x0
c010e38d:	50                   	push   %eax
c010e38e:	e8 b5 e7 ff ff       	call   c010cb48 <read_block>
c010e393:	83 c4 10             	add    $0x10,%esp
c010e396:	89 45 e8             	mov    %eax,-0x18(%ebp)
c010e399:	83 7d e8 00          	cmpl   $0x0,-0x18(%ebp)
c010e39d:	79 24                	jns    c010e3c3 <free_inode+0xda>
c010e39f:	83 ec 0c             	sub    $0xc,%esp
c010e3a2:	ff 75 e4             	pushl  -0x1c(%ebp)
c010e3a5:	e8 32 c5 ff ff       	call   c010a8dc <kfree>
c010e3aa:	83 c4 10             	add    $0x10,%esp
c010e3ad:	83 ec 0c             	sub    $0xc,%esp
c010e3b0:	ff 75 ec             	pushl  -0x14(%ebp)
c010e3b3:	e8 24 c5 ff ff       	call   c010a8dc <kfree>
c010e3b8:	83 c4 10             	add    $0x10,%esp
c010e3bb:	8b 45 e8             	mov    -0x18(%ebp),%eax
c010e3be:	e9 b8 00 00 00       	jmp    c010e47b <free_inode+0x192>
c010e3c3:	83 ec 08             	sub    $0x8,%esp
c010e3c6:	ff 75 f0             	pushl  -0x10(%ebp)
c010e3c9:	ff 75 e4             	pushl  -0x1c(%ebp)
c010e3cc:	e8 6e 3e 00 00       	call   c011223f <bitset_clear>
c010e3d1:	83 c4 10             	add    $0x10,%esp
c010e3d4:	a1 30 60 10 c0       	mov    0xc0106030,%eax
c010e3d9:	8b 10                	mov    (%eax),%edx
c010e3db:	8b 45 ec             	mov    -0x14(%ebp),%eax
c010e3de:	8b 40 04             	mov    0x4(%eax),%eax
c010e3e1:	ff 75 e4             	pushl  -0x1c(%ebp)
c010e3e4:	52                   	push   %edx
c010e3e5:	6a 00                	push   $0x0
c010e3e7:	50                   	push   %eax
c010e3e8:	e8 ee e7 ff ff       	call   c010cbdb <write_block>
c010e3ed:	83 c4 10             	add    $0x10,%esp
c010e3f0:	89 45 e8             	mov    %eax,-0x18(%ebp)
c010e3f3:	83 ec 0c             	sub    $0xc,%esp
c010e3f6:	ff 75 e4             	pushl  -0x1c(%ebp)
c010e3f9:	e8 de c4 ff ff       	call   c010a8dc <kfree>
c010e3fe:	83 c4 10             	add    $0x10,%esp
c010e401:	83 7d e8 00          	cmpl   $0x0,-0x18(%ebp)
c010e405:	79 13                	jns    c010e41a <free_inode+0x131>
c010e407:	83 ec 0c             	sub    $0xc,%esp
c010e40a:	ff 75 ec             	pushl  -0x14(%ebp)
c010e40d:	e8 ca c4 ff ff       	call   c010a8dc <kfree>
c010e412:	83 c4 10             	add    $0x10,%esp
c010e415:	8b 45 e8             	mov    -0x18(%ebp),%eax
c010e418:	eb 61                	jmp    c010e47b <free_inode+0x192>
c010e41a:	8b 45 ec             	mov    -0x14(%ebp),%eax
c010e41d:	8b 40 10             	mov    0x10(%eax),%eax
c010e420:	8d 50 01             	lea    0x1(%eax),%edx
c010e423:	8b 45 ec             	mov    -0x14(%ebp),%eax
c010e426:	89 50 10             	mov    %edx,0x10(%eax)
c010e429:	83 ec 08             	sub    $0x8,%esp
c010e42c:	ff 75 ec             	pushl  -0x14(%ebp)
c010e42f:	ff 75 f4             	pushl  -0xc(%ebp)
c010e432:	e8 b7 0b 00 00       	call   c010efee <sync_bg_descr>
c010e437:	83 c4 10             	add    $0x10,%esp
c010e43a:	89 45 e8             	mov    %eax,-0x18(%ebp)
c010e43d:	83 ec 0c             	sub    $0xc,%esp
c010e440:	ff 75 ec             	pushl  -0x14(%ebp)
c010e443:	e8 94 c4 ff ff       	call   c010a8dc <kfree>
c010e448:	83 c4 10             	add    $0x10,%esp
c010e44b:	83 7d e8 00          	cmpl   $0x0,-0x18(%ebp)
c010e44f:	79 05                	jns    c010e456 <free_inode+0x16d>
c010e451:	8b 45 e8             	mov    -0x18(%ebp),%eax
c010e454:	eb 25                	jmp    c010e47b <free_inode+0x192>
c010e456:	a1 30 60 10 c0       	mov    0xc0106030,%eax
c010e45b:	8b 50 1c             	mov    0x1c(%eax),%edx
c010e45e:	83 c2 01             	add    $0x1,%edx
c010e461:	89 50 1c             	mov    %edx,0x1c(%eax)
c010e464:	a1 30 60 10 c0       	mov    0xc0106030,%eax
c010e469:	83 ec 0c             	sub    $0xc,%esp
c010e46c:	50                   	push   %eax
c010e46d:	e8 55 0a 00 00       	call   c010eec7 <sync_superblock>
c010e472:	83 c4 10             	add    $0x10,%esp
c010e475:	89 45 e8             	mov    %eax,-0x18(%ebp)
c010e478:	8b 45 e8             	mov    -0x18(%ebp),%eax
c010e47b:	8b 5d fc             	mov    -0x4(%ebp),%ebx
c010e47e:	c9                   	leave  
c010e47f:	c3                   	ret    

c010e480 <alloc_in_bg>:
c010e480:	55                   	push   %ebp
c010e481:	89 e5                	mov    %esp,%ebp
c010e483:	83 ec 18             	sub    $0x18,%esp
c010e486:	83 ec 0c             	sub    $0xc,%esp
c010e489:	6a 14                	push   $0x14
c010e48b:	e8 60 c3 ff ff       	call   c010a7f0 <kmalloc>
c010e490:	83 c4 10             	add    $0x10,%esp
c010e493:	89 45 f4             	mov    %eax,-0xc(%ebp)
c010e496:	83 ec 08             	sub    $0x8,%esp
c010e499:	ff 75 f4             	pushl  -0xc(%ebp)
c010e49c:	ff 75 0c             	pushl  0xc(%ebp)
c010e49f:	e8 aa 0a 00 00       	call   c010ef4e <get_bg_descr>
c010e4a4:	83 c4 10             	add    $0x10,%esp
c010e4a7:	89 45 f0             	mov    %eax,-0x10(%ebp)
c010e4aa:	83 7d f0 00          	cmpl   $0x0,-0x10(%ebp)
c010e4ae:	79 16                	jns    c010e4c6 <alloc_in_bg+0x46>
c010e4b0:	83 ec 0c             	sub    $0xc,%esp
c010e4b3:	ff 75 f4             	pushl  -0xc(%ebp)
c010e4b6:	e8 21 c4 ff ff       	call   c010a8dc <kfree>
c010e4bb:	83 c4 10             	add    $0x10,%esp
c010e4be:	8b 45 f0             	mov    -0x10(%ebp),%eax
c010e4c1:	e9 3c 01 00 00       	jmp    c010e602 <alloc_in_bg+0x182>
c010e4c6:	8b 45 f4             	mov    -0xc(%ebp),%eax
c010e4c9:	8b 40 0c             	mov    0xc(%eax),%eax
c010e4cc:	85 c0                	test   %eax,%eax
c010e4ce:	75 0a                	jne    c010e4da <alloc_in_bg+0x5a>
c010e4d0:	b8 00 00 00 00       	mov    $0x0,%eax
c010e4d5:	e9 28 01 00 00       	jmp    c010e602 <alloc_in_bg+0x182>
c010e4da:	a1 30 60 10 c0       	mov    0xc0106030,%eax
c010e4df:	8b 00                	mov    (%eax),%eax
c010e4e1:	83 ec 0c             	sub    $0xc,%esp
c010e4e4:	50                   	push   %eax
c010e4e5:	e8 06 c3 ff ff       	call   c010a7f0 <kmalloc>
c010e4ea:	83 c4 10             	add    $0x10,%esp
c010e4ed:	89 45 ec             	mov    %eax,-0x14(%ebp)
c010e4f0:	a1 30 60 10 c0       	mov    0xc0106030,%eax
c010e4f5:	8b 10                	mov    (%eax),%edx
c010e4f7:	8b 45 f4             	mov    -0xc(%ebp),%eax
c010e4fa:	8b 00                	mov    (%eax),%eax
c010e4fc:	ff 75 ec             	pushl  -0x14(%ebp)
c010e4ff:	52                   	push   %edx
c010e500:	6a 00                	push   $0x0
c010e502:	50                   	push   %eax
c010e503:	e8 40 e6 ff ff       	call   c010cb48 <read_block>
c010e508:	83 c4 10             	add    $0x10,%esp
c010e50b:	89 45 f0             	mov    %eax,-0x10(%ebp)
c010e50e:	83 7d f0 00          	cmpl   $0x0,-0x10(%ebp)
c010e512:	79 24                	jns    c010e538 <alloc_in_bg+0xb8>
c010e514:	83 ec 0c             	sub    $0xc,%esp
c010e517:	ff 75 f4             	pushl  -0xc(%ebp)
c010e51a:	e8 bd c3 ff ff       	call   c010a8dc <kfree>
c010e51f:	83 c4 10             	add    $0x10,%esp
c010e522:	83 ec 0c             	sub    $0xc,%esp
c010e525:	ff 75 ec             	pushl  -0x14(%ebp)
c010e528:	e8 af c3 ff ff       	call   c010a8dc <kfree>
c010e52d:	83 c4 10             	add    $0x10,%esp
c010e530:	8b 45 f0             	mov    -0x10(%ebp),%eax
c010e533:	e9 ca 00 00 00       	jmp    c010e602 <alloc_in_bg+0x182>
c010e538:	a1 30 60 10 c0       	mov    0xc0106030,%eax
c010e53d:	8b 40 10             	mov    0x10(%eax),%eax
c010e540:	83 ec 08             	sub    $0x8,%esp
c010e543:	50                   	push   %eax
c010e544:	ff 75 ec             	pushl  -0x14(%ebp)
c010e547:	e8 87 3e 00 00       	call   c01123d3 <bitset_find_zero>
c010e54c:	83 c4 10             	add    $0x10,%esp
c010e54f:	89 45 e8             	mov    %eax,-0x18(%ebp)
c010e552:	83 ec 08             	sub    $0x8,%esp
c010e555:	ff 75 e8             	pushl  -0x18(%ebp)
c010e558:	ff 75 ec             	pushl  -0x14(%ebp)
c010e55b:	e8 5e 3c 00 00       	call   c01121be <bitset_set>
c010e560:	83 c4 10             	add    $0x10,%esp
c010e563:	8b 45 f4             	mov    -0xc(%ebp),%eax
c010e566:	8b 40 0c             	mov    0xc(%eax),%eax
c010e569:	8d 50 ff             	lea    -0x1(%eax),%edx
c010e56c:	8b 45 f4             	mov    -0xc(%ebp),%eax
c010e56f:	89 50 0c             	mov    %edx,0xc(%eax)
c010e572:	a1 30 60 10 c0       	mov    0xc0106030,%eax
c010e577:	8b 40 10             	mov    0x10(%eax),%eax
c010e57a:	0f af 45 0c          	imul   0xc(%ebp),%eax
c010e57e:	89 c2                	mov    %eax,%edx
c010e580:	8b 45 e8             	mov    -0x18(%ebp),%eax
c010e583:	01 c2                	add    %eax,%edx
c010e585:	8b 45 08             	mov    0x8(%ebp),%eax
c010e588:	89 10                	mov    %edx,(%eax)
c010e58a:	a1 30 60 10 c0       	mov    0xc0106030,%eax
c010e58f:	8b 10                	mov    (%eax),%edx
c010e591:	8b 45 f4             	mov    -0xc(%ebp),%eax
c010e594:	8b 00                	mov    (%eax),%eax
c010e596:	ff 75 ec             	pushl  -0x14(%ebp)
c010e599:	52                   	push   %edx
c010e59a:	6a 00                	push   $0x0
c010e59c:	50                   	push   %eax
c010e59d:	e8 39 e6 ff ff       	call   c010cbdb <write_block>
c010e5a2:	83 c4 10             	add    $0x10,%esp
c010e5a5:	89 45 f0             	mov    %eax,-0x10(%ebp)
c010e5a8:	83 7d f0 00          	cmpl   $0x0,-0x10(%ebp)
c010e5ac:	79 21                	jns    c010e5cf <alloc_in_bg+0x14f>
c010e5ae:	83 ec 0c             	sub    $0xc,%esp
c010e5b1:	ff 75 f4             	pushl  -0xc(%ebp)
c010e5b4:	e8 23 c3 ff ff       	call   c010a8dc <kfree>
c010e5b9:	83 c4 10             	add    $0x10,%esp
c010e5bc:	83 ec 0c             	sub    $0xc,%esp
c010e5bf:	ff 75 ec             	pushl  -0x14(%ebp)
c010e5c2:	e8 15 c3 ff ff       	call   c010a8dc <kfree>
c010e5c7:	83 c4 10             	add    $0x10,%esp
c010e5ca:	8b 45 f0             	mov    -0x10(%ebp),%eax
c010e5cd:	eb 33                	jmp    c010e602 <alloc_in_bg+0x182>
c010e5cf:	83 ec 08             	sub    $0x8,%esp
c010e5d2:	ff 75 f4             	pushl  -0xc(%ebp)
c010e5d5:	ff 75 0c             	pushl  0xc(%ebp)
c010e5d8:	e8 11 0a 00 00       	call   c010efee <sync_bg_descr>
c010e5dd:	83 c4 10             	add    $0x10,%esp
c010e5e0:	89 45 f0             	mov    %eax,-0x10(%ebp)
c010e5e3:	83 ec 0c             	sub    $0xc,%esp
c010e5e6:	ff 75 ec             	pushl  -0x14(%ebp)
c010e5e9:	e8 ee c2 ff ff       	call   c010a8dc <kfree>
c010e5ee:	83 c4 10             	add    $0x10,%esp
c010e5f1:	83 ec 0c             	sub    $0xc,%esp
c010e5f4:	ff 75 f4             	pushl  -0xc(%ebp)
c010e5f7:	e8 e0 c2 ff ff       	call   c010a8dc <kfree>
c010e5fc:	83 c4 10             	add    $0x10,%esp
c010e5ff:	8b 45 f0             	mov    -0x10(%ebp),%eax
c010e602:	c9                   	leave  
c010e603:	c3                   	ret    

c010e604 <alloc_block>:
c010e604:	55                   	push   %ebp
c010e605:	89 e5                	mov    %esp,%ebp
c010e607:	83 ec 18             	sub    $0x18,%esp
c010e60a:	a1 30 60 10 c0       	mov    0xc0106030,%eax
c010e60f:	8b 40 04             	mov    0x4(%eax),%eax
c010e612:	39 45 0c             	cmp    %eax,0xc(%ebp)
c010e615:	72 0a                	jb     c010e621 <alloc_block+0x1d>
c010e617:	b8 fe ff ff ff       	mov    $0xfffffffe,%eax
c010e61c:	e9 ab 00 00 00       	jmp    c010e6cc <alloc_block+0xc8>
c010e621:	a1 30 60 10 c0       	mov    0xc0106030,%eax
c010e626:	8b 40 18             	mov    0x18(%eax),%eax
c010e629:	85 c0                	test   %eax,%eax
c010e62b:	75 0a                	jne    c010e637 <alloc_block+0x33>
c010e62d:	b8 f8 ff ff ff       	mov    $0xfffffff8,%eax
c010e632:	e9 95 00 00 00       	jmp    c010e6cc <alloc_block+0xc8>
c010e637:	83 ec 08             	sub    $0x8,%esp
c010e63a:	ff 75 0c             	pushl  0xc(%ebp)
c010e63d:	ff 75 08             	pushl  0x8(%ebp)
c010e640:	e8 3b fe ff ff       	call   c010e480 <alloc_in_bg>
c010e645:	83 c4 10             	add    $0x10,%esp
c010e648:	89 45 f0             	mov    %eax,-0x10(%ebp)
c010e64b:	83 7d f0 00          	cmpl   $0x0,-0x10(%ebp)
c010e64f:	79 05                	jns    c010e656 <alloc_block+0x52>
c010e651:	8b 45 f0             	mov    -0x10(%ebp),%eax
c010e654:	eb 76                	jmp    c010e6cc <alloc_block+0xc8>
c010e656:	83 7d f0 00          	cmpl   $0x0,-0x10(%ebp)
c010e65a:	7f 47                	jg     c010e6a3 <alloc_block+0x9f>
c010e65c:	c7 45 f4 00 00 00 00 	movl   $0x0,-0xc(%ebp)
c010e663:	eb 29                	jmp    c010e68e <alloc_block+0x8a>
c010e665:	83 ec 08             	sub    $0x8,%esp
c010e668:	ff 75 f4             	pushl  -0xc(%ebp)
c010e66b:	ff 75 08             	pushl  0x8(%ebp)
c010e66e:	e8 0d fe ff ff       	call   c010e480 <alloc_in_bg>
c010e673:	83 c4 10             	add    $0x10,%esp
c010e676:	89 45 f0             	mov    %eax,-0x10(%ebp)
c010e679:	83 7d f0 00          	cmpl   $0x0,-0x10(%ebp)
c010e67d:	79 05                	jns    c010e684 <alloc_block+0x80>
c010e67f:	8b 45 f0             	mov    -0x10(%ebp),%eax
c010e682:	eb 48                	jmp    c010e6cc <alloc_block+0xc8>
c010e684:	83 7d f0 00          	cmpl   $0x0,-0x10(%ebp)
c010e688:	7f 1c                	jg     c010e6a6 <alloc_block+0xa2>
c010e68a:	83 45 f4 01          	addl   $0x1,-0xc(%ebp)
c010e68e:	a1 30 60 10 c0       	mov    0xc0106030,%eax
c010e693:	8b 40 04             	mov    0x4(%eax),%eax
c010e696:	39 45 f4             	cmp    %eax,-0xc(%ebp)
c010e699:	72 ca                	jb     c010e665 <alloc_block+0x61>
c010e69b:	90                   	nop
c010e69c:	b8 f9 ff ff ff       	mov    $0xfffffff9,%eax
c010e6a1:	eb 29                	jmp    c010e6cc <alloc_block+0xc8>
c010e6a3:	90                   	nop
c010e6a4:	eb 01                	jmp    c010e6a7 <alloc_block+0xa3>
c010e6a6:	90                   	nop
c010e6a7:	a1 30 60 10 c0       	mov    0xc0106030,%eax
c010e6ac:	8b 50 18             	mov    0x18(%eax),%edx
c010e6af:	83 ea 01             	sub    $0x1,%edx
c010e6b2:	89 50 18             	mov    %edx,0x18(%eax)
c010e6b5:	a1 30 60 10 c0       	mov    0xc0106030,%eax
c010e6ba:	83 ec 0c             	sub    $0xc,%esp
c010e6bd:	50                   	push   %eax
c010e6be:	e8 04 08 00 00       	call   c010eec7 <sync_superblock>
c010e6c3:	83 c4 10             	add    $0x10,%esp
c010e6c6:	89 45 f0             	mov    %eax,-0x10(%ebp)
c010e6c9:	8b 45 f0             	mov    -0x10(%ebp),%eax
c010e6cc:	c9                   	leave  
c010e6cd:	c3                   	ret    

c010e6ce <free_block>:
c010e6ce:	55                   	push   %ebp
c010e6cf:	89 e5                	mov    %esp,%ebp
c010e6d1:	83 ec 28             	sub    $0x28,%esp
c010e6d4:	83 7d 08 00          	cmpl   $0x0,0x8(%ebp)
c010e6d8:	75 0a                	jne    c010e6e4 <free_block+0x16>
c010e6da:	b8 00 00 00 00       	mov    $0x0,%eax
c010e6df:	e9 7f 01 00 00       	jmp    c010e863 <free_block+0x195>
c010e6e4:	a1 30 60 10 c0       	mov    0xc0106030,%eax
c010e6e9:	8b 48 10             	mov    0x10(%eax),%ecx
c010e6ec:	8b 45 08             	mov    0x8(%ebp),%eax
c010e6ef:	ba 00 00 00 00       	mov    $0x0,%edx
c010e6f4:	f7 f1                	div    %ecx
c010e6f6:	89 45 f4             	mov    %eax,-0xc(%ebp)
c010e6f9:	a1 30 60 10 c0       	mov    0xc0106030,%eax
c010e6fe:	8b 48 10             	mov    0x10(%eax),%ecx
c010e701:	8b 45 08             	mov    0x8(%ebp),%eax
c010e704:	ba 00 00 00 00       	mov    $0x0,%edx
c010e709:	f7 f1                	div    %ecx
c010e70b:	89 55 f0             	mov    %edx,-0x10(%ebp)
c010e70e:	83 ec 0c             	sub    $0xc,%esp
c010e711:	6a 14                	push   $0x14
c010e713:	e8 d8 c0 ff ff       	call   c010a7f0 <kmalloc>
c010e718:	83 c4 10             	add    $0x10,%esp
c010e71b:	89 45 ec             	mov    %eax,-0x14(%ebp)
c010e71e:	83 ec 08             	sub    $0x8,%esp
c010e721:	ff 75 ec             	pushl  -0x14(%ebp)
c010e724:	ff 75 f4             	pushl  -0xc(%ebp)
c010e727:	e8 22 08 00 00       	call   c010ef4e <get_bg_descr>
c010e72c:	83 c4 10             	add    $0x10,%esp
c010e72f:	89 45 e8             	mov    %eax,-0x18(%ebp)
c010e732:	83 7d e8 00          	cmpl   $0x0,-0x18(%ebp)
c010e736:	79 16                	jns    c010e74e <free_block+0x80>
c010e738:	83 ec 0c             	sub    $0xc,%esp
c010e73b:	ff 75 ec             	pushl  -0x14(%ebp)
c010e73e:	e8 99 c1 ff ff       	call   c010a8dc <kfree>
c010e743:	83 c4 10             	add    $0x10,%esp
c010e746:	8b 45 e8             	mov    -0x18(%ebp),%eax
c010e749:	e9 15 01 00 00       	jmp    c010e863 <free_block+0x195>
c010e74e:	a1 30 60 10 c0       	mov    0xc0106030,%eax
c010e753:	8b 00                	mov    (%eax),%eax
c010e755:	83 ec 0c             	sub    $0xc,%esp
c010e758:	50                   	push   %eax
c010e759:	e8 92 c0 ff ff       	call   c010a7f0 <kmalloc>
c010e75e:	83 c4 10             	add    $0x10,%esp
c010e761:	89 45 e4             	mov    %eax,-0x1c(%ebp)
c010e764:	a1 30 60 10 c0       	mov    0xc0106030,%eax
c010e769:	8b 10                	mov    (%eax),%edx
c010e76b:	8b 45 ec             	mov    -0x14(%ebp),%eax
c010e76e:	8b 00                	mov    (%eax),%eax
c010e770:	ff 75 e4             	pushl  -0x1c(%ebp)
c010e773:	52                   	push   %edx
c010e774:	6a 00                	push   $0x0
c010e776:	50                   	push   %eax
c010e777:	e8 cc e3 ff ff       	call   c010cb48 <read_block>
c010e77c:	83 c4 10             	add    $0x10,%esp
c010e77f:	89 45 e8             	mov    %eax,-0x18(%ebp)
c010e782:	83 7d e8 00          	cmpl   $0x0,-0x18(%ebp)
c010e786:	79 24                	jns    c010e7ac <free_block+0xde>
c010e788:	83 ec 0c             	sub    $0xc,%esp
c010e78b:	ff 75 e4             	pushl  -0x1c(%ebp)
c010e78e:	e8 49 c1 ff ff       	call   c010a8dc <kfree>
c010e793:	83 c4 10             	add    $0x10,%esp
c010e796:	83 ec 0c             	sub    $0xc,%esp
c010e799:	ff 75 ec             	pushl  -0x14(%ebp)
c010e79c:	e8 3b c1 ff ff       	call   c010a8dc <kfree>
c010e7a1:	83 c4 10             	add    $0x10,%esp
c010e7a4:	8b 45 e8             	mov    -0x18(%ebp),%eax
c010e7a7:	e9 b7 00 00 00       	jmp    c010e863 <free_block+0x195>
c010e7ac:	83 ec 08             	sub    $0x8,%esp
c010e7af:	ff 75 f0             	pushl  -0x10(%ebp)
c010e7b2:	ff 75 e4             	pushl  -0x1c(%ebp)
c010e7b5:	e8 85 3a 00 00       	call   c011223f <bitset_clear>
c010e7ba:	83 c4 10             	add    $0x10,%esp
c010e7bd:	a1 30 60 10 c0       	mov    0xc0106030,%eax
c010e7c2:	8b 10                	mov    (%eax),%edx
c010e7c4:	8b 45 ec             	mov    -0x14(%ebp),%eax
c010e7c7:	8b 00                	mov    (%eax),%eax
c010e7c9:	ff 75 e4             	pushl  -0x1c(%ebp)
c010e7cc:	52                   	push   %edx
c010e7cd:	6a 00                	push   $0x0
c010e7cf:	50                   	push   %eax
c010e7d0:	e8 06 e4 ff ff       	call   c010cbdb <write_block>
c010e7d5:	83 c4 10             	add    $0x10,%esp
c010e7d8:	89 45 e8             	mov    %eax,-0x18(%ebp)
c010e7db:	83 ec 0c             	sub    $0xc,%esp
c010e7de:	ff 75 e4             	pushl  -0x1c(%ebp)
c010e7e1:	e8 f6 c0 ff ff       	call   c010a8dc <kfree>
c010e7e6:	83 c4 10             	add    $0x10,%esp
c010e7e9:	83 7d e8 00          	cmpl   $0x0,-0x18(%ebp)
c010e7ed:	79 13                	jns    c010e802 <free_block+0x134>
c010e7ef:	83 ec 0c             	sub    $0xc,%esp
c010e7f2:	ff 75 ec             	pushl  -0x14(%ebp)
c010e7f5:	e8 e2 c0 ff ff       	call   c010a8dc <kfree>
c010e7fa:	83 c4 10             	add    $0x10,%esp
c010e7fd:	8b 45 e8             	mov    -0x18(%ebp),%eax
c010e800:	eb 61                	jmp    c010e863 <free_block+0x195>
c010e802:	8b 45 ec             	mov    -0x14(%ebp),%eax
c010e805:	8b 40 0c             	mov    0xc(%eax),%eax
c010e808:	8d 50 01             	lea    0x1(%eax),%edx
c010e80b:	8b 45 ec             	mov    -0x14(%ebp),%eax
c010e80e:	89 50 0c             	mov    %edx,0xc(%eax)
c010e811:	83 ec 08             	sub    $0x8,%esp
c010e814:	ff 75 ec             	pushl  -0x14(%ebp)
c010e817:	ff 75 f4             	pushl  -0xc(%ebp)
c010e81a:	e8 cf 07 00 00       	call   c010efee <sync_bg_descr>
c010e81f:	83 c4 10             	add    $0x10,%esp
c010e822:	89 45 e8             	mov    %eax,-0x18(%ebp)
c010e825:	83 ec 0c             	sub    $0xc,%esp
c010e828:	ff 75 ec             	pushl  -0x14(%ebp)
c010e82b:	e8 ac c0 ff ff       	call   c010a8dc <kfree>
c010e830:	83 c4 10             	add    $0x10,%esp
c010e833:	83 7d e8 00          	cmpl   $0x0,-0x18(%ebp)
c010e837:	79 05                	jns    c010e83e <free_block+0x170>
c010e839:	8b 45 e8             	mov    -0x18(%ebp),%eax
c010e83c:	eb 25                	jmp    c010e863 <free_block+0x195>
c010e83e:	a1 30 60 10 c0       	mov    0xc0106030,%eax
c010e843:	8b 50 18             	mov    0x18(%eax),%edx
c010e846:	83 c2 01             	add    $0x1,%edx
c010e849:	89 50 18             	mov    %edx,0x18(%eax)
c010e84c:	a1 30 60 10 c0       	mov    0xc0106030,%eax
c010e851:	83 ec 0c             	sub    $0xc,%esp
c010e854:	50                   	push   %eax
c010e855:	e8 6d 06 00 00       	call   c010eec7 <sync_superblock>
c010e85a:	83 c4 10             	add    $0x10,%esp
c010e85d:	89 45 e8             	mov    %eax,-0x18(%ebp)
c010e860:	8b 45 e8             	mov    -0x18(%ebp),%eax
c010e863:	c9                   	leave  
c010e864:	c3                   	ret    

c010e865 <div_ceil>:
c010e865:	55                   	push   %ebp
c010e866:	89 e5                	mov    %esp,%ebp
c010e868:	83 ec 10             	sub    $0x10,%esp
c010e86b:	8b 45 08             	mov    0x8(%ebp),%eax
c010e86e:	ba 00 00 00 00       	mov    $0x0,%edx
c010e873:	f7 75 0c             	divl   0xc(%ebp)
c010e876:	89 45 fc             	mov    %eax,-0x4(%ebp)
c010e879:	8b 45 08             	mov    0x8(%ebp),%eax
c010e87c:	ba 00 00 00 00       	mov    $0x0,%edx
c010e881:	f7 75 0c             	divl   0xc(%ebp)
c010e884:	89 d0                	mov    %edx,%eax
c010e886:	85 c0                	test   %eax,%eax
c010e888:	74 08                	je     c010e892 <div_ceil+0x2d>
c010e88a:	8b 45 fc             	mov    -0x4(%ebp),%eax
c010e88d:	83 c0 01             	add    $0x1,%eax
c010e890:	eb 03                	jmp    c010e895 <div_ceil+0x30>
c010e892:	8b 45 fc             	mov    -0x4(%ebp),%eax
c010e895:	c9                   	leave  
c010e896:	c3                   	ret    

c010e897 <resize_inode>:
c010e897:	55                   	push   %ebp
c010e898:	89 e5                	mov    %esp,%ebp
c010e89a:	83 ec 38             	sub    $0x38,%esp
c010e89d:	83 ec 08             	sub    $0x8,%esp
c010e8a0:	8d 45 cc             	lea    -0x34(%ebp),%eax
c010e8a3:	50                   	push   %eax
c010e8a4:	ff 75 08             	pushl  0x8(%ebp)
c010e8a7:	e8 c8 e1 ff ff       	call   c010ca74 <get_inode_fsize>
c010e8ac:	83 c4 10             	add    $0x10,%esp
c010e8af:	89 45 ec             	mov    %eax,-0x14(%ebp)
c010e8b2:	83 7d ec 00          	cmpl   $0x0,-0x14(%ebp)
c010e8b6:	79 08                	jns    c010e8c0 <resize_inode+0x29>
c010e8b8:	8b 45 ec             	mov    -0x14(%ebp),%eax
c010e8bb:	e9 48 02 00 00       	jmp    c010eb08 <resize_inode+0x271>
c010e8c0:	a1 30 60 10 c0       	mov    0xc0106030,%eax
c010e8c5:	8b 10                	mov    (%eax),%edx
c010e8c7:	8b 45 cc             	mov    -0x34(%ebp),%eax
c010e8ca:	83 ec 08             	sub    $0x8,%esp
c010e8cd:	52                   	push   %edx
c010e8ce:	50                   	push   %eax
c010e8cf:	e8 91 ff ff ff       	call   c010e865 <div_ceil>
c010e8d4:	83 c4 10             	add    $0x10,%esp
c010e8d7:	89 45 e8             	mov    %eax,-0x18(%ebp)
c010e8da:	a1 30 60 10 c0       	mov    0xc0106030,%eax
c010e8df:	8b 00                	mov    (%eax),%eax
c010e8e1:	83 ec 08             	sub    $0x8,%esp
c010e8e4:	50                   	push   %eax
c010e8e5:	ff 75 0c             	pushl  0xc(%ebp)
c010e8e8:	e8 78 ff ff ff       	call   c010e865 <div_ceil>
c010e8ed:	83 c4 10             	add    $0x10,%esp
c010e8f0:	89 45 e4             	mov    %eax,-0x1c(%ebp)
c010e8f3:	8b 45 e4             	mov    -0x1c(%ebp),%eax
c010e8f6:	3b 45 e8             	cmp    -0x18(%ebp),%eax
c010e8f9:	0f 83 09 01 00 00    	jae    c010ea08 <resize_inode+0x171>
c010e8ff:	8b 45 e8             	mov    -0x18(%ebp),%eax
c010e902:	2b 45 e4             	sub    -0x1c(%ebp),%eax
c010e905:	89 45 d4             	mov    %eax,-0x2c(%ebp)
c010e908:	8b 45 d4             	mov    -0x2c(%ebp),%eax
c010e90b:	c1 e0 02             	shl    $0x2,%eax
c010e90e:	83 ec 0c             	sub    $0xc,%esp
c010e911:	50                   	push   %eax
c010e912:	e8 d9 be ff ff       	call   c010a7f0 <kmalloc>
c010e917:	83 c4 10             	add    $0x10,%esp
c010e91a:	89 45 d0             	mov    %eax,-0x30(%ebp)
c010e91d:	ff 75 d0             	pushl  -0x30(%ebp)
c010e920:	ff 75 d4             	pushl  -0x2c(%ebp)
c010e923:	ff 75 e4             	pushl  -0x1c(%ebp)
c010e926:	ff 75 08             	pushl  0x8(%ebp)
c010e929:	e8 59 ea ff ff       	call   c010d387 <read_bl_nums>
c010e92e:	83 c4 10             	add    $0x10,%esp
c010e931:	89 45 ec             	mov    %eax,-0x14(%ebp)
c010e934:	83 7d ec 00          	cmpl   $0x0,-0x14(%ebp)
c010e938:	79 16                	jns    c010e950 <resize_inode+0xb9>
c010e93a:	83 ec 0c             	sub    $0xc,%esp
c010e93d:	ff 75 d0             	pushl  -0x30(%ebp)
c010e940:	e8 97 bf ff ff       	call   c010a8dc <kfree>
c010e945:	83 c4 10             	add    $0x10,%esp
c010e948:	8b 45 ec             	mov    -0x14(%ebp),%eax
c010e94b:	e9 b8 01 00 00       	jmp    c010eb08 <resize_inode+0x271>
c010e950:	c7 45 f4 00 00 00 00 	movl   $0x0,-0xc(%ebp)
c010e957:	e9 8d 00 00 00       	jmp    c010e9e9 <resize_inode+0x152>
c010e95c:	8b 45 f4             	mov    -0xc(%ebp),%eax
c010e95f:	8d 14 85 00 00 00 00 	lea    0x0(,%eax,4),%edx
c010e966:	8b 45 d0             	mov    -0x30(%ebp),%eax
c010e969:	01 d0                	add    %edx,%eax
c010e96b:	8b 00                	mov    (%eax),%eax
c010e96d:	85 c0                	test   %eax,%eax
c010e96f:	74 74                	je     c010e9e5 <resize_inode+0x14e>
c010e971:	8b 45 f4             	mov    -0xc(%ebp),%eax
c010e974:	8d 14 85 00 00 00 00 	lea    0x0(,%eax,4),%edx
c010e97b:	8b 45 d0             	mov    -0x30(%ebp),%eax
c010e97e:	01 d0                	add    %edx,%eax
c010e980:	8b 00                	mov    (%eax),%eax
c010e982:	83 ec 0c             	sub    $0xc,%esp
c010e985:	50                   	push   %eax
c010e986:	e8 43 fd ff ff       	call   c010e6ce <free_block>
c010e98b:	83 c4 10             	add    $0x10,%esp
c010e98e:	89 45 ec             	mov    %eax,-0x14(%ebp)
c010e991:	83 7d ec 00          	cmpl   $0x0,-0x14(%ebp)
c010e995:	79 16                	jns    c010e9ad <resize_inode+0x116>
c010e997:	83 ec 0c             	sub    $0xc,%esp
c010e99a:	ff 75 d0             	pushl  -0x30(%ebp)
c010e99d:	e8 3a bf ff ff       	call   c010a8dc <kfree>
c010e9a2:	83 c4 10             	add    $0x10,%esp
c010e9a5:	8b 45 ec             	mov    -0x14(%ebp),%eax
c010e9a8:	e9 5b 01 00 00       	jmp    c010eb08 <resize_inode+0x271>
c010e9ad:	8b 55 e4             	mov    -0x1c(%ebp),%edx
c010e9b0:	8b 45 f4             	mov    -0xc(%ebp),%eax
c010e9b3:	01 d0                	add    %edx,%eax
c010e9b5:	83 ec 04             	sub    $0x4,%esp
c010e9b8:	6a 00                	push   $0x0
c010e9ba:	50                   	push   %eax
c010e9bb:	ff 75 08             	pushl  0x8(%ebp)
c010e9be:	e8 d3 eb ff ff       	call   c010d596 <write_bl_num>
c010e9c3:	83 c4 10             	add    $0x10,%esp
c010e9c6:	89 45 ec             	mov    %eax,-0x14(%ebp)
c010e9c9:	83 7d ec 00          	cmpl   $0x0,-0x14(%ebp)
c010e9cd:	79 16                	jns    c010e9e5 <resize_inode+0x14e>
c010e9cf:	83 ec 0c             	sub    $0xc,%esp
c010e9d2:	ff 75 d0             	pushl  -0x30(%ebp)
c010e9d5:	e8 02 bf ff ff       	call   c010a8dc <kfree>
c010e9da:	83 c4 10             	add    $0x10,%esp
c010e9dd:	8b 45 ec             	mov    -0x14(%ebp),%eax
c010e9e0:	e9 23 01 00 00       	jmp    c010eb08 <resize_inode+0x271>
c010e9e5:	83 45 f4 01          	addl   $0x1,-0xc(%ebp)
c010e9e9:	8b 45 f4             	mov    -0xc(%ebp),%eax
c010e9ec:	3b 45 d4             	cmp    -0x2c(%ebp),%eax
c010e9ef:	0f 82 67 ff ff ff    	jb     c010e95c <resize_inode+0xc5>
c010e9f5:	83 ec 0c             	sub    $0xc,%esp
c010e9f8:	ff 75 d0             	pushl  -0x30(%ebp)
c010e9fb:	e8 dc be ff ff       	call   c010a8dc <kfree>
c010ea00:	83 c4 10             	add    $0x10,%esp
c010ea03:	e9 e9 00 00 00       	jmp    c010eaf1 <resize_inode+0x25a>
c010ea08:	8b 45 e4             	mov    -0x1c(%ebp),%eax
c010ea0b:	3b 45 e8             	cmp    -0x18(%ebp),%eax
c010ea0e:	0f 86 dd 00 00 00    	jbe    c010eaf1 <resize_inode+0x25a>
c010ea14:	83 ec 0c             	sub    $0xc,%esp
c010ea17:	6a 40                	push   $0x40
c010ea19:	e8 d2 bd ff ff       	call   c010a7f0 <kmalloc>
c010ea1e:	83 c4 10             	add    $0x10,%esp
c010ea21:	89 45 e0             	mov    %eax,-0x20(%ebp)
c010ea24:	83 ec 08             	sub    $0x8,%esp
c010ea27:	ff 75 e0             	pushl  -0x20(%ebp)
c010ea2a:	ff 75 08             	pushl  0x8(%ebp)
c010ea2d:	e8 48 06 00 00       	call   c010f07a <get_inode>
c010ea32:	83 c4 10             	add    $0x10,%esp
c010ea35:	89 45 dc             	mov    %eax,-0x24(%ebp)
c010ea38:	83 7d dc 00          	cmpl   $0x0,-0x24(%ebp)
c010ea3c:	79 16                	jns    c010ea54 <resize_inode+0x1bd>
c010ea3e:	83 ec 0c             	sub    $0xc,%esp
c010ea41:	ff 75 e0             	pushl  -0x20(%ebp)
c010ea44:	e8 93 be ff ff       	call   c010a8dc <kfree>
c010ea49:	83 c4 10             	add    $0x10,%esp
c010ea4c:	8b 45 dc             	mov    -0x24(%ebp),%eax
c010ea4f:	e9 b4 00 00 00       	jmp    c010eb08 <resize_inode+0x271>
c010ea54:	8b 45 e8             	mov    -0x18(%ebp),%eax
c010ea57:	89 45 f0             	mov    %eax,-0x10(%ebp)
c010ea5a:	eb 12                	jmp    c010ea6e <resize_inode+0x1d7>
c010ea5c:	8b 45 e0             	mov    -0x20(%ebp),%eax
c010ea5f:	8b 55 f0             	mov    -0x10(%ebp),%edx
c010ea62:	c7 44 90 08 00 00 00 	movl   $0x0,0x8(%eax,%edx,4)
c010ea69:	00 
c010ea6a:	83 45 f0 01          	addl   $0x1,-0x10(%ebp)
c010ea6e:	83 7d f0 0b          	cmpl   $0xb,-0x10(%ebp)
c010ea72:	77 08                	ja     c010ea7c <resize_inode+0x1e5>
c010ea74:	8b 45 f0             	mov    -0x10(%ebp),%eax
c010ea77:	3b 45 e4             	cmp    -0x1c(%ebp),%eax
c010ea7a:	72 e0                	jb     c010ea5c <resize_inode+0x1c5>
c010ea7c:	c7 45 d8 0c 00 00 00 	movl   $0xc,-0x28(%ebp)
c010ea83:	8b 45 e8             	mov    -0x18(%ebp),%eax
c010ea86:	3b 45 d8             	cmp    -0x28(%ebp),%eax
c010ea89:	77 12                	ja     c010ea9d <resize_inode+0x206>
c010ea8b:	8b 45 e4             	mov    -0x1c(%ebp),%eax
c010ea8e:	3b 45 d8             	cmp    -0x28(%ebp),%eax
c010ea91:	76 0a                	jbe    c010ea9d <resize_inode+0x206>
c010ea93:	8b 45 e0             	mov    -0x20(%ebp),%eax
c010ea96:	c7 40 38 00 00 00 00 	movl   $0x0,0x38(%eax)
c010ea9d:	a1 30 60 10 c0       	mov    0xc0106030,%eax
c010eaa2:	8b 00                	mov    (%eax),%eax
c010eaa4:	c1 e8 02             	shr    $0x2,%eax
c010eaa7:	01 45 d8             	add    %eax,-0x28(%ebp)
c010eaaa:	8b 45 e8             	mov    -0x18(%ebp),%eax
c010eaad:	3b 45 d8             	cmp    -0x28(%ebp),%eax
c010eab0:	77 12                	ja     c010eac4 <resize_inode+0x22d>
c010eab2:	8b 45 e4             	mov    -0x1c(%ebp),%eax
c010eab5:	3b 45 d8             	cmp    -0x28(%ebp),%eax
c010eab8:	76 0a                	jbe    c010eac4 <resize_inode+0x22d>
c010eaba:	8b 45 e0             	mov    -0x20(%ebp),%eax
c010eabd:	c7 40 3c 00 00 00 00 	movl   $0x0,0x3c(%eax)
c010eac4:	83 ec 08             	sub    $0x8,%esp
c010eac7:	ff 75 e0             	pushl  -0x20(%ebp)
c010eaca:	ff 75 08             	pushl  0x8(%ebp)
c010eacd:	e8 9d 06 00 00       	call   c010f16f <sync_inode>
c010ead2:	83 c4 10             	add    $0x10,%esp
c010ead5:	89 45 dc             	mov    %eax,-0x24(%ebp)
c010ead8:	83 ec 0c             	sub    $0xc,%esp
c010eadb:	ff 75 e0             	pushl  -0x20(%ebp)
c010eade:	e8 f9 bd ff ff       	call   c010a8dc <kfree>
c010eae3:	83 c4 10             	add    $0x10,%esp
c010eae6:	83 7d dc 00          	cmpl   $0x0,-0x24(%ebp)
c010eaea:	79 05                	jns    c010eaf1 <resize_inode+0x25a>
c010eaec:	8b 45 dc             	mov    -0x24(%ebp),%eax
c010eaef:	eb 17                	jmp    c010eb08 <resize_inode+0x271>
c010eaf1:	83 ec 08             	sub    $0x8,%esp
c010eaf4:	ff 75 0c             	pushl  0xc(%ebp)
c010eaf7:	ff 75 08             	pushl  0x8(%ebp)
c010eafa:	e8 d7 df ff ff       	call   c010cad6 <set_inode_fsize>
c010eaff:	83 c4 10             	add    $0x10,%esp
c010eb02:	89 45 ec             	mov    %eax,-0x14(%ebp)
c010eb05:	8b 45 ec             	mov    -0x14(%ebp),%eax
c010eb08:	c9                   	leave  
c010eb09:	c3                   	ret    

c010eb0a <rw_raw_superblock>:
c010eb0a:	55                   	push   %ebp
c010eb0b:	89 e5                	mov    %esp,%ebp
c010eb0d:	83 ec 18             	sub    $0x18,%esp
c010eb10:	8b 45 0c             	mov    0xc(%ebp),%eax
c010eb13:	88 45 f4             	mov    %al,-0xc(%ebp)
c010eb16:	80 7d f4 00          	cmpb   $0x0,-0xc(%ebp)
c010eb1a:	74 3c                	je     c010eb58 <rw_raw_superblock+0x4e>
c010eb1c:	83 ec 08             	sub    $0x8,%esp
c010eb1f:	ff 75 08             	pushl  0x8(%ebp)
c010eb22:	6a 02                	push   $0x2
c010eb24:	e8 90 af ff ff       	call   c0109ab9 <ata_write_sector>
c010eb29:	83 c4 10             	add    $0x10,%esp
c010eb2c:	85 c0                	test   %eax,%eax
c010eb2e:	79 07                	jns    c010eb37 <rw_raw_superblock+0x2d>
c010eb30:	b8 fb ff ff ff       	mov    $0xfffffffb,%eax
c010eb35:	eb 49                	jmp    c010eb80 <rw_raw_superblock+0x76>
c010eb37:	8b 45 08             	mov    0x8(%ebp),%eax
c010eb3a:	05 00 02 00 00       	add    $0x200,%eax
c010eb3f:	83 ec 08             	sub    $0x8,%esp
c010eb42:	50                   	push   %eax
c010eb43:	6a 03                	push   $0x3
c010eb45:	e8 6f af ff ff       	call   c0109ab9 <ata_write_sector>
c010eb4a:	83 c4 10             	add    $0x10,%esp
c010eb4d:	85 c0                	test   %eax,%eax
c010eb4f:	79 2a                	jns    c010eb7b <rw_raw_superblock+0x71>
c010eb51:	b8 fb ff ff ff       	mov    $0xfffffffb,%eax
c010eb56:	eb 28                	jmp    c010eb80 <rw_raw_superblock+0x76>
c010eb58:	83 ec 04             	sub    $0x4,%esp
c010eb5b:	ff 75 08             	pushl  0x8(%ebp)
c010eb5e:	68 00 04 00 00       	push   $0x400
c010eb63:	68 00 04 00 00       	push   $0x400
c010eb68:	e8 f5 ad ff ff       	call   c0109962 <ata_read>
c010eb6d:	83 c4 10             	add    $0x10,%esp
c010eb70:	85 c0                	test   %eax,%eax
c010eb72:	79 07                	jns    c010eb7b <rw_raw_superblock+0x71>
c010eb74:	b8 fc ff ff ff       	mov    $0xfffffffc,%eax
c010eb79:	eb 05                	jmp    c010eb80 <rw_raw_superblock+0x76>
c010eb7b:	b8 00 00 00 00       	mov    $0x0,%eax
c010eb80:	c9                   	leave  
c010eb81:	c3                   	ret    

c010eb82 <rw_raw_bg_desr>:
c010eb82:	55                   	push   %ebp
c010eb83:	89 e5                	mov    %esp,%ebp
c010eb85:	53                   	push   %ebx
c010eb86:	83 ec 34             	sub    $0x34,%esp
c010eb89:	8b 45 10             	mov    0x10(%ebp),%eax
c010eb8c:	88 45 d4             	mov    %al,-0x2c(%ebp)
c010eb8f:	a1 30 60 10 c0       	mov    0xc0106030,%eax
c010eb94:	8b 40 04             	mov    0x4(%eax),%eax
c010eb97:	39 45 08             	cmp    %eax,0x8(%ebp)
c010eb9a:	72 0a                	jb     c010eba6 <rw_raw_bg_desr+0x24>
c010eb9c:	b8 fe ff ff ff       	mov    $0xfffffffe,%eax
c010eba1:	e9 a9 00 00 00       	jmp    c010ec4f <rw_raw_bg_desr+0xcd>
c010eba6:	a1 30 60 10 c0       	mov    0xc0106030,%eax
c010ebab:	8b 00                	mov    (%eax),%eax
c010ebad:	3d 00 04 00 00       	cmp    $0x400,%eax
c010ebb2:	75 09                	jne    c010ebbd <rw_raw_bg_desr+0x3b>
c010ebb4:	c7 45 f4 02 00 00 00 	movl   $0x2,-0xc(%ebp)
c010ebbb:	eb 07                	jmp    c010ebc4 <rw_raw_bg_desr+0x42>
c010ebbd:	c7 45 f4 01 00 00 00 	movl   $0x1,-0xc(%ebp)
c010ebc4:	8b 45 08             	mov    0x8(%ebp),%eax
c010ebc7:	c1 e0 05             	shl    $0x5,%eax
c010ebca:	89 c1                	mov    %eax,%ecx
c010ebcc:	a1 30 60 10 c0       	mov    0xc0106030,%eax
c010ebd1:	8b 18                	mov    (%eax),%ebx
c010ebd3:	89 c8                	mov    %ecx,%eax
c010ebd5:	ba 00 00 00 00       	mov    $0x0,%edx
c010ebda:	f7 f3                	div    %ebx
c010ebdc:	89 c2                	mov    %eax,%edx
c010ebde:	8b 45 f4             	mov    -0xc(%ebp),%eax
c010ebe1:	01 d0                	add    %edx,%eax
c010ebe3:	89 45 f0             	mov    %eax,-0x10(%ebp)
c010ebe6:	8b 45 08             	mov    0x8(%ebp),%eax
c010ebe9:	c1 e0 05             	shl    $0x5,%eax
c010ebec:	89 c2                	mov    %eax,%edx
c010ebee:	a1 30 60 10 c0       	mov    0xc0106030,%eax
c010ebf3:	8b 08                	mov    (%eax),%ecx
c010ebf5:	89 d0                	mov    %edx,%eax
c010ebf7:	ba 00 00 00 00       	mov    $0x0,%edx
c010ebfc:	f7 f1                	div    %ecx
c010ebfe:	89 55 ec             	mov    %edx,-0x14(%ebp)
c010ec01:	80 7d d4 00          	cmpb   $0x0,-0x2c(%ebp)
c010ec05:	74 25                	je     c010ec2c <rw_raw_bg_desr+0xaa>
c010ec07:	ff 75 0c             	pushl  0xc(%ebp)
c010ec0a:	6a 20                	push   $0x20
c010ec0c:	ff 75 ec             	pushl  -0x14(%ebp)
c010ec0f:	ff 75 f0             	pushl  -0x10(%ebp)
c010ec12:	e8 c4 df ff ff       	call   c010cbdb <write_block>
c010ec17:	83 c4 10             	add    $0x10,%esp
c010ec1a:	89 45 e4             	mov    %eax,-0x1c(%ebp)
c010ec1d:	b8 00 00 00 00       	mov    $0x0,%eax
c010ec22:	83 7d e4 00          	cmpl   $0x0,-0x1c(%ebp)
c010ec26:	0f 4e 45 e4          	cmovle -0x1c(%ebp),%eax
c010ec2a:	eb 23                	jmp    c010ec4f <rw_raw_bg_desr+0xcd>
c010ec2c:	ff 75 0c             	pushl  0xc(%ebp)
c010ec2f:	6a 20                	push   $0x20
c010ec31:	ff 75 ec             	pushl  -0x14(%ebp)
c010ec34:	ff 75 f0             	pushl  -0x10(%ebp)
c010ec37:	e8 0c df ff ff       	call   c010cb48 <read_block>
c010ec3c:	83 c4 10             	add    $0x10,%esp
c010ec3f:	89 45 e8             	mov    %eax,-0x18(%ebp)
c010ec42:	b8 00 00 00 00       	mov    $0x0,%eax
c010ec47:	83 7d e8 00          	cmpl   $0x0,-0x18(%ebp)
c010ec4b:	0f 4e 45 e8          	cmovle -0x18(%ebp),%eax
c010ec4f:	8b 5d fc             	mov    -0x4(%ebp),%ebx
c010ec52:	c9                   	leave  
c010ec53:	c3                   	ret    

c010ec54 <rw_raw_inode>:
c010ec54:	55                   	push   %ebp
c010ec55:	89 e5                	mov    %esp,%ebp
c010ec57:	56                   	push   %esi
c010ec58:	53                   	push   %ebx
c010ec59:	83 ec 30             	sub    $0x30,%esp
c010ec5c:	8b 45 10             	mov    0x10(%ebp),%eax
c010ec5f:	88 45 d4             	mov    %al,-0x2c(%ebp)
c010ec62:	a1 30 60 10 c0       	mov    0xc0106030,%eax
c010ec67:	8b 40 0c             	mov    0xc(%eax),%eax
c010ec6a:	39 45 08             	cmp    %eax,0x8(%ebp)
c010ec6d:	76 0a                	jbe    c010ec79 <rw_raw_inode+0x25>
c010ec6f:	b8 ff ff ff ff       	mov    $0xffffffff,%eax
c010ec74:	e9 14 01 00 00       	jmp    c010ed8d <rw_raw_inode+0x139>
c010ec79:	8b 45 08             	mov    0x8(%ebp),%eax
c010ec7c:	8d 50 ff             	lea    -0x1(%eax),%edx
c010ec7f:	a1 30 60 10 c0       	mov    0xc0106030,%eax
c010ec84:	8b 48 14             	mov    0x14(%eax),%ecx
c010ec87:	89 d0                	mov    %edx,%eax
c010ec89:	ba 00 00 00 00       	mov    $0x0,%edx
c010ec8e:	f7 f1                	div    %ecx
c010ec90:	89 55 f4             	mov    %edx,-0xc(%ebp)
c010ec93:	8b 45 08             	mov    0x8(%ebp),%eax
c010ec96:	8d 48 ff             	lea    -0x1(%eax),%ecx
c010ec99:	a1 30 60 10 c0       	mov    0xc0106030,%eax
c010ec9e:	8b 58 14             	mov    0x14(%eax),%ebx
c010eca1:	89 c8                	mov    %ecx,%eax
c010eca3:	ba 00 00 00 00       	mov    $0x0,%edx
c010eca8:	f7 f3                	div    %ebx
c010ecaa:	89 45 f0             	mov    %eax,-0x10(%ebp)
c010ecad:	83 ec 0c             	sub    $0xc,%esp
c010ecb0:	6a 14                	push   $0x14
c010ecb2:	e8 39 bb ff ff       	call   c010a7f0 <kmalloc>
c010ecb7:	83 c4 10             	add    $0x10,%esp
c010ecba:	89 45 ec             	mov    %eax,-0x14(%ebp)
c010ecbd:	83 ec 08             	sub    $0x8,%esp
c010ecc0:	ff 75 ec             	pushl  -0x14(%ebp)
c010ecc3:	ff 75 f0             	pushl  -0x10(%ebp)
c010ecc6:	e8 83 02 00 00       	call   c010ef4e <get_bg_descr>
c010eccb:	83 c4 10             	add    $0x10,%esp
c010ecce:	89 45 e8             	mov    %eax,-0x18(%ebp)
c010ecd1:	83 7d e8 00          	cmpl   $0x0,-0x18(%ebp)
c010ecd5:	79 16                	jns    c010eced <rw_raw_inode+0x99>
c010ecd7:	83 ec 0c             	sub    $0xc,%esp
c010ecda:	ff 75 ec             	pushl  -0x14(%ebp)
c010ecdd:	e8 fa bb ff ff       	call   c010a8dc <kfree>
c010ece2:	83 c4 10             	add    $0x10,%esp
c010ece5:	8b 45 e8             	mov    -0x18(%ebp),%eax
c010ece8:	e9 a0 00 00 00       	jmp    c010ed8d <rw_raw_inode+0x139>
c010eced:	8b 45 f4             	mov    -0xc(%ebp),%eax
c010ecf0:	c1 e0 07             	shl    $0x7,%eax
c010ecf3:	89 c2                	mov    %eax,%edx
c010ecf5:	a1 30 60 10 c0       	mov    0xc0106030,%eax
c010ecfa:	8b 08                	mov    (%eax),%ecx
c010ecfc:	89 d0                	mov    %edx,%eax
c010ecfe:	ba 00 00 00 00       	mov    $0x0,%edx
c010ed03:	f7 f1                	div    %ecx
c010ed05:	89 55 e4             	mov    %edx,-0x1c(%ebp)
c010ed08:	8b 45 ec             	mov    -0x14(%ebp),%eax
c010ed0b:	8b 58 08             	mov    0x8(%eax),%ebx
c010ed0e:	8b 45 f4             	mov    -0xc(%ebp),%eax
c010ed11:	c1 e0 07             	shl    $0x7,%eax
c010ed14:	89 c1                	mov    %eax,%ecx
c010ed16:	a1 30 60 10 c0       	mov    0xc0106030,%eax
c010ed1b:	8b 30                	mov    (%eax),%esi
c010ed1d:	89 c8                	mov    %ecx,%eax
c010ed1f:	ba 00 00 00 00       	mov    $0x0,%edx
c010ed24:	f7 f6                	div    %esi
c010ed26:	01 d8                	add    %ebx,%eax
c010ed28:	89 45 e0             	mov    %eax,-0x20(%ebp)
c010ed2b:	83 ec 0c             	sub    $0xc,%esp
c010ed2e:	ff 75 ec             	pushl  -0x14(%ebp)
c010ed31:	e8 a6 bb ff ff       	call   c010a8dc <kfree>
c010ed36:	83 c4 10             	add    $0x10,%esp
c010ed39:	80 7d d4 00          	cmpb   $0x0,-0x2c(%ebp)
c010ed3d:	74 28                	je     c010ed67 <rw_raw_inode+0x113>
c010ed3f:	ff 75 0c             	pushl  0xc(%ebp)
c010ed42:	68 80 00 00 00       	push   $0x80
c010ed47:	ff 75 e4             	pushl  -0x1c(%ebp)
c010ed4a:	ff 75 e0             	pushl  -0x20(%ebp)
c010ed4d:	e8 89 de ff ff       	call   c010cbdb <write_block>
c010ed52:	83 c4 10             	add    $0x10,%esp
c010ed55:	89 45 d8             	mov    %eax,-0x28(%ebp)
c010ed58:	b8 00 00 00 00       	mov    $0x0,%eax
c010ed5d:	83 7d d8 00          	cmpl   $0x0,-0x28(%ebp)
c010ed61:	0f 4e 45 d8          	cmovle -0x28(%ebp),%eax
c010ed65:	eb 26                	jmp    c010ed8d <rw_raw_inode+0x139>
c010ed67:	ff 75 0c             	pushl  0xc(%ebp)
c010ed6a:	68 80 00 00 00       	push   $0x80
c010ed6f:	ff 75 e4             	pushl  -0x1c(%ebp)
c010ed72:	ff 75 e0             	pushl  -0x20(%ebp)
c010ed75:	e8 ce dd ff ff       	call   c010cb48 <read_block>
c010ed7a:	83 c4 10             	add    $0x10,%esp
c010ed7d:	89 45 dc             	mov    %eax,-0x24(%ebp)
c010ed80:	b8 00 00 00 00       	mov    $0x0,%eax
c010ed85:	83 7d dc 00          	cmpl   $0x0,-0x24(%ebp)
c010ed89:	0f 4e 45 dc          	cmovle -0x24(%ebp),%eax
c010ed8d:	8d 65 f8             	lea    -0x8(%ebp),%esp
c010ed90:	5b                   	pop    %ebx
c010ed91:	5e                   	pop    %esi
c010ed92:	5d                   	pop    %ebp
c010ed93:	c3                   	ret    

c010ed94 <get_superblock>:
c010ed94:	55                   	push   %ebp
c010ed95:	89 e5                	mov    %esp,%ebp
c010ed97:	83 ec 28             	sub    $0x28,%esp
c010ed9a:	83 ec 0c             	sub    $0xc,%esp
c010ed9d:	68 00 04 00 00       	push   $0x400
c010eda2:	e8 49 ba ff ff       	call   c010a7f0 <kmalloc>
c010eda7:	83 c4 10             	add    $0x10,%esp
c010edaa:	89 45 f4             	mov    %eax,-0xc(%ebp)
c010edad:	83 ec 08             	sub    $0x8,%esp
c010edb0:	6a 00                	push   $0x0
c010edb2:	ff 75 f4             	pushl  -0xc(%ebp)
c010edb5:	e8 50 fd ff ff       	call   c010eb0a <rw_raw_superblock>
c010edba:	83 c4 10             	add    $0x10,%esp
c010edbd:	89 45 f0             	mov    %eax,-0x10(%ebp)
c010edc0:	83 7d f0 00          	cmpl   $0x0,-0x10(%ebp)
c010edc4:	79 16                	jns    c010eddc <get_superblock+0x48>
c010edc6:	83 ec 0c             	sub    $0xc,%esp
c010edc9:	ff 75 f4             	pushl  -0xc(%ebp)
c010edcc:	e8 0b bb ff ff       	call   c010a8dc <kfree>
c010edd1:	83 c4 10             	add    $0x10,%esp
c010edd4:	8b 45 f0             	mov    -0x10(%ebp),%eax
c010edd7:	e9 e9 00 00 00       	jmp    c010eec5 <get_superblock+0x131>
c010eddc:	8b 45 f4             	mov    -0xc(%ebp),%eax
c010eddf:	83 c0 18             	add    $0x18,%eax
c010ede2:	8b 00                	mov    (%eax),%eax
c010ede4:	83 c0 0a             	add    $0xa,%eax
c010ede7:	89 45 ec             	mov    %eax,-0x14(%ebp)
c010edea:	8b 45 ec             	mov    -0x14(%ebp),%eax
c010eded:	ba 01 00 00 00       	mov    $0x1,%edx
c010edf2:	89 c1                	mov    %eax,%ecx
c010edf4:	d3 e2                	shl    %cl,%edx
c010edf6:	89 d0                	mov    %edx,%eax
c010edf8:	89 c2                	mov    %eax,%edx
c010edfa:	8b 45 08             	mov    0x8(%ebp),%eax
c010edfd:	89 10                	mov    %edx,(%eax)
c010edff:	8b 45 f4             	mov    -0xc(%ebp),%eax
c010ee02:	8b 50 04             	mov    0x4(%eax),%edx
c010ee05:	8b 45 08             	mov    0x8(%ebp),%eax
c010ee08:	89 50 08             	mov    %edx,0x8(%eax)
c010ee0b:	8b 45 f4             	mov    -0xc(%ebp),%eax
c010ee0e:	8b 10                	mov    (%eax),%edx
c010ee10:	8b 45 08             	mov    0x8(%ebp),%eax
c010ee13:	89 50 0c             	mov    %edx,0xc(%eax)
c010ee16:	8b 45 f4             	mov    -0xc(%ebp),%eax
c010ee19:	8b 50 20             	mov    0x20(%eax),%edx
c010ee1c:	8b 45 08             	mov    0x8(%ebp),%eax
c010ee1f:	89 50 10             	mov    %edx,0x10(%eax)
c010ee22:	8b 45 f4             	mov    -0xc(%ebp),%eax
c010ee25:	8b 50 28             	mov    0x28(%eax),%edx
c010ee28:	8b 45 08             	mov    0x8(%ebp),%eax
c010ee2b:	89 50 14             	mov    %edx,0x14(%eax)
c010ee2e:	8b 45 f4             	mov    -0xc(%ebp),%eax
c010ee31:	8b 50 0c             	mov    0xc(%eax),%edx
c010ee34:	8b 45 08             	mov    0x8(%ebp),%eax
c010ee37:	89 50 18             	mov    %edx,0x18(%eax)
c010ee3a:	8b 45 f4             	mov    -0xc(%ebp),%eax
c010ee3d:	8b 50 10             	mov    0x10(%eax),%edx
c010ee40:	8b 45 08             	mov    0x8(%ebp),%eax
c010ee43:	89 50 1c             	mov    %edx,0x1c(%eax)
c010ee46:	8b 45 08             	mov    0x8(%ebp),%eax
c010ee49:	8b 40 08             	mov    0x8(%eax),%eax
c010ee4c:	8b 55 08             	mov    0x8(%ebp),%edx
c010ee4f:	8b 4a 10             	mov    0x10(%edx),%ecx
c010ee52:	ba 00 00 00 00       	mov    $0x0,%edx
c010ee57:	f7 f1                	div    %ecx
c010ee59:	89 45 e8             	mov    %eax,-0x18(%ebp)
c010ee5c:	8b 45 08             	mov    0x8(%ebp),%eax
c010ee5f:	8b 40 08             	mov    0x8(%eax),%eax
c010ee62:	8b 55 08             	mov    0x8(%ebp),%edx
c010ee65:	8b 4a 10             	mov    0x10(%edx),%ecx
c010ee68:	ba 00 00 00 00       	mov    $0x0,%edx
c010ee6d:	f7 f1                	div    %ecx
c010ee6f:	89 55 e4             	mov    %edx,-0x1c(%ebp)
c010ee72:	83 7d e4 00          	cmpl   $0x0,-0x1c(%ebp)
c010ee76:	75 0b                	jne    c010ee83 <get_superblock+0xef>
c010ee78:	8b 45 08             	mov    0x8(%ebp),%eax
c010ee7b:	8b 55 e8             	mov    -0x18(%ebp),%edx
c010ee7e:	89 50 04             	mov    %edx,0x4(%eax)
c010ee81:	eb 0c                	jmp    c010ee8f <get_superblock+0xfb>
c010ee83:	8b 45 e8             	mov    -0x18(%ebp),%eax
c010ee86:	8d 50 01             	lea    0x1(%eax),%edx
c010ee89:	8b 45 08             	mov    0x8(%ebp),%eax
c010ee8c:	89 50 04             	mov    %edx,0x4(%eax)
c010ee8f:	8b 45 08             	mov    0x8(%ebp),%eax
c010ee92:	c7 40 20 02 00 00 00 	movl   $0x2,0x20(%eax)
c010ee99:	83 ec 0c             	sub    $0xc,%esp
c010ee9c:	ff 75 f4             	pushl  -0xc(%ebp)
c010ee9f:	e8 38 ba ff ff       	call   c010a8dc <kfree>
c010eea4:	83 c4 10             	add    $0x10,%esp
c010eea7:	8b 45 08             	mov    0x8(%ebp),%eax
c010eeaa:	8b 50 10             	mov    0x10(%eax),%edx
c010eead:	8b 45 08             	mov    0x8(%ebp),%eax
c010eeb0:	8b 00                	mov    (%eax),%eax
c010eeb2:	c1 e0 03             	shl    $0x3,%eax
c010eeb5:	39 c2                	cmp    %eax,%edx
c010eeb7:	74 07                	je     c010eec0 <get_superblock+0x12c>
c010eeb9:	b8 f9 ff ff ff       	mov    $0xfffffff9,%eax
c010eebe:	eb 05                	jmp    c010eec5 <get_superblock+0x131>
c010eec0:	b8 00 00 00 00       	mov    $0x0,%eax
c010eec5:	c9                   	leave  
c010eec6:	c3                   	ret    

c010eec7 <sync_superblock>:
c010eec7:	55                   	push   %ebp
c010eec8:	89 e5                	mov    %esp,%ebp
c010eeca:	83 ec 18             	sub    $0x18,%esp
c010eecd:	83 ec 0c             	sub    $0xc,%esp
c010eed0:	68 00 04 00 00       	push   $0x400
c010eed5:	e8 16 b9 ff ff       	call   c010a7f0 <kmalloc>
c010eeda:	83 c4 10             	add    $0x10,%esp
c010eedd:	89 45 f4             	mov    %eax,-0xc(%ebp)
c010eee0:	83 ec 08             	sub    $0x8,%esp
c010eee3:	6a 00                	push   $0x0
c010eee5:	ff 75 f4             	pushl  -0xc(%ebp)
c010eee8:	e8 1d fc ff ff       	call   c010eb0a <rw_raw_superblock>
c010eeed:	83 c4 10             	add    $0x10,%esp
c010eef0:	89 45 f0             	mov    %eax,-0x10(%ebp)
c010eef3:	83 7d f0 00          	cmpl   $0x0,-0x10(%ebp)
c010eef7:	79 13                	jns    c010ef0c <sync_superblock+0x45>
c010eef9:	83 ec 0c             	sub    $0xc,%esp
c010eefc:	ff 75 f4             	pushl  -0xc(%ebp)
c010eeff:	e8 d8 b9 ff ff       	call   c010a8dc <kfree>
c010ef04:	83 c4 10             	add    $0x10,%esp
c010ef07:	8b 45 f0             	mov    -0x10(%ebp),%eax
c010ef0a:	eb 40                	jmp    c010ef4c <sync_superblock+0x85>
c010ef0c:	8b 45 f4             	mov    -0xc(%ebp),%eax
c010ef0f:	8d 50 0c             	lea    0xc(%eax),%edx
c010ef12:	8b 45 08             	mov    0x8(%ebp),%eax
c010ef15:	8b 40 1c             	mov    0x1c(%eax),%eax
c010ef18:	89 02                	mov    %eax,(%edx)
c010ef1a:	8b 45 f4             	mov    -0xc(%ebp),%eax
c010ef1d:	8d 50 10             	lea    0x10(%eax),%edx
c010ef20:	8b 45 08             	mov    0x8(%ebp),%eax
c010ef23:	8b 40 18             	mov    0x18(%eax),%eax
c010ef26:	89 02                	mov    %eax,(%edx)
c010ef28:	83 ec 08             	sub    $0x8,%esp
c010ef2b:	6a 01                	push   $0x1
c010ef2d:	ff 75 f4             	pushl  -0xc(%ebp)
c010ef30:	e8 d5 fb ff ff       	call   c010eb0a <rw_raw_superblock>
c010ef35:	83 c4 10             	add    $0x10,%esp
c010ef38:	89 45 f0             	mov    %eax,-0x10(%ebp)
c010ef3b:	83 ec 0c             	sub    $0xc,%esp
c010ef3e:	ff 75 f4             	pushl  -0xc(%ebp)
c010ef41:	e8 96 b9 ff ff       	call   c010a8dc <kfree>
c010ef46:	83 c4 10             	add    $0x10,%esp
c010ef49:	8b 45 f0             	mov    -0x10(%ebp),%eax
c010ef4c:	c9                   	leave  
c010ef4d:	c3                   	ret    

c010ef4e <get_bg_descr>:
c010ef4e:	55                   	push   %ebp
c010ef4f:	89 e5                	mov    %esp,%ebp
c010ef51:	83 ec 18             	sub    $0x18,%esp
c010ef54:	83 ec 0c             	sub    $0xc,%esp
c010ef57:	6a 20                	push   $0x20
c010ef59:	e8 92 b8 ff ff       	call   c010a7f0 <kmalloc>
c010ef5e:	83 c4 10             	add    $0x10,%esp
c010ef61:	89 45 f4             	mov    %eax,-0xc(%ebp)
c010ef64:	83 ec 04             	sub    $0x4,%esp
c010ef67:	6a 00                	push   $0x0
c010ef69:	ff 75 f4             	pushl  -0xc(%ebp)
c010ef6c:	ff 75 08             	pushl  0x8(%ebp)
c010ef6f:	e8 0e fc ff ff       	call   c010eb82 <rw_raw_bg_desr>
c010ef74:	83 c4 10             	add    $0x10,%esp
c010ef77:	89 45 f0             	mov    %eax,-0x10(%ebp)
c010ef7a:	83 7d f0 00          	cmpl   $0x0,-0x10(%ebp)
c010ef7e:	79 13                	jns    c010ef93 <get_bg_descr+0x45>
c010ef80:	83 ec 0c             	sub    $0xc,%esp
c010ef83:	ff 75 f4             	pushl  -0xc(%ebp)
c010ef86:	e8 51 b9 ff ff       	call   c010a8dc <kfree>
c010ef8b:	83 c4 10             	add    $0x10,%esp
c010ef8e:	8b 45 f0             	mov    -0x10(%ebp),%eax
c010ef91:	eb 59                	jmp    c010efec <get_bg_descr+0x9e>
c010ef93:	8b 45 f4             	mov    -0xc(%ebp),%eax
c010ef96:	8b 10                	mov    (%eax),%edx
c010ef98:	8b 45 0c             	mov    0xc(%ebp),%eax
c010ef9b:	89 10                	mov    %edx,(%eax)
c010ef9d:	8b 45 f4             	mov    -0xc(%ebp),%eax
c010efa0:	8b 50 04             	mov    0x4(%eax),%edx
c010efa3:	8b 45 0c             	mov    0xc(%ebp),%eax
c010efa6:	89 50 04             	mov    %edx,0x4(%eax)
c010efa9:	8b 45 f4             	mov    -0xc(%ebp),%eax
c010efac:	8b 50 08             	mov    0x8(%eax),%edx
c010efaf:	8b 45 0c             	mov    0xc(%ebp),%eax
c010efb2:	89 50 08             	mov    %edx,0x8(%eax)
c010efb5:	8b 45 f4             	mov    -0xc(%ebp),%eax
c010efb8:	83 c0 0c             	add    $0xc,%eax
c010efbb:	0f b7 00             	movzwl (%eax),%eax
c010efbe:	0f b7 d0             	movzwl %ax,%edx
c010efc1:	8b 45 0c             	mov    0xc(%ebp),%eax
c010efc4:	89 50 0c             	mov    %edx,0xc(%eax)
c010efc7:	8b 45 f4             	mov    -0xc(%ebp),%eax
c010efca:	83 c0 0e             	add    $0xe,%eax
c010efcd:	0f b7 00             	movzwl (%eax),%eax
c010efd0:	0f b7 d0             	movzwl %ax,%edx
c010efd3:	8b 45 0c             	mov    0xc(%ebp),%eax
c010efd6:	89 50 10             	mov    %edx,0x10(%eax)
c010efd9:	83 ec 0c             	sub    $0xc,%esp
c010efdc:	ff 75 f4             	pushl  -0xc(%ebp)
c010efdf:	e8 f8 b8 ff ff       	call   c010a8dc <kfree>
c010efe4:	83 c4 10             	add    $0x10,%esp
c010efe7:	b8 00 00 00 00       	mov    $0x0,%eax
c010efec:	c9                   	leave  
c010efed:	c3                   	ret    

c010efee <sync_bg_descr>:
c010efee:	55                   	push   %ebp
c010efef:	89 e5                	mov    %esp,%ebp
c010eff1:	83 ec 18             	sub    $0x18,%esp
c010eff4:	83 ec 0c             	sub    $0xc,%esp
c010eff7:	6a 20                	push   $0x20
c010eff9:	e8 f2 b7 ff ff       	call   c010a7f0 <kmalloc>
c010effe:	83 c4 10             	add    $0x10,%esp
c010f001:	89 45 f4             	mov    %eax,-0xc(%ebp)
c010f004:	83 ec 04             	sub    $0x4,%esp
c010f007:	6a 00                	push   $0x0
c010f009:	ff 75 f4             	pushl  -0xc(%ebp)
c010f00c:	ff 75 08             	pushl  0x8(%ebp)
c010f00f:	e8 6e fb ff ff       	call   c010eb82 <rw_raw_bg_desr>
c010f014:	83 c4 10             	add    $0x10,%esp
c010f017:	89 45 f0             	mov    %eax,-0x10(%ebp)
c010f01a:	83 7d f0 00          	cmpl   $0x0,-0x10(%ebp)
c010f01e:	79 13                	jns    c010f033 <sync_bg_descr+0x45>
c010f020:	83 ec 0c             	sub    $0xc,%esp
c010f023:	ff 75 f4             	pushl  -0xc(%ebp)
c010f026:	e8 b1 b8 ff ff       	call   c010a8dc <kfree>
c010f02b:	83 c4 10             	add    $0x10,%esp
c010f02e:	8b 45 f0             	mov    -0x10(%ebp),%eax
c010f031:	eb 45                	jmp    c010f078 <sync_bg_descr+0x8a>
c010f033:	8b 45 0c             	mov    0xc(%ebp),%eax
c010f036:	8b 50 0c             	mov    0xc(%eax),%edx
c010f039:	8b 45 f4             	mov    -0xc(%ebp),%eax
c010f03c:	83 c0 0c             	add    $0xc,%eax
c010f03f:	66 89 10             	mov    %dx,(%eax)
c010f042:	8b 45 0c             	mov    0xc(%ebp),%eax
c010f045:	8b 50 10             	mov    0x10(%eax),%edx
c010f048:	8b 45 f4             	mov    -0xc(%ebp),%eax
c010f04b:	83 c0 0e             	add    $0xe,%eax
c010f04e:	66 89 10             	mov    %dx,(%eax)
c010f051:	83 ec 04             	sub    $0x4,%esp
c010f054:	6a 01                	push   $0x1
c010f056:	ff 75 f4             	pushl  -0xc(%ebp)
c010f059:	ff 75 08             	pushl  0x8(%ebp)
c010f05c:	e8 21 fb ff ff       	call   c010eb82 <rw_raw_bg_desr>
c010f061:	83 c4 10             	add    $0x10,%esp
c010f064:	89 45 f0             	mov    %eax,-0x10(%ebp)
c010f067:	83 ec 0c             	sub    $0xc,%esp
c010f06a:	ff 75 f4             	pushl  -0xc(%ebp)
c010f06d:	e8 6a b8 ff ff       	call   c010a8dc <kfree>
c010f072:	83 c4 10             	add    $0x10,%esp
c010f075:	8b 45 f0             	mov    -0x10(%ebp),%eax
c010f078:	c9                   	leave  
c010f079:	c3                   	ret    

c010f07a <get_inode>:
c010f07a:	55                   	push   %ebp
c010f07b:	89 e5                	mov    %esp,%ebp
c010f07d:	83 ec 18             	sub    $0x18,%esp
c010f080:	83 ec 0c             	sub    $0xc,%esp
c010f083:	68 80 00 00 00       	push   $0x80
c010f088:	e8 63 b7 ff ff       	call   c010a7f0 <kmalloc>
c010f08d:	83 c4 10             	add    $0x10,%esp
c010f090:	89 45 f0             	mov    %eax,-0x10(%ebp)
c010f093:	83 ec 04             	sub    $0x4,%esp
c010f096:	6a 00                	push   $0x0
c010f098:	ff 75 f0             	pushl  -0x10(%ebp)
c010f09b:	ff 75 08             	pushl  0x8(%ebp)
c010f09e:	e8 b1 fb ff ff       	call   c010ec54 <rw_raw_inode>
c010f0a3:	83 c4 10             	add    $0x10,%esp
c010f0a6:	89 45 ec             	mov    %eax,-0x14(%ebp)
c010f0a9:	83 7d ec 00          	cmpl   $0x0,-0x14(%ebp)
c010f0ad:	79 16                	jns    c010f0c5 <get_inode+0x4b>
c010f0af:	83 ec 0c             	sub    $0xc,%esp
c010f0b2:	ff 75 f0             	pushl  -0x10(%ebp)
c010f0b5:	e8 22 b8 ff ff       	call   c010a8dc <kfree>
c010f0ba:	83 c4 10             	add    $0x10,%esp
c010f0bd:	8b 45 ec             	mov    -0x14(%ebp),%eax
c010f0c0:	e9 a8 00 00 00       	jmp    c010f16d <get_inode+0xf3>
c010f0c5:	8b 45 f0             	mov    -0x10(%ebp),%eax
c010f0c8:	8b 50 04             	mov    0x4(%eax),%edx
c010f0cb:	8b 45 0c             	mov    0xc(%ebp),%eax
c010f0ce:	89 10                	mov    %edx,(%eax)
c010f0d0:	8b 45 f0             	mov    -0x10(%ebp),%eax
c010f0d3:	0f b7 00             	movzwl (%eax),%eax
c010f0d6:	66 25 00 f0          	and    $0xf000,%ax
c010f0da:	66 89 45 ea          	mov    %ax,-0x16(%ebp)
c010f0de:	0f b7 45 ea          	movzwl -0x16(%ebp),%eax
c010f0e2:	3d 00 40 00 00       	cmp    $0x4000,%eax
c010f0e7:	74 09                	je     c010f0f2 <get_inode+0x78>
c010f0e9:	3d 00 80 00 00       	cmp    $0x8000,%eax
c010f0ee:	74 0e                	je     c010f0fe <get_inode+0x84>
c010f0f0:	eb 18                	jmp    c010f10a <get_inode+0x90>
c010f0f2:	8b 45 0c             	mov    0xc(%ebp),%eax
c010f0f5:	c7 40 04 02 00 00 00 	movl   $0x2,0x4(%eax)
c010f0fc:	eb 13                	jmp    c010f111 <get_inode+0x97>
c010f0fe:	8b 45 0c             	mov    0xc(%ebp),%eax
c010f101:	c7 40 04 01 00 00 00 	movl   $0x1,0x4(%eax)
c010f108:	eb 07                	jmp    c010f111 <get_inode+0x97>
c010f10a:	b8 fd ff ff ff       	mov    $0xfffffffd,%eax
c010f10f:	eb 5c                	jmp    c010f16d <get_inode+0xf3>
c010f111:	c7 45 f4 00 00 00 00 	movl   $0x0,-0xc(%ebp)
c010f118:	eb 22                	jmp    c010f13c <get_inode+0xc2>
c010f11a:	8b 45 f4             	mov    -0xc(%ebp),%eax
c010f11d:	83 c0 0a             	add    $0xa,%eax
c010f120:	8d 14 85 00 00 00 00 	lea    0x0(,%eax,4),%edx
c010f127:	8b 45 f0             	mov    -0x10(%ebp),%eax
c010f12a:	01 d0                	add    %edx,%eax
c010f12c:	8b 08                	mov    (%eax),%ecx
c010f12e:	8b 45 0c             	mov    0xc(%ebp),%eax
c010f131:	8b 55 f4             	mov    -0xc(%ebp),%edx
c010f134:	89 4c 90 08          	mov    %ecx,0x8(%eax,%edx,4)
c010f138:	83 45 f4 01          	addl   $0x1,-0xc(%ebp)
c010f13c:	83 7d f4 0b          	cmpl   $0xb,-0xc(%ebp)
c010f140:	76 d8                	jbe    c010f11a <get_inode+0xa0>
c010f142:	8b 45 f0             	mov    -0x10(%ebp),%eax
c010f145:	8b 50 58             	mov    0x58(%eax),%edx
c010f148:	8b 45 0c             	mov    0xc(%ebp),%eax
c010f14b:	89 50 38             	mov    %edx,0x38(%eax)
c010f14e:	8b 45 f0             	mov    -0x10(%ebp),%eax
c010f151:	8b 50 5c             	mov    0x5c(%eax),%edx
c010f154:	8b 45 0c             	mov    0xc(%ebp),%eax
c010f157:	89 50 3c             	mov    %edx,0x3c(%eax)
c010f15a:	83 ec 0c             	sub    $0xc,%esp
c010f15d:	ff 75 f0             	pushl  -0x10(%ebp)
c010f160:	e8 77 b7 ff ff       	call   c010a8dc <kfree>
c010f165:	83 c4 10             	add    $0x10,%esp
c010f168:	b8 00 00 00 00       	mov    $0x0,%eax
c010f16d:	c9                   	leave  
c010f16e:	c3                   	ret    

c010f16f <sync_inode>:
c010f16f:	55                   	push   %ebp
c010f170:	89 e5                	mov    %esp,%ebp
c010f172:	83 ec 18             	sub    $0x18,%esp
c010f175:	83 ec 0c             	sub    $0xc,%esp
c010f178:	68 80 00 00 00       	push   $0x80
c010f17d:	e8 6e b6 ff ff       	call   c010a7f0 <kmalloc>
c010f182:	83 c4 10             	add    $0x10,%esp
c010f185:	89 45 ec             	mov    %eax,-0x14(%ebp)
c010f188:	83 ec 04             	sub    $0x4,%esp
c010f18b:	6a 00                	push   $0x0
c010f18d:	ff 75 ec             	pushl  -0x14(%ebp)
c010f190:	ff 75 08             	pushl  0x8(%ebp)
c010f193:	e8 bc fa ff ff       	call   c010ec54 <rw_raw_inode>
c010f198:	83 c4 10             	add    $0x10,%esp
c010f19b:	89 45 e8             	mov    %eax,-0x18(%ebp)
c010f19e:	83 7d e8 00          	cmpl   $0x0,-0x18(%ebp)
c010f1a2:	79 16                	jns    c010f1ba <sync_inode+0x4b>
c010f1a4:	83 ec 0c             	sub    $0xc,%esp
c010f1a7:	ff 75 ec             	pushl  -0x14(%ebp)
c010f1aa:	e8 2d b7 ff ff       	call   c010a8dc <kfree>
c010f1af:	83 c4 10             	add    $0x10,%esp
c010f1b2:	8b 45 e8             	mov    -0x18(%ebp),%eax
c010f1b5:	e9 c2 00 00 00       	jmp    c010f27c <sync_inode+0x10d>
c010f1ba:	8b 45 ec             	mov    -0x14(%ebp),%eax
c010f1bd:	8d 50 04             	lea    0x4(%eax),%edx
c010f1c0:	8b 45 0c             	mov    0xc(%ebp),%eax
c010f1c3:	8b 00                	mov    (%eax),%eax
c010f1c5:	89 02                	mov    %eax,(%edx)
c010f1c7:	8b 45 0c             	mov    0xc(%ebp),%eax
c010f1ca:	8b 40 04             	mov    0x4(%eax),%eax
c010f1cd:	83 f8 01             	cmp    $0x1,%eax
c010f1d0:	74 0d                	je     c010f1df <sync_inode+0x70>
c010f1d2:	83 f8 02             	cmp    $0x2,%eax
c010f1d5:	75 10                	jne    c010f1e7 <sync_inode+0x78>
c010f1d7:	66 c7 45 f6 00 40    	movw   $0x4000,-0xa(%ebp)
c010f1dd:	eb 12                	jmp    c010f1f1 <sync_inode+0x82>
c010f1df:	66 c7 45 f6 00 80    	movw   $0x8000,-0xa(%ebp)
c010f1e5:	eb 0a                	jmp    c010f1f1 <sync_inode+0x82>
c010f1e7:	b8 fd ff ff ff       	mov    $0xfffffffd,%eax
c010f1ec:	e9 8b 00 00 00       	jmp    c010f27c <sync_inode+0x10d>
c010f1f1:	8b 45 ec             	mov    -0x14(%ebp),%eax
c010f1f4:	0f b7 00             	movzwl (%eax),%eax
c010f1f7:	66 25 ff 0f          	and    $0xfff,%ax
c010f1fb:	66 0b 45 f6          	or     -0xa(%ebp),%ax
c010f1ff:	89 c2                	mov    %eax,%edx
c010f201:	8b 45 ec             	mov    -0x14(%ebp),%eax
c010f204:	66 89 10             	mov    %dx,(%eax)
c010f207:	c7 45 f0 00 00 00 00 	movl   $0x0,-0x10(%ebp)
c010f20e:	eb 23                	jmp    c010f233 <sync_inode+0xc4>
c010f210:	8b 45 f0             	mov    -0x10(%ebp),%eax
c010f213:	83 c0 0a             	add    $0xa,%eax
c010f216:	8d 14 85 00 00 00 00 	lea    0x0(,%eax,4),%edx
c010f21d:	8b 45 ec             	mov    -0x14(%ebp),%eax
c010f220:	8d 0c 02             	lea    (%edx,%eax,1),%ecx
c010f223:	8b 45 0c             	mov    0xc(%ebp),%eax
c010f226:	8b 55 f0             	mov    -0x10(%ebp),%edx
c010f229:	8b 44 90 08          	mov    0x8(%eax,%edx,4),%eax
c010f22d:	89 01                	mov    %eax,(%ecx)
c010f22f:	83 45 f0 01          	addl   $0x1,-0x10(%ebp)
c010f233:	83 7d f0 0b          	cmpl   $0xb,-0x10(%ebp)
c010f237:	76 d7                	jbe    c010f210 <sync_inode+0xa1>
c010f239:	8b 45 ec             	mov    -0x14(%ebp),%eax
c010f23c:	8d 50 58             	lea    0x58(%eax),%edx
c010f23f:	8b 45 0c             	mov    0xc(%ebp),%eax
c010f242:	8b 40 38             	mov    0x38(%eax),%eax
c010f245:	89 02                	mov    %eax,(%edx)
c010f247:	8b 45 ec             	mov    -0x14(%ebp),%eax
c010f24a:	8d 50 5c             	lea    0x5c(%eax),%edx
c010f24d:	8b 45 0c             	mov    0xc(%ebp),%eax
c010f250:	8b 40 3c             	mov    0x3c(%eax),%eax
c010f253:	89 02                	mov    %eax,(%edx)
c010f255:	83 ec 04             	sub    $0x4,%esp
c010f258:	6a 01                	push   $0x1
c010f25a:	ff 75 ec             	pushl  -0x14(%ebp)
c010f25d:	ff 75 08             	pushl  0x8(%ebp)
c010f260:	e8 ef f9 ff ff       	call   c010ec54 <rw_raw_inode>
c010f265:	83 c4 10             	add    $0x10,%esp
c010f268:	89 45 e8             	mov    %eax,-0x18(%ebp)
c010f26b:	83 ec 0c             	sub    $0xc,%esp
c010f26e:	ff 75 ec             	pushl  -0x14(%ebp)
c010f271:	e8 66 b6 ff ff       	call   c010a8dc <kfree>
c010f276:	83 c4 10             	add    $0x10,%esp
c010f279:	8b 45 e8             	mov    -0x18(%ebp),%eax
c010f27c:	c9                   	leave  
c010f27d:	c3                   	ret    

c010f27e <cvrt_err>:
c010f27e:	55                   	push   %ebp
c010f27f:	89 e5                	mov    %esp,%ebp
c010f281:	8b 45 08             	mov    0x8(%ebp),%eax
c010f284:	83 c0 08             	add    $0x8,%eax
c010f287:	83 f8 07             	cmp    $0x7,%eax
c010f28a:	77 33                	ja     c010f2bf <cvrt_err+0x41>
c010f28c:	8b 04 85 f0 36 11 c0 	mov    -0x3feec910(,%eax,4),%eax
c010f293:	ff e0                	jmp    *%eax
c010f295:	b8 ff ff ff ff       	mov    $0xffffffff,%eax
c010f29a:	eb 28                	jmp    c010f2c4 <cvrt_err+0x46>
c010f29c:	b8 fe ff ff ff       	mov    $0xfffffffe,%eax
c010f2a1:	eb 21                	jmp    c010f2c4 <cvrt_err+0x46>
c010f2a3:	b8 fd ff ff ff       	mov    $0xfffffffd,%eax
c010f2a8:	eb 1a                	jmp    c010f2c4 <cvrt_err+0x46>
c010f2aa:	b8 fc ff ff ff       	mov    $0xfffffffc,%eax
c010f2af:	eb 13                	jmp    c010f2c4 <cvrt_err+0x46>
c010f2b1:	b8 fa ff ff ff       	mov    $0xfffffffa,%eax
c010f2b6:	eb 0c                	jmp    c010f2c4 <cvrt_err+0x46>
c010f2b8:	b8 f7 ff ff ff       	mov    $0xfffffff7,%eax
c010f2bd:	eb 05                	jmp    c010f2c4 <cvrt_err+0x46>
c010f2bf:	b8 fb ff ff ff       	mov    $0xfffffffb,%eax
c010f2c4:	5d                   	pop    %ebp
c010f2c5:	c3                   	ret    

c010f2c6 <cvrt_inode_type>:
c010f2c6:	55                   	push   %ebp
c010f2c7:	89 e5                	mov    %esp,%ebp
c010f2c9:	83 ec 08             	sub    $0x8,%esp
c010f2cc:	83 7d 08 01          	cmpl   $0x1,0x8(%ebp)
c010f2d0:	74 0d                	je     c010f2df <cvrt_inode_type+0x19>
c010f2d2:	83 7d 08 02          	cmpl   $0x2,0x8(%ebp)
c010f2d6:	75 0e                	jne    c010f2e6 <cvrt_inode_type+0x20>
c010f2d8:	b8 01 00 00 00       	mov    $0x1,%eax
c010f2dd:	eb 1c                	jmp    c010f2fb <cvrt_inode_type+0x35>
c010f2df:	b8 02 00 00 00       	mov    $0x2,%eax
c010f2e4:	eb 15                	jmp    c010f2fb <cvrt_inode_type+0x35>
c010f2e6:	83 ec 0c             	sub    $0xc,%esp
c010f2e9:	68 10 37 11 c0       	push   $0xc0113710
c010f2ee:	e8 b0 2e 00 00       	call   c01121a3 <panic>
c010f2f3:	83 c4 10             	add    $0x10,%esp
c010f2f6:	b8 00 00 00 00       	mov    $0x0,%eax
c010f2fb:	c9                   	leave  
c010f2fc:	c3                   	ret    

c010f2fd <free_ext2_entr>:
c010f2fd:	55                   	push   %ebp
c010f2fe:	89 e5                	mov    %esp,%ebp
c010f300:	83 ec 18             	sub    $0x18,%esp
c010f303:	83 7d 08 00          	cmpl   $0x0,0x8(%ebp)
c010f307:	74 40                	je     c010f349 <free_ext2_entr+0x4c>
c010f309:	8b 45 08             	mov    0x8(%ebp),%eax
c010f30c:	8b 40 0c             	mov    0xc(%eax),%eax
c010f30f:	83 ec 0c             	sub    $0xc,%esp
c010f312:	50                   	push   %eax
c010f313:	e8 e5 ff ff ff       	call   c010f2fd <free_ext2_entr>
c010f318:	83 c4 10             	add    $0x10,%esp
c010f31b:	89 45 f4             	mov    %eax,-0xc(%ebp)
c010f31e:	83 7d f4 00          	cmpl   $0x0,-0xc(%ebp)
c010f322:	79 05                	jns    c010f329 <free_ext2_entr+0x2c>
c010f324:	8b 45 f4             	mov    -0xc(%ebp),%eax
c010f327:	eb 25                	jmp    c010f34e <free_ext2_entr+0x51>
c010f329:	8b 45 08             	mov    0x8(%ebp),%eax
c010f32c:	8b 40 08             	mov    0x8(%eax),%eax
c010f32f:	83 ec 0c             	sub    $0xc,%esp
c010f332:	50                   	push   %eax
c010f333:	e8 a4 b5 ff ff       	call   c010a8dc <kfree>
c010f338:	83 c4 10             	add    $0x10,%esp
c010f33b:	83 ec 0c             	sub    $0xc,%esp
c010f33e:	ff 75 08             	pushl  0x8(%ebp)
c010f341:	e8 96 b5 ff ff       	call   c010a8dc <kfree>
c010f346:	83 c4 10             	add    $0x10,%esp
c010f349:	b8 00 00 00 00       	mov    $0x0,%eax
c010f34e:	c9                   	leave  
c010f34f:	c3                   	ret    

c010f350 <valid_ext2_dir>:
c010f350:	55                   	push   %ebp
c010f351:	89 e5                	mov    %esp,%ebp
c010f353:	83 ec 08             	sub    $0x8,%esp
c010f356:	83 7d 08 00          	cmpl   $0x0,0x8(%ebp)
c010f35a:	74 1d                	je     c010f379 <valid_ext2_dir+0x29>
c010f35c:	8b 45 08             	mov    0x8(%ebp),%eax
c010f35f:	8b 40 08             	mov    0x8(%eax),%eax
c010f362:	83 ec 04             	sub    $0x4,%esp
c010f365:	6a 02                	push   $0x2
c010f367:	68 3a 37 11 c0       	push   $0xc011373a
c010f36c:	50                   	push   %eax
c010f36d:	e8 c4 2d 00 00       	call   c0112136 <memcmp>
c010f372:	83 c4 10             	add    $0x10,%esp
c010f375:	85 c0                	test   %eax,%eax
c010f377:	74 07                	je     c010f380 <valid_ext2_dir+0x30>
c010f379:	b8 00 00 00 00       	mov    $0x0,%eax
c010f37e:	eb 36                	jmp    c010f3b6 <valid_ext2_dir+0x66>
c010f380:	8b 45 08             	mov    0x8(%ebp),%eax
c010f383:	8b 40 0c             	mov    0xc(%eax),%eax
c010f386:	85 c0                	test   %eax,%eax
c010f388:	74 20                	je     c010f3aa <valid_ext2_dir+0x5a>
c010f38a:	8b 45 08             	mov    0x8(%ebp),%eax
c010f38d:	8b 40 0c             	mov    0xc(%eax),%eax
c010f390:	8b 40 08             	mov    0x8(%eax),%eax
c010f393:	83 ec 04             	sub    $0x4,%esp
c010f396:	6a 03                	push   $0x3
c010f398:	68 3c 37 11 c0       	push   $0xc011373c
c010f39d:	50                   	push   %eax
c010f39e:	e8 93 2d 00 00       	call   c0112136 <memcmp>
c010f3a3:	83 c4 10             	add    $0x10,%esp
c010f3a6:	85 c0                	test   %eax,%eax
c010f3a8:	74 07                	je     c010f3b1 <valid_ext2_dir+0x61>
c010f3aa:	b8 00 00 00 00       	mov    $0x0,%eax
c010f3af:	eb 05                	jmp    c010f3b6 <valid_ext2_dir+0x66>
c010f3b1:	b8 01 00 00 00       	mov    $0x1,%eax
c010f3b6:	c9                   	leave  
c010f3b7:	c3                   	ret    

c010f3b8 <dir_find_child>:
c010f3b8:	55                   	push   %ebp
c010f3b9:	89 e5                	mov    %esp,%ebp
c010f3bb:	83 ec 18             	sub    $0x18,%esp
c010f3be:	83 ec 08             	sub    $0x8,%esp
c010f3c1:	8d 45 e8             	lea    -0x18(%ebp),%eax
c010f3c4:	50                   	push   %eax
c010f3c5:	ff 75 08             	pushl  0x8(%ebp)
c010f3c8:	e8 90 e7 ff ff       	call   c010db5d <read_dir>
c010f3cd:	83 c4 10             	add    $0x10,%esp
c010f3d0:	89 45 f0             	mov    %eax,-0x10(%ebp)
c010f3d3:	83 7d f0 00          	cmpl   $0x0,-0x10(%ebp)
c010f3d7:	79 22                	jns    c010f3fb <dir_find_child+0x43>
c010f3d9:	8b 45 e8             	mov    -0x18(%ebp),%eax
c010f3dc:	83 ec 0c             	sub    $0xc,%esp
c010f3df:	50                   	push   %eax
c010f3e0:	e8 18 ff ff ff       	call   c010f2fd <free_ext2_entr>
c010f3e5:	83 c4 10             	add    $0x10,%esp
c010f3e8:	83 ec 0c             	sub    $0xc,%esp
c010f3eb:	ff 75 f0             	pushl  -0x10(%ebp)
c010f3ee:	e8 8b fe ff ff       	call   c010f27e <cvrt_err>
c010f3f3:	83 c4 10             	add    $0x10,%esp
c010f3f6:	e9 a8 00 00 00       	jmp    c010f4a3 <dir_find_child+0xeb>
c010f3fb:	8b 45 e8             	mov    -0x18(%ebp),%eax
c010f3fe:	83 ec 0c             	sub    $0xc,%esp
c010f401:	50                   	push   %eax
c010f402:	e8 49 ff ff ff       	call   c010f350 <valid_ext2_dir>
c010f407:	83 c4 10             	add    $0x10,%esp
c010f40a:	83 f0 01             	xor    $0x1,%eax
c010f40d:	84 c0                	test   %al,%al
c010f40f:	74 16                	je     c010f427 <dir_find_child+0x6f>
c010f411:	8b 45 e8             	mov    -0x18(%ebp),%eax
c010f414:	83 ec 0c             	sub    $0xc,%esp
c010f417:	50                   	push   %eax
c010f418:	e8 e0 fe ff ff       	call   c010f2fd <free_ext2_entr>
c010f41d:	83 c4 10             	add    $0x10,%esp
c010f420:	b8 fb ff ff ff       	mov    $0xfffffffb,%eax
c010f425:	eb 7c                	jmp    c010f4a3 <dir_find_child+0xeb>
c010f427:	83 ec 0c             	sub    $0xc,%esp
c010f42a:	ff 75 0c             	pushl  0xc(%ebp)
c010f42d:	e8 4a 2d 00 00       	call   c011217c <strlen>
c010f432:	83 c4 10             	add    $0x10,%esp
c010f435:	89 45 ec             	mov    %eax,-0x14(%ebp)
c010f438:	8b 45 e8             	mov    -0x18(%ebp),%eax
c010f43b:	89 45 f4             	mov    %eax,-0xc(%ebp)
c010f43e:	eb 49                	jmp    c010f489 <dir_find_child+0xd1>
c010f440:	8b 45 ec             	mov    -0x14(%ebp),%eax
c010f443:	8d 50 01             	lea    0x1(%eax),%edx
c010f446:	8b 45 f4             	mov    -0xc(%ebp),%eax
c010f449:	8b 40 08             	mov    0x8(%eax),%eax
c010f44c:	83 ec 04             	sub    $0x4,%esp
c010f44f:	52                   	push   %edx
c010f450:	ff 75 0c             	pushl  0xc(%ebp)
c010f453:	50                   	push   %eax
c010f454:	e8 dd 2c 00 00       	call   c0112136 <memcmp>
c010f459:	83 c4 10             	add    $0x10,%esp
c010f45c:	85 c0                	test   %eax,%eax
c010f45e:	75 20                	jne    c010f480 <dir_find_child+0xc8>
c010f460:	8b 45 f4             	mov    -0xc(%ebp),%eax
c010f463:	8b 10                	mov    (%eax),%edx
c010f465:	8b 45 10             	mov    0x10(%ebp),%eax
c010f468:	89 10                	mov    %edx,(%eax)
c010f46a:	8b 45 e8             	mov    -0x18(%ebp),%eax
c010f46d:	83 ec 0c             	sub    $0xc,%esp
c010f470:	50                   	push   %eax
c010f471:	e8 87 fe ff ff       	call   c010f2fd <free_ext2_entr>
c010f476:	83 c4 10             	add    $0x10,%esp
c010f479:	b8 00 00 00 00       	mov    $0x0,%eax
c010f47e:	eb 23                	jmp    c010f4a3 <dir_find_child+0xeb>
c010f480:	8b 45 f4             	mov    -0xc(%ebp),%eax
c010f483:	8b 40 0c             	mov    0xc(%eax),%eax
c010f486:	89 45 f4             	mov    %eax,-0xc(%ebp)
c010f489:	83 7d f4 00          	cmpl   $0x0,-0xc(%ebp)
c010f48d:	75 b1                	jne    c010f440 <dir_find_child+0x88>
c010f48f:	8b 45 e8             	mov    -0x18(%ebp),%eax
c010f492:	83 ec 0c             	sub    $0xc,%esp
c010f495:	50                   	push   %eax
c010f496:	e8 62 fe ff ff       	call   c010f2fd <free_ext2_entr>
c010f49b:	83 c4 10             	add    $0x10,%esp
c010f49e:	b8 ff ff ff ff       	mov    $0xffffffff,%eax
c010f4a3:	c9                   	leave  
c010f4a4:	c3                   	ret    

c010f4a5 <dir_add_child>:
c010f4a5:	55                   	push   %ebp
c010f4a6:	89 e5                	mov    %esp,%ebp
c010f4a8:	83 ec 28             	sub    $0x28,%esp
c010f4ab:	83 ec 08             	sub    $0x8,%esp
c010f4ae:	8d 45 e4             	lea    -0x1c(%ebp),%eax
c010f4b1:	50                   	push   %eax
c010f4b2:	ff 75 08             	pushl  0x8(%ebp)
c010f4b5:	e8 a3 e6 ff ff       	call   c010db5d <read_dir>
c010f4ba:	83 c4 10             	add    $0x10,%esp
c010f4bd:	89 45 f0             	mov    %eax,-0x10(%ebp)
c010f4c0:	83 7d f0 00          	cmpl   $0x0,-0x10(%ebp)
c010f4c4:	79 22                	jns    c010f4e8 <dir_add_child+0x43>
c010f4c6:	8b 45 e4             	mov    -0x1c(%ebp),%eax
c010f4c9:	83 ec 0c             	sub    $0xc,%esp
c010f4cc:	50                   	push   %eax
c010f4cd:	e8 2b fe ff ff       	call   c010f2fd <free_ext2_entr>
c010f4d2:	83 c4 10             	add    $0x10,%esp
c010f4d5:	83 ec 0c             	sub    $0xc,%esp
c010f4d8:	ff 75 f0             	pushl  -0x10(%ebp)
c010f4db:	e8 9e fd ff ff       	call   c010f27e <cvrt_err>
c010f4e0:	83 c4 10             	add    $0x10,%esp
c010f4e3:	e9 10 01 00 00       	jmp    c010f5f8 <dir_add_child+0x153>
c010f4e8:	8b 45 e4             	mov    -0x1c(%ebp),%eax
c010f4eb:	83 ec 0c             	sub    $0xc,%esp
c010f4ee:	50                   	push   %eax
c010f4ef:	e8 5c fe ff ff       	call   c010f350 <valid_ext2_dir>
c010f4f4:	83 c4 10             	add    $0x10,%esp
c010f4f7:	83 f0 01             	xor    $0x1,%eax
c010f4fa:	84 c0                	test   %al,%al
c010f4fc:	74 19                	je     c010f517 <dir_add_child+0x72>
c010f4fe:	8b 45 e4             	mov    -0x1c(%ebp),%eax
c010f501:	83 ec 0c             	sub    $0xc,%esp
c010f504:	50                   	push   %eax
c010f505:	e8 f3 fd ff ff       	call   c010f2fd <free_ext2_entr>
c010f50a:	83 c4 10             	add    $0x10,%esp
c010f50d:	b8 fb ff ff ff       	mov    $0xfffffffb,%eax
c010f512:	e9 e1 00 00 00       	jmp    c010f5f8 <dir_add_child+0x153>
c010f517:	83 ec 0c             	sub    $0xc,%esp
c010f51a:	6a 10                	push   $0x10
c010f51c:	e8 cf b2 ff ff       	call   c010a7f0 <kmalloc>
c010f521:	83 c4 10             	add    $0x10,%esp
c010f524:	89 45 ec             	mov    %eax,-0x14(%ebp)
c010f527:	83 ec 0c             	sub    $0xc,%esp
c010f52a:	ff 75 0c             	pushl  0xc(%ebp)
c010f52d:	e8 4a 2c 00 00       	call   c011217c <strlen>
c010f532:	83 c4 10             	add    $0x10,%esp
c010f535:	89 45 e8             	mov    %eax,-0x18(%ebp)
c010f538:	8b 45 e8             	mov    -0x18(%ebp),%eax
c010f53b:	83 c0 01             	add    $0x1,%eax
c010f53e:	83 ec 0c             	sub    $0xc,%esp
c010f541:	50                   	push   %eax
c010f542:	e8 a9 b2 ff ff       	call   c010a7f0 <kmalloc>
c010f547:	83 c4 10             	add    $0x10,%esp
c010f54a:	8b 55 ec             	mov    -0x14(%ebp),%edx
c010f54d:	89 42 08             	mov    %eax,0x8(%edx)
c010f550:	8b 45 ec             	mov    -0x14(%ebp),%eax
c010f553:	8b 40 08             	mov    0x8(%eax),%eax
c010f556:	83 ec 04             	sub    $0x4,%esp
c010f559:	ff 75 e8             	pushl  -0x18(%ebp)
c010f55c:	ff 75 0c             	pushl  0xc(%ebp)
c010f55f:	50                   	push   %eax
c010f560:	e8 f1 2b 00 00       	call   c0112156 <memcpy>
c010f565:	83 c4 10             	add    $0x10,%esp
c010f568:	8b 45 ec             	mov    -0x14(%ebp),%eax
c010f56b:	8b 50 08             	mov    0x8(%eax),%edx
c010f56e:	8b 45 e8             	mov    -0x18(%ebp),%eax
c010f571:	01 d0                	add    %edx,%eax
c010f573:	c6 00 00             	movb   $0x0,(%eax)
c010f576:	8b 45 e8             	mov    -0x18(%ebp),%eax
c010f579:	0f b6 d0             	movzbl %al,%edx
c010f57c:	8b 45 ec             	mov    -0x14(%ebp),%eax
c010f57f:	66 89 50 04          	mov    %dx,0x4(%eax)
c010f583:	8b 45 ec             	mov    -0x14(%ebp),%eax
c010f586:	8b 55 10             	mov    0x10(%ebp),%edx
c010f589:	89 10                	mov    %edx,(%eax)
c010f58b:	8b 45 ec             	mov    -0x14(%ebp),%eax
c010f58e:	c7 40 0c 00 00 00 00 	movl   $0x0,0xc(%eax)
c010f595:	8b 45 e4             	mov    -0x1c(%ebp),%eax
c010f598:	89 45 f4             	mov    %eax,-0xc(%ebp)
c010f59b:	eb 09                	jmp    c010f5a6 <dir_add_child+0x101>
c010f59d:	8b 45 f4             	mov    -0xc(%ebp),%eax
c010f5a0:	8b 40 0c             	mov    0xc(%eax),%eax
c010f5a3:	89 45 f4             	mov    %eax,-0xc(%ebp)
c010f5a6:	8b 45 f4             	mov    -0xc(%ebp),%eax
c010f5a9:	8b 40 0c             	mov    0xc(%eax),%eax
c010f5ac:	85 c0                	test   %eax,%eax
c010f5ae:	75 ed                	jne    c010f59d <dir_add_child+0xf8>
c010f5b0:	8b 45 f4             	mov    -0xc(%ebp),%eax
c010f5b3:	8b 55 ec             	mov    -0x14(%ebp),%edx
c010f5b6:	89 50 0c             	mov    %edx,0xc(%eax)
c010f5b9:	8b 45 e4             	mov    -0x1c(%ebp),%eax
c010f5bc:	83 ec 08             	sub    $0x8,%esp
c010f5bf:	50                   	push   %eax
c010f5c0:	ff 75 08             	pushl  0x8(%ebp)
c010f5c3:	e8 42 e8 ff ff       	call   c010de0a <write_dir>
c010f5c8:	83 c4 10             	add    $0x10,%esp
c010f5cb:	89 45 f0             	mov    %eax,-0x10(%ebp)
c010f5ce:	8b 45 e4             	mov    -0x1c(%ebp),%eax
c010f5d1:	83 ec 0c             	sub    $0xc,%esp
c010f5d4:	50                   	push   %eax
c010f5d5:	e8 23 fd ff ff       	call   c010f2fd <free_ext2_entr>
c010f5da:	83 c4 10             	add    $0x10,%esp
c010f5dd:	83 7d f0 00          	cmpl   $0x0,-0x10(%ebp)
c010f5e1:	79 10                	jns    c010f5f3 <dir_add_child+0x14e>
c010f5e3:	83 ec 0c             	sub    $0xc,%esp
c010f5e6:	ff 75 f0             	pushl  -0x10(%ebp)
c010f5e9:	e8 90 fc ff ff       	call   c010f27e <cvrt_err>
c010f5ee:	83 c4 10             	add    $0x10,%esp
c010f5f1:	eb 05                	jmp    c010f5f8 <dir_add_child+0x153>
c010f5f3:	b8 00 00 00 00       	mov    $0x0,%eax
c010f5f8:	c9                   	leave  
c010f5f9:	c3                   	ret    

c010f5fa <dir_rem_child>:
c010f5fa:	55                   	push   %ebp
c010f5fb:	89 e5                	mov    %esp,%ebp
c010f5fd:	83 ec 28             	sub    $0x28,%esp
c010f600:	83 ec 08             	sub    $0x8,%esp
c010f603:	8d 45 e4             	lea    -0x1c(%ebp),%eax
c010f606:	50                   	push   %eax
c010f607:	ff 75 08             	pushl  0x8(%ebp)
c010f60a:	e8 4e e5 ff ff       	call   c010db5d <read_dir>
c010f60f:	83 c4 10             	add    $0x10,%esp
c010f612:	89 45 f0             	mov    %eax,-0x10(%ebp)
c010f615:	83 7d f0 00          	cmpl   $0x0,-0x10(%ebp)
c010f619:	79 22                	jns    c010f63d <dir_rem_child+0x43>
c010f61b:	8b 45 e4             	mov    -0x1c(%ebp),%eax
c010f61e:	83 ec 0c             	sub    $0xc,%esp
c010f621:	50                   	push   %eax
c010f622:	e8 d6 fc ff ff       	call   c010f2fd <free_ext2_entr>
c010f627:	83 c4 10             	add    $0x10,%esp
c010f62a:	83 ec 0c             	sub    $0xc,%esp
c010f62d:	ff 75 f0             	pushl  -0x10(%ebp)
c010f630:	e8 49 fc ff ff       	call   c010f27e <cvrt_err>
c010f635:	83 c4 10             	add    $0x10,%esp
c010f638:	e9 10 01 00 00       	jmp    c010f74d <dir_rem_child+0x153>
c010f63d:	8b 45 e4             	mov    -0x1c(%ebp),%eax
c010f640:	83 ec 0c             	sub    $0xc,%esp
c010f643:	50                   	push   %eax
c010f644:	e8 07 fd ff ff       	call   c010f350 <valid_ext2_dir>
c010f649:	83 c4 10             	add    $0x10,%esp
c010f64c:	83 f0 01             	xor    $0x1,%eax
c010f64f:	84 c0                	test   %al,%al
c010f651:	74 19                	je     c010f66c <dir_rem_child+0x72>
c010f653:	8b 45 e4             	mov    -0x1c(%ebp),%eax
c010f656:	83 ec 0c             	sub    $0xc,%esp
c010f659:	50                   	push   %eax
c010f65a:	e8 9e fc ff ff       	call   c010f2fd <free_ext2_entr>
c010f65f:	83 c4 10             	add    $0x10,%esp
c010f662:	b8 fb ff ff ff       	mov    $0xfffffffb,%eax
c010f667:	e9 e1 00 00 00       	jmp    c010f74d <dir_rem_child+0x153>
c010f66c:	83 ec 0c             	sub    $0xc,%esp
c010f66f:	ff 75 0c             	pushl  0xc(%ebp)
c010f672:	e8 05 2b 00 00       	call   c011217c <strlen>
c010f677:	83 c4 10             	add    $0x10,%esp
c010f67a:	89 45 ec             	mov    %eax,-0x14(%ebp)
c010f67d:	8b 45 e4             	mov    -0x1c(%ebp),%eax
c010f680:	89 45 e8             	mov    %eax,-0x18(%ebp)
c010f683:	8b 45 e4             	mov    -0x1c(%ebp),%eax
c010f686:	89 45 f4             	mov    %eax,-0xc(%ebp)
c010f689:	e9 a1 00 00 00       	jmp    c010f72f <dir_rem_child+0x135>
c010f68e:	8b 45 ec             	mov    -0x14(%ebp),%eax
c010f691:	8d 50 01             	lea    0x1(%eax),%edx
c010f694:	8b 45 f4             	mov    -0xc(%ebp),%eax
c010f697:	8b 40 08             	mov    0x8(%eax),%eax
c010f69a:	83 ec 04             	sub    $0x4,%esp
c010f69d:	52                   	push   %edx
c010f69e:	ff 75 0c             	pushl  0xc(%ebp)
c010f6a1:	50                   	push   %eax
c010f6a2:	e8 8f 2a 00 00       	call   c0112136 <memcmp>
c010f6a7:	83 c4 10             	add    $0x10,%esp
c010f6aa:	85 c0                	test   %eax,%eax
c010f6ac:	75 78                	jne    c010f726 <dir_rem_child+0x12c>
c010f6ae:	8b 45 e4             	mov    -0x1c(%ebp),%eax
c010f6b1:	39 45 e8             	cmp    %eax,-0x18(%ebp)
c010f6b4:	75 0b                	jne    c010f6c1 <dir_rem_child+0xc7>
c010f6b6:	8b 45 f4             	mov    -0xc(%ebp),%eax
c010f6b9:	8b 40 0c             	mov    0xc(%eax),%eax
c010f6bc:	89 45 e4             	mov    %eax,-0x1c(%ebp)
c010f6bf:	eb 0c                	jmp    c010f6cd <dir_rem_child+0xd3>
c010f6c1:	8b 45 f4             	mov    -0xc(%ebp),%eax
c010f6c4:	8b 50 0c             	mov    0xc(%eax),%edx
c010f6c7:	8b 45 e8             	mov    -0x18(%ebp),%eax
c010f6ca:	89 50 0c             	mov    %edx,0xc(%eax)
c010f6cd:	8b 45 f4             	mov    -0xc(%ebp),%eax
c010f6d0:	c7 40 0c 00 00 00 00 	movl   $0x0,0xc(%eax)
c010f6d7:	83 ec 0c             	sub    $0xc,%esp
c010f6da:	ff 75 f4             	pushl  -0xc(%ebp)
c010f6dd:	e8 1b fc ff ff       	call   c010f2fd <free_ext2_entr>
c010f6e2:	83 c4 10             	add    $0x10,%esp
c010f6e5:	8b 45 e4             	mov    -0x1c(%ebp),%eax
c010f6e8:	83 ec 08             	sub    $0x8,%esp
c010f6eb:	50                   	push   %eax
c010f6ec:	ff 75 08             	pushl  0x8(%ebp)
c010f6ef:	e8 16 e7 ff ff       	call   c010de0a <write_dir>
c010f6f4:	83 c4 10             	add    $0x10,%esp
c010f6f7:	89 45 f0             	mov    %eax,-0x10(%ebp)
c010f6fa:	8b 45 e4             	mov    -0x1c(%ebp),%eax
c010f6fd:	83 ec 0c             	sub    $0xc,%esp
c010f700:	50                   	push   %eax
c010f701:	e8 f7 fb ff ff       	call   c010f2fd <free_ext2_entr>
c010f706:	83 c4 10             	add    $0x10,%esp
c010f709:	83 7d f0 00          	cmpl   $0x0,-0x10(%ebp)
c010f70d:	79 10                	jns    c010f71f <dir_rem_child+0x125>
c010f70f:	83 ec 0c             	sub    $0xc,%esp
c010f712:	ff 75 f0             	pushl  -0x10(%ebp)
c010f715:	e8 64 fb ff ff       	call   c010f27e <cvrt_err>
c010f71a:	83 c4 10             	add    $0x10,%esp
c010f71d:	eb 2e                	jmp    c010f74d <dir_rem_child+0x153>
c010f71f:	b8 00 00 00 00       	mov    $0x0,%eax
c010f724:	eb 27                	jmp    c010f74d <dir_rem_child+0x153>
c010f726:	8b 45 f4             	mov    -0xc(%ebp),%eax
c010f729:	8b 40 0c             	mov    0xc(%eax),%eax
c010f72c:	89 45 f4             	mov    %eax,-0xc(%ebp)
c010f72f:	83 7d f4 00          	cmpl   $0x0,-0xc(%ebp)
c010f733:	0f 85 55 ff ff ff    	jne    c010f68e <dir_rem_child+0x94>
c010f739:	8b 45 e4             	mov    -0x1c(%ebp),%eax
c010f73c:	83 ec 0c             	sub    $0xc,%esp
c010f73f:	50                   	push   %eax
c010f740:	e8 b8 fb ff ff       	call   c010f2fd <free_ext2_entr>
c010f745:	83 c4 10             	add    $0x10,%esp
c010f748:	b8 ff ff ff ff       	mov    $0xffffffff,%eax
c010f74d:	c9                   	leave  
c010f74e:	c3                   	ret    

c010f74f <convert_dir_entry>:
c010f74f:	55                   	push   %ebp
c010f750:	89 e5                	mov    %esp,%ebp
c010f752:	83 ec 18             	sub    $0x18,%esp
c010f755:	83 7d 08 00          	cmpl   $0x0,0x8(%ebp)
c010f759:	75 0a                	jne    c010f765 <convert_dir_entry+0x16>
c010f75b:	b8 00 00 00 00       	mov    $0x0,%eax
c010f760:	e9 8b 00 00 00       	jmp    c010f7f0 <convert_dir_entry+0xa1>
c010f765:	83 ec 0c             	sub    $0xc,%esp
c010f768:	6a 0c                	push   $0xc
c010f76a:	e8 81 b0 ff ff       	call   c010a7f0 <kmalloc>
c010f76f:	83 c4 10             	add    $0x10,%esp
c010f772:	89 45 f4             	mov    %eax,-0xc(%ebp)
c010f775:	8b 45 08             	mov    0x8(%ebp),%eax
c010f778:	8b 10                	mov    (%eax),%edx
c010f77a:	8b 45 f4             	mov    -0xc(%ebp),%eax
c010f77d:	89 50 04             	mov    %edx,0x4(%eax)
c010f780:	8b 45 08             	mov    0x8(%ebp),%eax
c010f783:	0f b7 40 04          	movzwl 0x4(%eax),%eax
c010f787:	0f b7 c0             	movzwl %ax,%eax
c010f78a:	83 c0 01             	add    $0x1,%eax
c010f78d:	83 ec 0c             	sub    $0xc,%esp
c010f790:	50                   	push   %eax
c010f791:	e8 5a b0 ff ff       	call   c010a7f0 <kmalloc>
c010f796:	83 c4 10             	add    $0x10,%esp
c010f799:	8b 55 f4             	mov    -0xc(%ebp),%edx
c010f79c:	89 02                	mov    %eax,(%edx)
c010f79e:	8b 45 08             	mov    0x8(%ebp),%eax
c010f7a1:	0f b7 40 04          	movzwl 0x4(%eax),%eax
c010f7a5:	0f b7 c8             	movzwl %ax,%ecx
c010f7a8:	8b 45 08             	mov    0x8(%ebp),%eax
c010f7ab:	8b 50 08             	mov    0x8(%eax),%edx
c010f7ae:	8b 45 f4             	mov    -0xc(%ebp),%eax
c010f7b1:	8b 00                	mov    (%eax),%eax
c010f7b3:	83 ec 04             	sub    $0x4,%esp
c010f7b6:	51                   	push   %ecx
c010f7b7:	52                   	push   %edx
c010f7b8:	50                   	push   %eax
c010f7b9:	e8 98 29 00 00       	call   c0112156 <memcpy>
c010f7be:	83 c4 10             	add    $0x10,%esp
c010f7c1:	8b 45 f4             	mov    -0xc(%ebp),%eax
c010f7c4:	8b 10                	mov    (%eax),%edx
c010f7c6:	8b 45 08             	mov    0x8(%ebp),%eax
c010f7c9:	0f b7 40 04          	movzwl 0x4(%eax),%eax
c010f7cd:	0f b7 c0             	movzwl %ax,%eax
c010f7d0:	01 d0                	add    %edx,%eax
c010f7d2:	c6 00 00             	movb   $0x0,(%eax)
c010f7d5:	8b 45 08             	mov    0x8(%ebp),%eax
c010f7d8:	8b 40 0c             	mov    0xc(%eax),%eax
c010f7db:	83 ec 0c             	sub    $0xc,%esp
c010f7de:	50                   	push   %eax
c010f7df:	e8 6b ff ff ff       	call   c010f74f <convert_dir_entry>
c010f7e4:	83 c4 10             	add    $0x10,%esp
c010f7e7:	8b 55 f4             	mov    -0xc(%ebp),%edx
c010f7ea:	89 42 08             	mov    %eax,0x8(%edx)
c010f7ed:	8b 45 f4             	mov    -0xc(%ebp),%eax
c010f7f0:	c9                   	leave  
c010f7f1:	c3                   	ret    

c010f7f2 <fs_list_dir>:
c010f7f2:	55                   	push   %ebp
c010f7f3:	89 e5                	mov    %esp,%ebp
c010f7f5:	83 ec 18             	sub    $0x18,%esp
c010f7f8:	83 ec 08             	sub    $0x8,%esp
c010f7fb:	8d 45 f0             	lea    -0x10(%ebp),%eax
c010f7fe:	50                   	push   %eax
c010f7ff:	ff 75 08             	pushl  0x8(%ebp)
c010f802:	e8 56 e3 ff ff       	call   c010db5d <read_dir>
c010f807:	83 c4 10             	add    $0x10,%esp
c010f80a:	89 45 f4             	mov    %eax,-0xc(%ebp)
c010f80d:	83 7d f4 00          	cmpl   $0x0,-0xc(%ebp)
c010f811:	79 1f                	jns    c010f832 <fs_list_dir+0x40>
c010f813:	8b 45 f0             	mov    -0x10(%ebp),%eax
c010f816:	83 ec 0c             	sub    $0xc,%esp
c010f819:	50                   	push   %eax
c010f81a:	e8 de fa ff ff       	call   c010f2fd <free_ext2_entr>
c010f81f:	83 c4 10             	add    $0x10,%esp
c010f822:	83 ec 0c             	sub    $0xc,%esp
c010f825:	ff 75 f4             	pushl  -0xc(%ebp)
c010f828:	e8 51 fa ff ff       	call   c010f27e <cvrt_err>
c010f82d:	83 c4 10             	add    $0x10,%esp
c010f830:	eb 54                	jmp    c010f886 <fs_list_dir+0x94>
c010f832:	8b 45 f0             	mov    -0x10(%ebp),%eax
c010f835:	83 ec 0c             	sub    $0xc,%esp
c010f838:	50                   	push   %eax
c010f839:	e8 12 fb ff ff       	call   c010f350 <valid_ext2_dir>
c010f83e:	83 c4 10             	add    $0x10,%esp
c010f841:	83 f0 01             	xor    $0x1,%eax
c010f844:	84 c0                	test   %al,%al
c010f846:	74 16                	je     c010f85e <fs_list_dir+0x6c>
c010f848:	8b 45 f0             	mov    -0x10(%ebp),%eax
c010f84b:	83 ec 0c             	sub    $0xc,%esp
c010f84e:	50                   	push   %eax
c010f84f:	e8 a9 fa ff ff       	call   c010f2fd <free_ext2_entr>
c010f854:	83 c4 10             	add    $0x10,%esp
c010f857:	b8 fb ff ff ff       	mov    $0xfffffffb,%eax
c010f85c:	eb 28                	jmp    c010f886 <fs_list_dir+0x94>
c010f85e:	8b 45 f0             	mov    -0x10(%ebp),%eax
c010f861:	83 ec 0c             	sub    $0xc,%esp
c010f864:	50                   	push   %eax
c010f865:	e8 e5 fe ff ff       	call   c010f74f <convert_dir_entry>
c010f86a:	83 c4 10             	add    $0x10,%esp
c010f86d:	8b 55 0c             	mov    0xc(%ebp),%edx
c010f870:	89 02                	mov    %eax,(%edx)
c010f872:	8b 45 f0             	mov    -0x10(%ebp),%eax
c010f875:	83 ec 0c             	sub    $0xc,%esp
c010f878:	50                   	push   %eax
c010f879:	e8 7f fa ff ff       	call   c010f2fd <free_ext2_entr>
c010f87e:	83 c4 10             	add    $0x10,%esp
c010f881:	b8 00 00 00 00       	mov    $0x0,%eax
c010f886:	c9                   	leave  
c010f887:	c3                   	ret    

c010f888 <find_char>:
c010f888:	55                   	push   %ebp
c010f889:	89 e5                	mov    %esp,%ebp
c010f88b:	83 ec 14             	sub    $0x14,%esp
c010f88e:	8b 45 0c             	mov    0xc(%ebp),%eax
c010f891:	88 45 ec             	mov    %al,-0x14(%ebp)
c010f894:	c7 45 fc 00 00 00 00 	movl   $0x0,-0x4(%ebp)
c010f89b:	eb 19                	jmp    c010f8b6 <find_char+0x2e>
c010f89d:	8b 55 08             	mov    0x8(%ebp),%edx
c010f8a0:	8b 45 fc             	mov    -0x4(%ebp),%eax
c010f8a3:	01 d0                	add    %edx,%eax
c010f8a5:	0f b6 00             	movzbl (%eax),%eax
c010f8a8:	38 45 ec             	cmp    %al,-0x14(%ebp)
c010f8ab:	75 05                	jne    c010f8b2 <find_char+0x2a>
c010f8ad:	8b 45 fc             	mov    -0x4(%ebp),%eax
c010f8b0:	eb 16                	jmp    c010f8c8 <find_char+0x40>
c010f8b2:	83 45 fc 01          	addl   $0x1,-0x4(%ebp)
c010f8b6:	8b 55 08             	mov    0x8(%ebp),%edx
c010f8b9:	8b 45 fc             	mov    -0x4(%ebp),%eax
c010f8bc:	01 d0                	add    %edx,%eax
c010f8be:	0f b6 00             	movzbl (%eax),%eax
c010f8c1:	84 c0                	test   %al,%al
c010f8c3:	75 d8                	jne    c010f89d <find_char+0x15>
c010f8c5:	8b 45 fc             	mov    -0x4(%ebp),%eax
c010f8c8:	c9                   	leave  
c010f8c9:	c3                   	ret    

c010f8ca <find_char_rev>:
c010f8ca:	55                   	push   %ebp
c010f8cb:	89 e5                	mov    %esp,%ebp
c010f8cd:	83 ec 28             	sub    $0x28,%esp
c010f8d0:	8b 45 0c             	mov    0xc(%ebp),%eax
c010f8d3:	88 45 e4             	mov    %al,-0x1c(%ebp)
c010f8d6:	83 ec 0c             	sub    $0xc,%esp
c010f8d9:	ff 75 08             	pushl  0x8(%ebp)
c010f8dc:	e8 9b 28 00 00       	call   c011217c <strlen>
c010f8e1:	83 c4 10             	add    $0x10,%esp
c010f8e4:	89 45 f0             	mov    %eax,-0x10(%ebp)
c010f8e7:	8b 45 f0             	mov    -0x10(%ebp),%eax
c010f8ea:	89 45 f4             	mov    %eax,-0xc(%ebp)
c010f8ed:	eb 19                	jmp    c010f908 <find_char_rev+0x3e>
c010f8ef:	83 6d f4 01          	subl   $0x1,-0xc(%ebp)
c010f8f3:	8b 55 08             	mov    0x8(%ebp),%edx
c010f8f6:	8b 45 f4             	mov    -0xc(%ebp),%eax
c010f8f9:	01 d0                	add    %edx,%eax
c010f8fb:	0f b6 00             	movzbl (%eax),%eax
c010f8fe:	38 45 e4             	cmp    %al,-0x1c(%ebp)
c010f901:	75 05                	jne    c010f908 <find_char_rev+0x3e>
c010f903:	8b 45 f4             	mov    -0xc(%ebp),%eax
c010f906:	eb 09                	jmp    c010f911 <find_char_rev+0x47>
c010f908:	83 7d f4 00          	cmpl   $0x0,-0xc(%ebp)
c010f90c:	75 e1                	jne    c010f8ef <find_char_rev+0x25>
c010f90e:	8b 45 f0             	mov    -0x10(%ebp),%eax
c010f911:	c9                   	leave  
c010f912:	c3                   	ret    

c010f913 <valid_path>:
c010f913:	55                   	push   %ebp
c010f914:	89 e5                	mov    %esp,%ebp
c010f916:	83 ec 18             	sub    $0x18,%esp
c010f919:	83 ec 0c             	sub    $0xc,%esp
c010f91c:	ff 75 08             	pushl  0x8(%ebp)
c010f91f:	e8 58 28 00 00       	call   c011217c <strlen>
c010f924:	83 c4 10             	add    $0x10,%esp
c010f927:	89 45 f0             	mov    %eax,-0x10(%ebp)
c010f92a:	8b 45 08             	mov    0x8(%ebp),%eax
c010f92d:	0f b6 00             	movzbl (%eax),%eax
c010f930:	3c 2f                	cmp    $0x2f,%al
c010f932:	74 07                	je     c010f93b <valid_path+0x28>
c010f934:	b8 00 00 00 00       	mov    $0x0,%eax
c010f939:	eb 69                	jmp    c010f9a4 <valid_path+0x91>
c010f93b:	c7 45 f4 00 00 00 00 	movl   $0x0,-0xc(%ebp)
c010f942:	eb 53                	jmp    c010f997 <valid_path+0x84>
c010f944:	8b 45 f4             	mov    -0xc(%ebp),%eax
c010f947:	89 45 ec             	mov    %eax,-0x14(%ebp)
c010f94a:	8b 45 ec             	mov    -0x14(%ebp),%eax
c010f94d:	8d 50 01             	lea    0x1(%eax),%edx
c010f950:	8b 45 08             	mov    0x8(%ebp),%eax
c010f953:	01 d0                	add    %edx,%eax
c010f955:	83 ec 08             	sub    $0x8,%esp
c010f958:	6a 2f                	push   $0x2f
c010f95a:	50                   	push   %eax
c010f95b:	e8 28 ff ff ff       	call   c010f888 <find_char>
c010f960:	83 c4 10             	add    $0x10,%esp
c010f963:	8b 55 ec             	mov    -0x14(%ebp),%edx
c010f966:	01 d0                	add    %edx,%eax
c010f968:	83 c0 01             	add    $0x1,%eax
c010f96b:	89 45 f4             	mov    %eax,-0xc(%ebp)
c010f96e:	8b 45 ec             	mov    -0x14(%ebp),%eax
c010f971:	83 c0 01             	add    $0x1,%eax
c010f974:	39 45 f4             	cmp    %eax,-0xc(%ebp)
c010f977:	75 07                	jne    c010f980 <valid_path+0x6d>
c010f979:	b8 00 00 00 00       	mov    $0x0,%eax
c010f97e:	eb 24                	jmp    c010f9a4 <valid_path+0x91>
c010f980:	8b 45 f4             	mov    -0xc(%ebp),%eax
c010f983:	2b 45 ec             	sub    -0x14(%ebp),%eax
c010f986:	83 e8 01             	sub    $0x1,%eax
c010f989:	3d ff 00 00 00       	cmp    $0xff,%eax
c010f98e:	76 07                	jbe    c010f997 <valid_path+0x84>
c010f990:	b8 00 00 00 00       	mov    $0x0,%eax
c010f995:	eb 0d                	jmp    c010f9a4 <valid_path+0x91>
c010f997:	8b 45 f4             	mov    -0xc(%ebp),%eax
c010f99a:	3b 45 f0             	cmp    -0x10(%ebp),%eax
c010f99d:	72 a5                	jb     c010f944 <valid_path+0x31>
c010f99f:	b8 01 00 00 00       	mov    $0x1,%eax
c010f9a4:	c9                   	leave  
c010f9a5:	c3                   	ret    

c010f9a6 <fs_find_inode>:
c010f9a6:	55                   	push   %ebp
c010f9a7:	89 e5                	mov    %esp,%ebp
c010f9a9:	83 ec 28             	sub    $0x28,%esp
c010f9ac:	83 ec 0c             	sub    $0xc,%esp
c010f9af:	ff 75 08             	pushl  0x8(%ebp)
c010f9b2:	e8 5c ff ff ff       	call   c010f913 <valid_path>
c010f9b7:	83 c4 10             	add    $0x10,%esp
c010f9ba:	83 f0 01             	xor    $0x1,%eax
c010f9bd:	84 c0                	test   %al,%al
c010f9bf:	74 0a                	je     c010f9cb <fs_find_inode+0x25>
c010f9c1:	b8 f9 ff ff ff       	mov    $0xfffffff9,%eax
c010f9c6:	e9 e2 00 00 00       	jmp    c010faad <fs_find_inode+0x107>
c010f9cb:	83 ec 0c             	sub    $0xc,%esp
c010f9ce:	ff 75 08             	pushl  0x8(%ebp)
c010f9d1:	e8 a6 27 00 00       	call   c011217c <strlen>
c010f9d6:	83 c4 10             	add    $0x10,%esp
c010f9d9:	89 45 ec             	mov    %eax,-0x14(%ebp)
c010f9dc:	c7 45 f4 00 00 00 00 	movl   $0x0,-0xc(%ebp)
c010f9e3:	c7 45 f0 00 00 00 00 	movl   $0x0,-0x10(%ebp)
c010f9ea:	8b 45 0c             	mov    0xc(%ebp),%eax
c010f9ed:	c7 00 02 00 00 00    	movl   $0x2,(%eax)
c010f9f3:	e9 9f 00 00 00       	jmp    c010fa97 <fs_find_inode+0xf1>
c010f9f8:	8b 55 f4             	mov    -0xc(%ebp),%edx
c010f9fb:	8b 45 f0             	mov    -0x10(%ebp),%eax
c010f9fe:	01 d0                	add    %edx,%eax
c010fa00:	83 c0 01             	add    $0x1,%eax
c010fa03:	89 45 f4             	mov    %eax,-0xc(%ebp)
c010fa06:	8b 55 08             	mov    0x8(%ebp),%edx
c010fa09:	8b 45 f4             	mov    -0xc(%ebp),%eax
c010fa0c:	01 d0                	add    %edx,%eax
c010fa0e:	83 ec 08             	sub    $0x8,%esp
c010fa11:	6a 2f                	push   $0x2f
c010fa13:	50                   	push   %eax
c010fa14:	e8 6f fe ff ff       	call   c010f888 <find_char>
c010fa19:	83 c4 10             	add    $0x10,%esp
c010fa1c:	89 45 f0             	mov    %eax,-0x10(%ebp)
c010fa1f:	8b 45 f0             	mov    -0x10(%ebp),%eax
c010fa22:	83 c0 01             	add    $0x1,%eax
c010fa25:	83 ec 0c             	sub    $0xc,%esp
c010fa28:	50                   	push   %eax
c010fa29:	e8 c2 ad ff ff       	call   c010a7f0 <kmalloc>
c010fa2e:	83 c4 10             	add    $0x10,%esp
c010fa31:	89 45 e8             	mov    %eax,-0x18(%ebp)
c010fa34:	8b 55 08             	mov    0x8(%ebp),%edx
c010fa37:	8b 45 f4             	mov    -0xc(%ebp),%eax
c010fa3a:	01 d0                	add    %edx,%eax
c010fa3c:	83 ec 04             	sub    $0x4,%esp
c010fa3f:	ff 75 f0             	pushl  -0x10(%ebp)
c010fa42:	50                   	push   %eax
c010fa43:	ff 75 e8             	pushl  -0x18(%ebp)
c010fa46:	e8 0b 27 00 00       	call   c0112156 <memcpy>
c010fa4b:	83 c4 10             	add    $0x10,%esp
c010fa4e:	8b 55 e8             	mov    -0x18(%ebp),%edx
c010fa51:	8b 45 f0             	mov    -0x10(%ebp),%eax
c010fa54:	01 d0                	add    %edx,%eax
c010fa56:	c6 00 00             	movb   $0x0,(%eax)
c010fa59:	8b 45 0c             	mov    0xc(%ebp),%eax
c010fa5c:	8b 00                	mov    (%eax),%eax
c010fa5e:	83 ec 04             	sub    $0x4,%esp
c010fa61:	ff 75 0c             	pushl  0xc(%ebp)
c010fa64:	ff 75 e8             	pushl  -0x18(%ebp)
c010fa67:	50                   	push   %eax
c010fa68:	e8 4b f9 ff ff       	call   c010f3b8 <dir_find_child>
c010fa6d:	83 c4 10             	add    $0x10,%esp
c010fa70:	89 45 e4             	mov    %eax,-0x1c(%ebp)
c010fa73:	83 ec 0c             	sub    $0xc,%esp
c010fa76:	ff 75 e8             	pushl  -0x18(%ebp)
c010fa79:	e8 5e ae ff ff       	call   c010a8dc <kfree>
c010fa7e:	83 c4 10             	add    $0x10,%esp
c010fa81:	83 7d e4 00          	cmpl   $0x0,-0x1c(%ebp)
c010fa85:	79 10                	jns    c010fa97 <fs_find_inode+0xf1>
c010fa87:	83 ec 0c             	sub    $0xc,%esp
c010fa8a:	ff 75 e4             	pushl  -0x1c(%ebp)
c010fa8d:	e8 ec f7 ff ff       	call   c010f27e <cvrt_err>
c010fa92:	83 c4 10             	add    $0x10,%esp
c010fa95:	eb 16                	jmp    c010faad <fs_find_inode+0x107>
c010fa97:	8b 55 f4             	mov    -0xc(%ebp),%edx
c010fa9a:	8b 45 f0             	mov    -0x10(%ebp),%eax
c010fa9d:	01 d0                	add    %edx,%eax
c010fa9f:	39 45 ec             	cmp    %eax,-0x14(%ebp)
c010faa2:	0f 87 50 ff ff ff    	ja     c010f9f8 <fs_find_inode+0x52>
c010faa8:	b8 00 00 00 00       	mov    $0x0,%eax
c010faad:	c9                   	leave  
c010faae:	c3                   	ret    

c010faaf <make_inode>:
c010faaf:	55                   	push   %ebp
c010fab0:	89 e5                	mov    %esp,%ebp
c010fab2:	83 ec 28             	sub    $0x28,%esp
c010fab5:	83 ec 0c             	sub    $0xc,%esp
c010fab8:	ff 75 08             	pushl  0x8(%ebp)
c010fabb:	e8 53 fe ff ff       	call   c010f913 <valid_path>
c010fac0:	83 c4 10             	add    $0x10,%esp
c010fac3:	83 f0 01             	xor    $0x1,%eax
c010fac6:	84 c0                	test   %al,%al
c010fac8:	74 0a                	je     c010fad4 <make_inode+0x25>
c010faca:	b8 f9 ff ff ff       	mov    $0xfffffff9,%eax
c010facf:	e9 19 01 00 00       	jmp    c010fbed <make_inode+0x13e>
c010fad4:	83 ec 08             	sub    $0x8,%esp
c010fad7:	6a 2f                	push   $0x2f
c010fad9:	ff 75 08             	pushl  0x8(%ebp)
c010fadc:	e8 e9 fd ff ff       	call   c010f8ca <find_char_rev>
c010fae1:	83 c4 10             	add    $0x10,%esp
c010fae4:	89 45 f4             	mov    %eax,-0xc(%ebp)
c010fae7:	83 7d f4 00          	cmpl   $0x0,-0xc(%ebp)
c010faeb:	75 0b                	jne    c010faf8 <make_inode+0x49>
c010faed:	8b 45 14             	mov    0x14(%ebp),%eax
c010faf0:	c7 00 02 00 00 00    	movl   $0x2,(%eax)
c010faf6:	eb 64                	jmp    c010fb5c <make_inode+0xad>
c010faf8:	8b 45 f4             	mov    -0xc(%ebp),%eax
c010fafb:	83 c0 01             	add    $0x1,%eax
c010fafe:	83 ec 0c             	sub    $0xc,%esp
c010fb01:	50                   	push   %eax
c010fb02:	e8 e9 ac ff ff       	call   c010a7f0 <kmalloc>
c010fb07:	83 c4 10             	add    $0x10,%esp
c010fb0a:	89 45 f0             	mov    %eax,-0x10(%ebp)
c010fb0d:	83 ec 04             	sub    $0x4,%esp
c010fb10:	ff 75 f4             	pushl  -0xc(%ebp)
c010fb13:	ff 75 08             	pushl  0x8(%ebp)
c010fb16:	ff 75 f0             	pushl  -0x10(%ebp)
c010fb19:	e8 38 26 00 00       	call   c0112156 <memcpy>
c010fb1e:	83 c4 10             	add    $0x10,%esp
c010fb21:	8b 55 f0             	mov    -0x10(%ebp),%edx
c010fb24:	8b 45 f4             	mov    -0xc(%ebp),%eax
c010fb27:	01 d0                	add    %edx,%eax
c010fb29:	c6 00 00             	movb   $0x0,(%eax)
c010fb2c:	83 ec 08             	sub    $0x8,%esp
c010fb2f:	ff 75 14             	pushl  0x14(%ebp)
c010fb32:	ff 75 f0             	pushl  -0x10(%ebp)
c010fb35:	e8 6c fe ff ff       	call   c010f9a6 <fs_find_inode>
c010fb3a:	83 c4 10             	add    $0x10,%esp
c010fb3d:	89 45 ec             	mov    %eax,-0x14(%ebp)
c010fb40:	83 ec 0c             	sub    $0xc,%esp
c010fb43:	ff 75 f0             	pushl  -0x10(%ebp)
c010fb46:	e8 91 ad ff ff       	call   c010a8dc <kfree>
c010fb4b:	83 c4 10             	add    $0x10,%esp
c010fb4e:	83 7d ec 00          	cmpl   $0x0,-0x14(%ebp)
c010fb52:	79 08                	jns    c010fb5c <make_inode+0xad>
c010fb54:	8b 45 ec             	mov    -0x14(%ebp),%eax
c010fb57:	e9 91 00 00 00       	jmp    c010fbed <make_inode+0x13e>
c010fb5c:	8b 45 f4             	mov    -0xc(%ebp),%eax
c010fb5f:	8d 50 01             	lea    0x1(%eax),%edx
c010fb62:	8b 45 08             	mov    0x8(%ebp),%eax
c010fb65:	01 d0                	add    %edx,%eax
c010fb67:	89 45 e8             	mov    %eax,-0x18(%ebp)
c010fb6a:	83 ec 08             	sub    $0x8,%esp
c010fb6d:	ff 75 0c             	pushl  0xc(%ebp)
c010fb70:	ff 75 10             	pushl  0x10(%ebp)
c010fb73:	e8 e8 e6 ff ff       	call   c010e260 <alloc_inode>
c010fb78:	83 c4 10             	add    $0x10,%esp
c010fb7b:	89 45 e4             	mov    %eax,-0x1c(%ebp)
c010fb7e:	83 7d e4 00          	cmpl   $0x0,-0x1c(%ebp)
c010fb82:	79 10                	jns    c010fb94 <make_inode+0xe5>
c010fb84:	83 ec 0c             	sub    $0xc,%esp
c010fb87:	ff 75 e4             	pushl  -0x1c(%ebp)
c010fb8a:	e8 ef f6 ff ff       	call   c010f27e <cvrt_err>
c010fb8f:	83 c4 10             	add    $0x10,%esp
c010fb92:	eb 59                	jmp    c010fbed <make_inode+0x13e>
c010fb94:	8b 45 10             	mov    0x10(%ebp),%eax
c010fb97:	8b 10                	mov    (%eax),%edx
c010fb99:	8b 45 14             	mov    0x14(%ebp),%eax
c010fb9c:	8b 00                	mov    (%eax),%eax
c010fb9e:	83 ec 04             	sub    $0x4,%esp
c010fba1:	52                   	push   %edx
c010fba2:	ff 75 e8             	pushl  -0x18(%ebp)
c010fba5:	50                   	push   %eax
c010fba6:	e8 fa f8 ff ff       	call   c010f4a5 <dir_add_child>
c010fbab:	83 c4 10             	add    $0x10,%esp
c010fbae:	89 45 e4             	mov    %eax,-0x1c(%ebp)
c010fbb1:	83 7d e4 00          	cmpl   $0x0,-0x1c(%ebp)
c010fbb5:	79 31                	jns    c010fbe8 <make_inode+0x139>
c010fbb7:	8b 45 10             	mov    0x10(%ebp),%eax
c010fbba:	8b 00                	mov    (%eax),%eax
c010fbbc:	83 ec 0c             	sub    $0xc,%esp
c010fbbf:	50                   	push   %eax
c010fbc0:	e8 24 e7 ff ff       	call   c010e2e9 <free_inode>
c010fbc5:	83 c4 10             	add    $0x10,%esp
c010fbc8:	89 45 e0             	mov    %eax,-0x20(%ebp)
c010fbcb:	83 7d e0 00          	cmpl   $0x0,-0x20(%ebp)
c010fbcf:	79 07                	jns    c010fbd8 <make_inode+0x129>
c010fbd1:	b8 fb ff ff ff       	mov    $0xfffffffb,%eax
c010fbd6:	eb 15                	jmp    c010fbed <make_inode+0x13e>
c010fbd8:	83 ec 0c             	sub    $0xc,%esp
c010fbdb:	ff 75 e4             	pushl  -0x1c(%ebp)
c010fbde:	e8 9b f6 ff ff       	call   c010f27e <cvrt_err>
c010fbe3:	83 c4 10             	add    $0x10,%esp
c010fbe6:	eb 05                	jmp    c010fbed <make_inode+0x13e>
c010fbe8:	b8 00 00 00 00       	mov    $0x0,%eax
c010fbed:	c9                   	leave  
c010fbee:	c3                   	ret    

c010fbef <fs_make_file>:
c010fbef:	55                   	push   %ebp
c010fbf0:	89 e5                	mov    %esp,%ebp
c010fbf2:	83 ec 18             	sub    $0x18,%esp
c010fbf5:	8d 45 f0             	lea    -0x10(%ebp),%eax
c010fbf8:	50                   	push   %eax
c010fbf9:	8d 45 f4             	lea    -0xc(%ebp),%eax
c010fbfc:	50                   	push   %eax
c010fbfd:	6a 02                	push   $0x2
c010fbff:	ff 75 08             	pushl  0x8(%ebp)
c010fc02:	e8 a8 fe ff ff       	call   c010faaf <make_inode>
c010fc07:	83 c4 10             	add    $0x10,%esp
c010fc0a:	c9                   	leave  
c010fc0b:	c3                   	ret    

c010fc0c <fs_make_dir>:
c010fc0c:	55                   	push   %ebp
c010fc0d:	89 e5                	mov    %esp,%ebp
c010fc0f:	83 ec 18             	sub    $0x18,%esp
c010fc12:	8d 45 ec             	lea    -0x14(%ebp),%eax
c010fc15:	50                   	push   %eax
c010fc16:	8d 45 f0             	lea    -0x10(%ebp),%eax
c010fc19:	50                   	push   %eax
c010fc1a:	6a 01                	push   $0x1
c010fc1c:	ff 75 08             	pushl  0x8(%ebp)
c010fc1f:	e8 8b fe ff ff       	call   c010faaf <make_inode>
c010fc24:	83 c4 10             	add    $0x10,%esp
c010fc27:	89 45 f4             	mov    %eax,-0xc(%ebp)
c010fc2a:	83 7d f4 00          	cmpl   $0x0,-0xc(%ebp)
c010fc2e:	79 05                	jns    c010fc35 <fs_make_dir+0x29>
c010fc30:	8b 45 f4             	mov    -0xc(%ebp),%eax
c010fc33:	eb 51                	jmp    c010fc86 <fs_make_dir+0x7a>
c010fc35:	8b 55 f0             	mov    -0x10(%ebp),%edx
c010fc38:	8b 45 f0             	mov    -0x10(%ebp),%eax
c010fc3b:	83 ec 04             	sub    $0x4,%esp
c010fc3e:	52                   	push   %edx
c010fc3f:	68 3a 37 11 c0       	push   $0xc011373a
c010fc44:	50                   	push   %eax
c010fc45:	e8 5b f8 ff ff       	call   c010f4a5 <dir_add_child>
c010fc4a:	83 c4 10             	add    $0x10,%esp
c010fc4d:	89 45 f4             	mov    %eax,-0xc(%ebp)
c010fc50:	83 7d f4 00          	cmpl   $0x0,-0xc(%ebp)
c010fc54:	79 05                	jns    c010fc5b <fs_make_dir+0x4f>
c010fc56:	8b 45 f4             	mov    -0xc(%ebp),%eax
c010fc59:	eb 2b                	jmp    c010fc86 <fs_make_dir+0x7a>
c010fc5b:	8b 55 ec             	mov    -0x14(%ebp),%edx
c010fc5e:	8b 45 f0             	mov    -0x10(%ebp),%eax
c010fc61:	83 ec 04             	sub    $0x4,%esp
c010fc64:	52                   	push   %edx
c010fc65:	68 3c 37 11 c0       	push   $0xc011373c
c010fc6a:	50                   	push   %eax
c010fc6b:	e8 35 f8 ff ff       	call   c010f4a5 <dir_add_child>
c010fc70:	83 c4 10             	add    $0x10,%esp
c010fc73:	89 45 f4             	mov    %eax,-0xc(%ebp)
c010fc76:	83 7d f4 00          	cmpl   $0x0,-0xc(%ebp)
c010fc7a:	79 05                	jns    c010fc81 <fs_make_dir+0x75>
c010fc7c:	8b 45 f4             	mov    -0xc(%ebp),%eax
c010fc7f:	eb 05                	jmp    c010fc86 <fs_make_dir+0x7a>
c010fc81:	b8 00 00 00 00       	mov    $0x0,%eax
c010fc86:	c9                   	leave  
c010fc87:	c3                   	ret    

c010fc88 <rem_inode>:
c010fc88:	55                   	push   %ebp
c010fc89:	89 e5                	mov    %esp,%ebp
c010fc8b:	83 ec 38             	sub    $0x38,%esp
c010fc8e:	83 ec 0c             	sub    $0xc,%esp
c010fc91:	ff 75 08             	pushl  0x8(%ebp)
c010fc94:	e8 7a fc ff ff       	call   c010f913 <valid_path>
c010fc99:	83 c4 10             	add    $0x10,%esp
c010fc9c:	83 f0 01             	xor    $0x1,%eax
c010fc9f:	84 c0                	test   %al,%al
c010fca1:	74 0a                	je     c010fcad <rem_inode+0x25>
c010fca3:	b8 f9 ff ff ff       	mov    $0xfffffff9,%eax
c010fca8:	e9 32 02 00 00       	jmp    c010fedf <rem_inode+0x257>
c010fcad:	83 ec 08             	sub    $0x8,%esp
c010fcb0:	6a 2f                	push   $0x2f
c010fcb2:	ff 75 08             	pushl  0x8(%ebp)
c010fcb5:	e8 10 fc ff ff       	call   c010f8ca <find_char_rev>
c010fcba:	83 c4 10             	add    $0x10,%esp
c010fcbd:	89 45 f4             	mov    %eax,-0xc(%ebp)
c010fcc0:	83 7d f4 00          	cmpl   $0x0,-0xc(%ebp)
c010fcc4:	75 09                	jne    c010fccf <rem_inode+0x47>
c010fcc6:	c7 45 e0 02 00 00 00 	movl   $0x2,-0x20(%ebp)
c010fccd:	eb 65                	jmp    c010fd34 <rem_inode+0xac>
c010fccf:	8b 45 f4             	mov    -0xc(%ebp),%eax
c010fcd2:	83 c0 01             	add    $0x1,%eax
c010fcd5:	83 ec 0c             	sub    $0xc,%esp
c010fcd8:	50                   	push   %eax
c010fcd9:	e8 12 ab ff ff       	call   c010a7f0 <kmalloc>
c010fcde:	83 c4 10             	add    $0x10,%esp
c010fce1:	89 45 f0             	mov    %eax,-0x10(%ebp)
c010fce4:	83 ec 04             	sub    $0x4,%esp
c010fce7:	ff 75 f4             	pushl  -0xc(%ebp)
c010fcea:	ff 75 08             	pushl  0x8(%ebp)
c010fced:	ff 75 f0             	pushl  -0x10(%ebp)
c010fcf0:	e8 61 24 00 00       	call   c0112156 <memcpy>
c010fcf5:	83 c4 10             	add    $0x10,%esp
c010fcf8:	8b 55 f0             	mov    -0x10(%ebp),%edx
c010fcfb:	8b 45 f4             	mov    -0xc(%ebp),%eax
c010fcfe:	01 d0                	add    %edx,%eax
c010fd00:	c6 00 00             	movb   $0x0,(%eax)
c010fd03:	83 ec 08             	sub    $0x8,%esp
c010fd06:	8d 45 e0             	lea    -0x20(%ebp),%eax
c010fd09:	50                   	push   %eax
c010fd0a:	ff 75 f0             	pushl  -0x10(%ebp)
c010fd0d:	e8 94 fc ff ff       	call   c010f9a6 <fs_find_inode>
c010fd12:	83 c4 10             	add    $0x10,%esp
c010fd15:	89 45 ec             	mov    %eax,-0x14(%ebp)
c010fd18:	83 ec 0c             	sub    $0xc,%esp
c010fd1b:	ff 75 f0             	pushl  -0x10(%ebp)
c010fd1e:	e8 b9 ab ff ff       	call   c010a8dc <kfree>
c010fd23:	83 c4 10             	add    $0x10,%esp
c010fd26:	83 7d ec 00          	cmpl   $0x0,-0x14(%ebp)
c010fd2a:	79 08                	jns    c010fd34 <rem_inode+0xac>
c010fd2c:	8b 45 ec             	mov    -0x14(%ebp),%eax
c010fd2f:	e9 ab 01 00 00       	jmp    c010fedf <rem_inode+0x257>
c010fd34:	8b 45 f4             	mov    -0xc(%ebp),%eax
c010fd37:	8d 50 01             	lea    0x1(%eax),%edx
c010fd3a:	8b 45 08             	mov    0x8(%ebp),%eax
c010fd3d:	01 d0                	add    %edx,%eax
c010fd3f:	89 45 e8             	mov    %eax,-0x18(%ebp)
c010fd42:	8b 45 e0             	mov    -0x20(%ebp),%eax
c010fd45:	83 ec 04             	sub    $0x4,%esp
c010fd48:	8d 55 dc             	lea    -0x24(%ebp),%edx
c010fd4b:	52                   	push   %edx
c010fd4c:	ff 75 e8             	pushl  -0x18(%ebp)
c010fd4f:	50                   	push   %eax
c010fd50:	e8 63 f6 ff ff       	call   c010f3b8 <dir_find_child>
c010fd55:	83 c4 10             	add    $0x10,%esp
c010fd58:	89 45 e4             	mov    %eax,-0x1c(%ebp)
c010fd5b:	83 7d e4 00          	cmpl   $0x0,-0x1c(%ebp)
c010fd5f:	79 08                	jns    c010fd69 <rem_inode+0xe1>
c010fd61:	8b 45 e4             	mov    -0x1c(%ebp),%eax
c010fd64:	e9 76 01 00 00       	jmp    c010fedf <rem_inode+0x257>
c010fd69:	8b 45 dc             	mov    -0x24(%ebp),%eax
c010fd6c:	83 ec 08             	sub    $0x8,%esp
c010fd6f:	8d 55 d8             	lea    -0x28(%ebp),%edx
c010fd72:	52                   	push   %edx
c010fd73:	50                   	push   %eax
c010fd74:	e8 98 cc ff ff       	call   c010ca11 <get_inode_type>
c010fd79:	83 c4 10             	add    $0x10,%esp
c010fd7c:	89 45 e4             	mov    %eax,-0x1c(%ebp)
c010fd7f:	83 7d e4 00          	cmpl   $0x0,-0x1c(%ebp)
c010fd83:	79 13                	jns    c010fd98 <rem_inode+0x110>
c010fd85:	83 ec 0c             	sub    $0xc,%esp
c010fd88:	ff 75 e4             	pushl  -0x1c(%ebp)
c010fd8b:	e8 ee f4 ff ff       	call   c010f27e <cvrt_err>
c010fd90:	83 c4 10             	add    $0x10,%esp
c010fd93:	e9 47 01 00 00       	jmp    c010fedf <rem_inode+0x257>
c010fd98:	8b 45 d8             	mov    -0x28(%ebp),%eax
c010fd9b:	83 ec 0c             	sub    $0xc,%esp
c010fd9e:	50                   	push   %eax
c010fd9f:	e8 22 f5 ff ff       	call   c010f2c6 <cvrt_inode_type>
c010fda4:	83 c4 10             	add    $0x10,%esp
c010fda7:	89 45 d8             	mov    %eax,-0x28(%ebp)
c010fdaa:	8b 45 d8             	mov    -0x28(%ebp),%eax
c010fdad:	39 45 0c             	cmp    %eax,0xc(%ebp)
c010fdb0:	74 0a                	je     c010fdbc <rem_inode+0x134>
c010fdb2:	b8 fa ff ff ff       	mov    $0xfffffffa,%eax
c010fdb7:	e9 23 01 00 00       	jmp    c010fedf <rem_inode+0x257>
c010fdbc:	83 7d 0c 01          	cmpl   $0x1,0xc(%ebp)
c010fdc0:	0f 85 a2 00 00 00    	jne    c010fe68 <rem_inode+0x1e0>
c010fdc6:	8b 45 dc             	mov    -0x24(%ebp),%eax
c010fdc9:	83 ec 08             	sub    $0x8,%esp
c010fdcc:	8d 55 d4             	lea    -0x2c(%ebp),%edx
c010fdcf:	52                   	push   %edx
c010fdd0:	50                   	push   %eax
c010fdd1:	e8 87 dd ff ff       	call   c010db5d <read_dir>
c010fdd6:	83 c4 10             	add    $0x10,%esp
c010fdd9:	89 45 e4             	mov    %eax,-0x1c(%ebp)
c010fddc:	83 7d e4 00          	cmpl   $0x0,-0x1c(%ebp)
c010fde0:	79 22                	jns    c010fe04 <rem_inode+0x17c>
c010fde2:	8b 45 d4             	mov    -0x2c(%ebp),%eax
c010fde5:	83 ec 0c             	sub    $0xc,%esp
c010fde8:	50                   	push   %eax
c010fde9:	e8 0f f5 ff ff       	call   c010f2fd <free_ext2_entr>
c010fdee:	83 c4 10             	add    $0x10,%esp
c010fdf1:	83 ec 0c             	sub    $0xc,%esp
c010fdf4:	ff 75 e4             	pushl  -0x1c(%ebp)
c010fdf7:	e8 82 f4 ff ff       	call   c010f27e <cvrt_err>
c010fdfc:	83 c4 10             	add    $0x10,%esp
c010fdff:	e9 db 00 00 00       	jmp    c010fedf <rem_inode+0x257>
c010fe04:	8b 45 d4             	mov    -0x2c(%ebp),%eax
c010fe07:	83 ec 0c             	sub    $0xc,%esp
c010fe0a:	50                   	push   %eax
c010fe0b:	e8 40 f5 ff ff       	call   c010f350 <valid_ext2_dir>
c010fe10:	83 c4 10             	add    $0x10,%esp
c010fe13:	83 f0 01             	xor    $0x1,%eax
c010fe16:	84 c0                	test   %al,%al
c010fe18:	74 19                	je     c010fe33 <rem_inode+0x1ab>
c010fe1a:	8b 45 d4             	mov    -0x2c(%ebp),%eax
c010fe1d:	83 ec 0c             	sub    $0xc,%esp
c010fe20:	50                   	push   %eax
c010fe21:	e8 d7 f4 ff ff       	call   c010f2fd <free_ext2_entr>
c010fe26:	83 c4 10             	add    $0x10,%esp
c010fe29:	b8 fb ff ff ff       	mov    $0xfffffffb,%eax
c010fe2e:	e9 ac 00 00 00       	jmp    c010fedf <rem_inode+0x257>
c010fe33:	8b 45 d4             	mov    -0x2c(%ebp),%eax
c010fe36:	8b 40 0c             	mov    0xc(%eax),%eax
c010fe39:	8b 40 0c             	mov    0xc(%eax),%eax
c010fe3c:	85 c0                	test   %eax,%eax
c010fe3e:	74 19                	je     c010fe59 <rem_inode+0x1d1>
c010fe40:	8b 45 d4             	mov    -0x2c(%ebp),%eax
c010fe43:	83 ec 0c             	sub    $0xc,%esp
c010fe46:	50                   	push   %eax
c010fe47:	e8 b1 f4 ff ff       	call   c010f2fd <free_ext2_entr>
c010fe4c:	83 c4 10             	add    $0x10,%esp
c010fe4f:	b8 f8 ff ff ff       	mov    $0xfffffff8,%eax
c010fe54:	e9 86 00 00 00       	jmp    c010fedf <rem_inode+0x257>
c010fe59:	8b 45 d4             	mov    -0x2c(%ebp),%eax
c010fe5c:	83 ec 0c             	sub    $0xc,%esp
c010fe5f:	50                   	push   %eax
c010fe60:	e8 98 f4 ff ff       	call   c010f2fd <free_ext2_entr>
c010fe65:	83 c4 10             	add    $0x10,%esp
c010fe68:	8b 45 e0             	mov    -0x20(%ebp),%eax
c010fe6b:	83 ec 08             	sub    $0x8,%esp
c010fe6e:	ff 75 e8             	pushl  -0x18(%ebp)
c010fe71:	50                   	push   %eax
c010fe72:	e8 83 f7 ff ff       	call   c010f5fa <dir_rem_child>
c010fe77:	83 c4 10             	add    $0x10,%esp
c010fe7a:	89 45 e4             	mov    %eax,-0x1c(%ebp)
c010fe7d:	83 7d e4 00          	cmpl   $0x0,-0x1c(%ebp)
c010fe81:	79 05                	jns    c010fe88 <rem_inode+0x200>
c010fe83:	8b 45 e4             	mov    -0x1c(%ebp),%eax
c010fe86:	eb 57                	jmp    c010fedf <rem_inode+0x257>
c010fe88:	8b 45 dc             	mov    -0x24(%ebp),%eax
c010fe8b:	83 ec 08             	sub    $0x8,%esp
c010fe8e:	6a 00                	push   $0x0
c010fe90:	50                   	push   %eax
c010fe91:	e8 01 ea ff ff       	call   c010e897 <resize_inode>
c010fe96:	83 c4 10             	add    $0x10,%esp
c010fe99:	89 45 e4             	mov    %eax,-0x1c(%ebp)
c010fe9c:	83 7d e4 00          	cmpl   $0x0,-0x1c(%ebp)
c010fea0:	79 10                	jns    c010feb2 <rem_inode+0x22a>
c010fea2:	83 ec 0c             	sub    $0xc,%esp
c010fea5:	ff 75 e4             	pushl  -0x1c(%ebp)
c010fea8:	e8 d1 f3 ff ff       	call   c010f27e <cvrt_err>
c010fead:	83 c4 10             	add    $0x10,%esp
c010feb0:	eb 2d                	jmp    c010fedf <rem_inode+0x257>
c010feb2:	8b 45 dc             	mov    -0x24(%ebp),%eax
c010feb5:	83 ec 0c             	sub    $0xc,%esp
c010feb8:	50                   	push   %eax
c010feb9:	e8 2b e4 ff ff       	call   c010e2e9 <free_inode>
c010febe:	83 c4 10             	add    $0x10,%esp
c010fec1:	89 45 e4             	mov    %eax,-0x1c(%ebp)
c010fec4:	83 7d e4 00          	cmpl   $0x0,-0x1c(%ebp)
c010fec8:	79 10                	jns    c010feda <rem_inode+0x252>
c010feca:	83 ec 0c             	sub    $0xc,%esp
c010fecd:	ff 75 e4             	pushl  -0x1c(%ebp)
c010fed0:	e8 a9 f3 ff ff       	call   c010f27e <cvrt_err>
c010fed5:	83 c4 10             	add    $0x10,%esp
c010fed8:	eb 05                	jmp    c010fedf <rem_inode+0x257>
c010feda:	b8 00 00 00 00       	mov    $0x0,%eax
c010fedf:	c9                   	leave  
c010fee0:	c3                   	ret    

c010fee1 <fs_rem_file>:
c010fee1:	55                   	push   %ebp
c010fee2:	89 e5                	mov    %esp,%ebp
c010fee4:	83 ec 08             	sub    $0x8,%esp
c010fee7:	83 ec 08             	sub    $0x8,%esp
c010feea:	6a 02                	push   $0x2
c010feec:	ff 75 08             	pushl  0x8(%ebp)
c010feef:	e8 94 fd ff ff       	call   c010fc88 <rem_inode>
c010fef4:	83 c4 10             	add    $0x10,%esp
c010fef7:	c9                   	leave  
c010fef8:	c3                   	ret    

c010fef9 <fs_rem_dir>:
c010fef9:	55                   	push   %ebp
c010fefa:	89 e5                	mov    %esp,%ebp
c010fefc:	83 ec 08             	sub    $0x8,%esp
c010feff:	83 ec 08             	sub    $0x8,%esp
c010ff02:	6a 01                	push   $0x1
c010ff04:	ff 75 08             	pushl  0x8(%ebp)
c010ff07:	e8 7c fd ff ff       	call   c010fc88 <rem_inode>
c010ff0c:	83 c4 10             	add    $0x10,%esp
c010ff0f:	c9                   	leave  
c010ff10:	c3                   	ret    

c010ff11 <fs_read_file>:
c010ff11:	55                   	push   %ebp
c010ff12:	89 e5                	mov    %esp,%ebp
c010ff14:	83 ec 18             	sub    $0x18,%esp
c010ff17:	83 ec 08             	sub    $0x8,%esp
c010ff1a:	8d 45 f0             	lea    -0x10(%ebp),%eax
c010ff1d:	50                   	push   %eax
c010ff1e:	ff 75 08             	pushl  0x8(%ebp)
c010ff21:	e8 eb ca ff ff       	call   c010ca11 <get_inode_type>
c010ff26:	83 c4 10             	add    $0x10,%esp
c010ff29:	89 45 f4             	mov    %eax,-0xc(%ebp)
c010ff2c:	83 7d f4 00          	cmpl   $0x0,-0xc(%ebp)
c010ff30:	79 10                	jns    c010ff42 <fs_read_file+0x31>
c010ff32:	83 ec 0c             	sub    $0xc,%esp
c010ff35:	ff 75 f4             	pushl  -0xc(%ebp)
c010ff38:	e8 41 f3 ff ff       	call   c010f27e <cvrt_err>
c010ff3d:	83 c4 10             	add    $0x10,%esp
c010ff40:	eb 41                	jmp    c010ff83 <fs_read_file+0x72>
c010ff42:	8b 45 f0             	mov    -0x10(%ebp),%eax
c010ff45:	83 f8 01             	cmp    $0x1,%eax
c010ff48:	74 07                	je     c010ff51 <fs_read_file+0x40>
c010ff4a:	b8 fa ff ff ff       	mov    $0xfffffffa,%eax
c010ff4f:	eb 32                	jmp    c010ff83 <fs_read_file+0x72>
c010ff51:	ff 75 14             	pushl  0x14(%ebp)
c010ff54:	ff 75 10             	pushl  0x10(%ebp)
c010ff57:	ff 75 0c             	pushl  0xc(%ebp)
c010ff5a:	ff 75 08             	pushl  0x8(%ebp)
c010ff5d:	e8 da d9 ff ff       	call   c010d93c <read_inode>
c010ff62:	83 c4 10             	add    $0x10,%esp
c010ff65:	89 45 f4             	mov    %eax,-0xc(%ebp)
c010ff68:	83 7d f4 00          	cmpl   $0x0,-0xc(%ebp)
c010ff6c:	79 10                	jns    c010ff7e <fs_read_file+0x6d>
c010ff6e:	83 ec 0c             	sub    $0xc,%esp
c010ff71:	ff 75 f4             	pushl  -0xc(%ebp)
c010ff74:	e8 05 f3 ff ff       	call   c010f27e <cvrt_err>
c010ff79:	83 c4 10             	add    $0x10,%esp
c010ff7c:	eb 05                	jmp    c010ff83 <fs_read_file+0x72>
c010ff7e:	b8 00 00 00 00       	mov    $0x0,%eax
c010ff83:	c9                   	leave  
c010ff84:	c3                   	ret    

c010ff85 <fs_write_file>:
c010ff85:	55                   	push   %ebp
c010ff86:	89 e5                	mov    %esp,%ebp
c010ff88:	83 ec 18             	sub    $0x18,%esp
c010ff8b:	83 ec 08             	sub    $0x8,%esp
c010ff8e:	8d 45 f0             	lea    -0x10(%ebp),%eax
c010ff91:	50                   	push   %eax
c010ff92:	ff 75 08             	pushl  0x8(%ebp)
c010ff95:	e8 77 ca ff ff       	call   c010ca11 <get_inode_type>
c010ff9a:	83 c4 10             	add    $0x10,%esp
c010ff9d:	89 45 f4             	mov    %eax,-0xc(%ebp)
c010ffa0:	83 7d f4 00          	cmpl   $0x0,-0xc(%ebp)
c010ffa4:	79 13                	jns    c010ffb9 <fs_write_file+0x34>
c010ffa6:	83 ec 0c             	sub    $0xc,%esp
c010ffa9:	ff 75 f4             	pushl  -0xc(%ebp)
c010ffac:	e8 cd f2 ff ff       	call   c010f27e <cvrt_err>
c010ffb1:	83 c4 10             	add    $0x10,%esp
c010ffb4:	e9 ae 00 00 00       	jmp    c0110067 <fs_write_file+0xe2>
c010ffb9:	8b 45 f0             	mov    -0x10(%ebp),%eax
c010ffbc:	83 f8 01             	cmp    $0x1,%eax
c010ffbf:	74 0a                	je     c010ffcb <fs_write_file+0x46>
c010ffc1:	b8 fa ff ff ff       	mov    $0xfffffffa,%eax
c010ffc6:	e9 9c 00 00 00       	jmp    c0110067 <fs_write_file+0xe2>
c010ffcb:	83 ec 08             	sub    $0x8,%esp
c010ffce:	8d 45 ec             	lea    -0x14(%ebp),%eax
c010ffd1:	50                   	push   %eax
c010ffd2:	ff 75 08             	pushl  0x8(%ebp)
c010ffd5:	e8 9a ca ff ff       	call   c010ca74 <get_inode_fsize>
c010ffda:	83 c4 10             	add    $0x10,%esp
c010ffdd:	89 45 f4             	mov    %eax,-0xc(%ebp)
c010ffe0:	83 7d f4 00          	cmpl   $0x0,-0xc(%ebp)
c010ffe4:	79 10                	jns    c010fff6 <fs_write_file+0x71>
c010ffe6:	83 ec 0c             	sub    $0xc,%esp
c010ffe9:	ff 75 f4             	pushl  -0xc(%ebp)
c010ffec:	e8 8d f2 ff ff       	call   c010f27e <cvrt_err>
c010fff1:	83 c4 10             	add    $0x10,%esp
c010fff4:	eb 71                	jmp    c0110067 <fs_write_file+0xe2>
c010fff6:	8b 55 0c             	mov    0xc(%ebp),%edx
c010fff9:	8b 45 10             	mov    0x10(%ebp),%eax
c010fffc:	01 c2                	add    %eax,%edx
c010fffe:	8b 45 ec             	mov    -0x14(%ebp),%eax
c0110001:	39 c2                	cmp    %eax,%edx
c0110003:	76 30                	jbe    c0110035 <fs_write_file+0xb0>
c0110005:	8b 55 0c             	mov    0xc(%ebp),%edx
c0110008:	8b 45 10             	mov    0x10(%ebp),%eax
c011000b:	01 d0                	add    %edx,%eax
c011000d:	83 ec 08             	sub    $0x8,%esp
c0110010:	50                   	push   %eax
c0110011:	ff 75 08             	pushl  0x8(%ebp)
c0110014:	e8 7e e8 ff ff       	call   c010e897 <resize_inode>
c0110019:	83 c4 10             	add    $0x10,%esp
c011001c:	89 45 f4             	mov    %eax,-0xc(%ebp)
c011001f:	83 7d f4 00          	cmpl   $0x0,-0xc(%ebp)
c0110023:	79 10                	jns    c0110035 <fs_write_file+0xb0>
c0110025:	83 ec 0c             	sub    $0xc,%esp
c0110028:	ff 75 f4             	pushl  -0xc(%ebp)
c011002b:	e8 4e f2 ff ff       	call   c010f27e <cvrt_err>
c0110030:	83 c4 10             	add    $0x10,%esp
c0110033:	eb 32                	jmp    c0110067 <fs_write_file+0xe2>
c0110035:	ff 75 14             	pushl  0x14(%ebp)
c0110038:	ff 75 10             	pushl  0x10(%ebp)
c011003b:	ff 75 0c             	pushl  0xc(%ebp)
c011003e:	ff 75 08             	pushl  0x8(%ebp)
c0110041:	e8 d5 d6 ff ff       	call   c010d71b <write_inode>
c0110046:	83 c4 10             	add    $0x10,%esp
c0110049:	89 45 f4             	mov    %eax,-0xc(%ebp)
c011004c:	83 7d f4 00          	cmpl   $0x0,-0xc(%ebp)
c0110050:	79 10                	jns    c0110062 <fs_write_file+0xdd>
c0110052:	83 ec 0c             	sub    $0xc,%esp
c0110055:	ff 75 f4             	pushl  -0xc(%ebp)
c0110058:	e8 21 f2 ff ff       	call   c010f27e <cvrt_err>
c011005d:	83 c4 10             	add    $0x10,%esp
c0110060:	eb 05                	jmp    c0110067 <fs_write_file+0xe2>
c0110062:	b8 00 00 00 00       	mov    $0x0,%eax
c0110067:	c9                   	leave  
c0110068:	c3                   	ret    

c0110069 <fs_resize_file>:
c0110069:	55                   	push   %ebp
c011006a:	89 e5                	mov    %esp,%ebp
c011006c:	83 ec 18             	sub    $0x18,%esp
c011006f:	83 ec 08             	sub    $0x8,%esp
c0110072:	8d 45 f0             	lea    -0x10(%ebp),%eax
c0110075:	50                   	push   %eax
c0110076:	ff 75 08             	pushl  0x8(%ebp)
c0110079:	e8 93 c9 ff ff       	call   c010ca11 <get_inode_type>
c011007e:	83 c4 10             	add    $0x10,%esp
c0110081:	89 45 f4             	mov    %eax,-0xc(%ebp)
c0110084:	83 7d f4 00          	cmpl   $0x0,-0xc(%ebp)
c0110088:	79 10                	jns    c011009a <fs_resize_file+0x31>
c011008a:	83 ec 0c             	sub    $0xc,%esp
c011008d:	ff 75 f4             	pushl  -0xc(%ebp)
c0110090:	e8 e9 f1 ff ff       	call   c010f27e <cvrt_err>
c0110095:	83 c4 10             	add    $0x10,%esp
c0110098:	eb 3e                	jmp    c01100d8 <fs_resize_file+0x6f>
c011009a:	8b 45 f0             	mov    -0x10(%ebp),%eax
c011009d:	83 f8 01             	cmp    $0x1,%eax
c01100a0:	74 07                	je     c01100a9 <fs_resize_file+0x40>
c01100a2:	b8 fa ff ff ff       	mov    $0xfffffffa,%eax
c01100a7:	eb 2f                	jmp    c01100d8 <fs_resize_file+0x6f>
c01100a9:	83 ec 08             	sub    $0x8,%esp
c01100ac:	ff 75 0c             	pushl  0xc(%ebp)
c01100af:	ff 75 08             	pushl  0x8(%ebp)
c01100b2:	e8 e0 e7 ff ff       	call   c010e897 <resize_inode>
c01100b7:	83 c4 10             	add    $0x10,%esp
c01100ba:	89 45 f4             	mov    %eax,-0xc(%ebp)
c01100bd:	83 7d f4 00          	cmpl   $0x0,-0xc(%ebp)
c01100c1:	79 10                	jns    c01100d3 <fs_resize_file+0x6a>
c01100c3:	83 ec 0c             	sub    $0xc,%esp
c01100c6:	ff 75 f4             	pushl  -0xc(%ebp)
c01100c9:	e8 b0 f1 ff ff       	call   c010f27e <cvrt_err>
c01100ce:	83 c4 10             	add    $0x10,%esp
c01100d1:	eb 05                	jmp    c01100d8 <fs_resize_file+0x6f>
c01100d3:	b8 00 00 00 00       	mov    $0x0,%eax
c01100d8:	c9                   	leave  
c01100d9:	c3                   	ret    

c01100da <fs_file_size>:
c01100da:	55                   	push   %ebp
c01100db:	89 e5                	mov    %esp,%ebp
c01100dd:	83 ec 18             	sub    $0x18,%esp
c01100e0:	83 ec 08             	sub    $0x8,%esp
c01100e3:	8d 45 f0             	lea    -0x10(%ebp),%eax
c01100e6:	50                   	push   %eax
c01100e7:	ff 75 08             	pushl  0x8(%ebp)
c01100ea:	e8 22 c9 ff ff       	call   c010ca11 <get_inode_type>
c01100ef:	83 c4 10             	add    $0x10,%esp
c01100f2:	89 45 f4             	mov    %eax,-0xc(%ebp)
c01100f5:	83 7d f4 00          	cmpl   $0x0,-0xc(%ebp)
c01100f9:	79 10                	jns    c011010b <fs_file_size+0x31>
c01100fb:	83 ec 0c             	sub    $0xc,%esp
c01100fe:	ff 75 f4             	pushl  -0xc(%ebp)
c0110101:	e8 78 f1 ff ff       	call   c010f27e <cvrt_err>
c0110106:	83 c4 10             	add    $0x10,%esp
c0110109:	eb 3e                	jmp    c0110149 <fs_file_size+0x6f>
c011010b:	8b 45 f0             	mov    -0x10(%ebp),%eax
c011010e:	83 f8 01             	cmp    $0x1,%eax
c0110111:	74 07                	je     c011011a <fs_file_size+0x40>
c0110113:	b8 fa ff ff ff       	mov    $0xfffffffa,%eax
c0110118:	eb 2f                	jmp    c0110149 <fs_file_size+0x6f>
c011011a:	83 ec 08             	sub    $0x8,%esp
c011011d:	ff 75 0c             	pushl  0xc(%ebp)
c0110120:	ff 75 08             	pushl  0x8(%ebp)
c0110123:	e8 4c c9 ff ff       	call   c010ca74 <get_inode_fsize>
c0110128:	83 c4 10             	add    $0x10,%esp
c011012b:	89 45 f4             	mov    %eax,-0xc(%ebp)
c011012e:	83 7d f4 00          	cmpl   $0x0,-0xc(%ebp)
c0110132:	79 10                	jns    c0110144 <fs_file_size+0x6a>
c0110134:	83 ec 0c             	sub    $0xc,%esp
c0110137:	ff 75 f4             	pushl  -0xc(%ebp)
c011013a:	e8 3f f1 ff ff       	call   c010f27e <cvrt_err>
c011013f:	83 c4 10             	add    $0x10,%esp
c0110142:	eb 05                	jmp    c0110149 <fs_file_size+0x6f>
c0110144:	b8 00 00 00 00       	mov    $0x0,%eax
c0110149:	c9                   	leave  
c011014a:	c3                   	ret    

c011014b <fs_inode_type>:
c011014b:	55                   	push   %ebp
c011014c:	89 e5                	mov    %esp,%ebp
c011014e:	83 ec 18             	sub    $0x18,%esp
c0110151:	83 ec 08             	sub    $0x8,%esp
c0110154:	ff 75 0c             	pushl  0xc(%ebp)
c0110157:	ff 75 08             	pushl  0x8(%ebp)
c011015a:	e8 b2 c8 ff ff       	call   c010ca11 <get_inode_type>
c011015f:	83 c4 10             	add    $0x10,%esp
c0110162:	89 45 f4             	mov    %eax,-0xc(%ebp)
c0110165:	83 7d f4 00          	cmpl   $0x0,-0xc(%ebp)
c0110169:	79 10                	jns    c011017b <fs_inode_type+0x30>
c011016b:	83 ec 0c             	sub    $0xc,%esp
c011016e:	ff 75 f4             	pushl  -0xc(%ebp)
c0110171:	e8 08 f1 ff ff       	call   c010f27e <cvrt_err>
c0110176:	83 c4 10             	add    $0x10,%esp
c0110179:	eb 1b                	jmp    c0110196 <fs_inode_type+0x4b>
c011017b:	8b 45 0c             	mov    0xc(%ebp),%eax
c011017e:	8b 00                	mov    (%eax),%eax
c0110180:	83 ec 0c             	sub    $0xc,%esp
c0110183:	50                   	push   %eax
c0110184:	e8 3d f1 ff ff       	call   c010f2c6 <cvrt_inode_type>
c0110189:	83 c4 10             	add    $0x10,%esp
c011018c:	8b 55 0c             	mov    0xc(%ebp),%edx
c011018f:	89 02                	mov    %eax,(%edx)
c0110191:	b8 00 00 00 00       	mov    $0x0,%eax
c0110196:	c9                   	leave  
c0110197:	c3                   	ret    

c0110198 <init_fs>:
c0110198:	55                   	push   %ebp
c0110199:	89 e5                	mov    %esp,%ebp
c011019b:	83 ec 18             	sub    $0x18,%esp
c011019e:	e8 3d c8 ff ff       	call   c010c9e0 <init_ext2>
c01101a3:	89 45 f4             	mov    %eax,-0xc(%ebp)
c01101a6:	83 7d f4 00          	cmpl   $0x0,-0xc(%ebp)
c01101aa:	79 10                	jns    c01101bc <init_fs+0x24>
c01101ac:	83 ec 0c             	sub    $0xc,%esp
c01101af:	ff 75 f4             	pushl  -0xc(%ebp)
c01101b2:	e8 c7 f0 ff ff       	call   c010f27e <cvrt_err>
c01101b7:	83 c4 10             	add    $0x10,%esp
c01101ba:	eb 05                	jmp    c01101c1 <init_fs+0x29>
c01101bc:	b8 00 00 00 00       	mov    $0x0,%eax
c01101c1:	c9                   	leave  
c01101c2:	c3                   	ret    

c01101c3 <fd_copy>:
c01101c3:	55                   	push   %ebp
c01101c4:	89 e5                	mov    %esp,%ebp
c01101c6:	83 ec 18             	sub    $0x18,%esp
c01101c9:	83 ec 0c             	sub    $0xc,%esp
c01101cc:	6a 14                	push   $0x14
c01101ce:	e8 1d a6 ff ff       	call   c010a7f0 <kmalloc>
c01101d3:	83 c4 10             	add    $0x10,%esp
c01101d6:	89 45 f4             	mov    %eax,-0xc(%ebp)
c01101d9:	e8 5c c1 ff ff       	call   c010c33a <kql_create>
c01101de:	8b 55 f4             	mov    -0xc(%ebp),%edx
c01101e1:	89 02                	mov    %eax,(%edx)
c01101e3:	8b 45 08             	mov    0x8(%ebp),%eax
c01101e6:	8b 50 04             	mov    0x4(%eax),%edx
c01101e9:	8b 45 f4             	mov    -0xc(%ebp),%eax
c01101ec:	89 50 04             	mov    %edx,0x4(%eax)
c01101ef:	8b 45 08             	mov    0x8(%ebp),%eax
c01101f2:	0f b6 50 08          	movzbl 0x8(%eax),%edx
c01101f6:	8b 45 f4             	mov    -0xc(%ebp),%eax
c01101f9:	88 50 08             	mov    %dl,0x8(%eax)
c01101fc:	8b 45 08             	mov    0x8(%ebp),%eax
c01101ff:	8b 40 04             	mov    0x4(%eax),%eax
c0110202:	83 f8 04             	cmp    $0x4,%eax
c0110205:	74 33                	je     c011023a <fd_copy+0x77>
c0110207:	83 f8 04             	cmp    $0x4,%eax
c011020a:	77 58                	ja     c0110264 <fd_copy+0xa1>
c011020c:	83 f8 03             	cmp    $0x3,%eax
c011020f:	74 45                	je     c0110256 <fd_copy+0x93>
c0110211:	83 f8 03             	cmp    $0x3,%eax
c0110214:	77 4e                	ja     c0110264 <fd_copy+0xa1>
c0110216:	83 f8 01             	cmp    $0x1,%eax
c0110219:	74 2d                	je     c0110248 <fd_copy+0x85>
c011021b:	83 f8 02             	cmp    $0x2,%eax
c011021e:	75 44                	jne    c0110264 <fd_copy+0xa1>
c0110220:	8b 45 08             	mov    0x8(%ebp),%eax
c0110223:	8b 50 0c             	mov    0xc(%eax),%edx
c0110226:	8b 45 f4             	mov    -0xc(%ebp),%eax
c0110229:	89 50 0c             	mov    %edx,0xc(%eax)
c011022c:	8b 45 08             	mov    0x8(%ebp),%eax
c011022f:	8b 50 10             	mov    0x10(%eax),%edx
c0110232:	8b 45 f4             	mov    -0xc(%ebp),%eax
c0110235:	89 50 10             	mov    %edx,0x10(%eax)
c0110238:	eb 3b                	jmp    c0110275 <fd_copy+0xb2>
c011023a:	8b 45 08             	mov    0x8(%ebp),%eax
c011023d:	8b 50 0c             	mov    0xc(%eax),%edx
c0110240:	8b 45 f4             	mov    -0xc(%ebp),%eax
c0110243:	89 50 0c             	mov    %edx,0xc(%eax)
c0110246:	eb 2d                	jmp    c0110275 <fd_copy+0xb2>
c0110248:	8b 45 08             	mov    0x8(%ebp),%eax
c011024b:	8b 50 0c             	mov    0xc(%eax),%edx
c011024e:	8b 45 f4             	mov    -0xc(%ebp),%eax
c0110251:	89 50 0c             	mov    %edx,0xc(%eax)
c0110254:	eb 1f                	jmp    c0110275 <fd_copy+0xb2>
c0110256:	8b 45 08             	mov    0x8(%ebp),%eax
c0110259:	8b 50 0c             	mov    0xc(%eax),%edx
c011025c:	8b 45 f4             	mov    -0xc(%ebp),%eax
c011025f:	89 50 0c             	mov    %edx,0xc(%eax)
c0110262:	eb 11                	jmp    c0110275 <fd_copy+0xb2>
c0110264:	83 ec 0c             	sub    $0xc,%esp
c0110267:	68 40 37 11 c0       	push   $0xc0113740
c011026c:	e8 32 1f 00 00       	call   c01121a3 <panic>
c0110271:	83 c4 10             	add    $0x10,%esp
c0110274:	90                   	nop
c0110275:	8b 45 08             	mov    0x8(%ebp),%eax
c0110278:	c9                   	leave  
c0110279:	c3                   	ret    

c011027a <is_dev_path>:
c011027a:	55                   	push   %ebp
c011027b:	89 e5                	mov    %esp,%ebp
c011027d:	83 ec 08             	sub    $0x8,%esp
c0110280:	83 ec 0c             	sub    $0xc,%esp
c0110283:	68 65 37 11 c0       	push   $0xc0113765
c0110288:	e8 ef 1e 00 00       	call   c011217c <strlen>
c011028d:	83 c4 10             	add    $0x10,%esp
c0110290:	83 ec 04             	sub    $0x4,%esp
c0110293:	50                   	push   %eax
c0110294:	68 65 37 11 c0       	push   $0xc0113765
c0110299:	ff 75 08             	pushl  0x8(%ebp)
c011029c:	e8 95 1e 00 00       	call   c0112136 <memcmp>
c01102a1:	83 c4 10             	add    $0x10,%esp
c01102a4:	85 c0                	test   %eax,%eax
c01102a6:	0f 94 c0             	sete   %al
c01102a9:	c9                   	leave  
c01102aa:	c3                   	ret    

c01102ab <dev_name>:
c01102ab:	55                   	push   %ebp
c01102ac:	89 e5                	mov    %esp,%ebp
c01102ae:	83 ec 08             	sub    $0x8,%esp
c01102b1:	83 ec 0c             	sub    $0xc,%esp
c01102b4:	68 65 37 11 c0       	push   $0xc0113765
c01102b9:	e8 be 1e 00 00       	call   c011217c <strlen>
c01102be:	83 c4 10             	add    $0x10,%esp
c01102c1:	8d 50 01             	lea    0x1(%eax),%edx
c01102c4:	8b 45 08             	mov    0x8(%ebp),%eax
c01102c7:	01 d0                	add    %edx,%eax
c01102c9:	c9                   	leave  
c01102ca:	c3                   	ret    

c01102cb <open_dev>:
c01102cb:	55                   	push   %ebp
c01102cc:	89 e5                	mov    %esp,%ebp
c01102ce:	83 ec 28             	sub    $0x28,%esp
c01102d1:	8b 45 0c             	mov    0xc(%ebp),%eax
c01102d4:	88 45 e4             	mov    %al,-0x1c(%ebp)
c01102d7:	83 ec 0c             	sub    $0xc,%esp
c01102da:	ff 75 08             	pushl  0x8(%ebp)
c01102dd:	e8 41 82 ff ff       	call   c0108523 <get_stream_dev>
c01102e2:	83 c4 10             	add    $0x10,%esp
c01102e5:	89 45 f4             	mov    %eax,-0xc(%ebp)
c01102e8:	83 7d f4 00          	cmpl   $0x0,-0xc(%ebp)
c01102ec:	75 23                	jne    c0110311 <open_dev+0x46>
c01102ee:	83 ec 08             	sub    $0x8,%esp
c01102f1:	ff 75 08             	pushl  0x8(%ebp)
c01102f4:	68 6a 37 11 c0       	push   $0xc011376a
c01102f9:	e8 25 19 00 00       	call   c0111c23 <printf>
c01102fe:	83 c4 10             	add    $0x10,%esp
c0110301:	83 ec 0c             	sub    $0xc,%esp
c0110304:	68 86 37 11 c0       	push   $0xc0113786
c0110309:	e8 95 1e 00 00       	call   c01121a3 <panic>
c011030e:	83 c4 10             	add    $0x10,%esp
c0110311:	83 ec 0c             	sub    $0xc,%esp
c0110314:	6a 14                	push   $0x14
c0110316:	e8 d5 a4 ff ff       	call   c010a7f0 <kmalloc>
c011031b:	83 c4 10             	add    $0x10,%esp
c011031e:	89 45 f0             	mov    %eax,-0x10(%ebp)
c0110321:	e8 14 c0 ff ff       	call   c010c33a <kql_create>
c0110326:	8b 55 f0             	mov    -0x10(%ebp),%edx
c0110329:	89 02                	mov    %eax,(%edx)
c011032b:	8b 45 f0             	mov    -0x10(%ebp),%eax
c011032e:	c7 40 04 01 00 00 00 	movl   $0x1,0x4(%eax)
c0110335:	8b 45 f0             	mov    -0x10(%ebp),%eax
c0110338:	8b 55 f4             	mov    -0xc(%ebp),%edx
c011033b:	89 50 0c             	mov    %edx,0xc(%eax)
c011033e:	8b 45 f0             	mov    -0x10(%ebp),%eax
c0110341:	c6 40 08 00          	movb   $0x0,0x8(%eax)
c0110345:	0f b6 45 e4          	movzbl -0x1c(%ebp),%eax
c0110349:	83 e0 01             	and    $0x1,%eax
c011034c:	85 c0                	test   %eax,%eax
c011034e:	74 42                	je     c0110392 <open_dev+0xc7>
c0110350:	8b 45 f4             	mov    -0xc(%ebp),%eax
c0110353:	0f b6 40 08          	movzbl 0x8(%eax),%eax
c0110357:	84 c0                	test   %al,%al
c0110359:	74 14                	je     c011036f <open_dev+0xa4>
c011035b:	8b 45 f0             	mov    -0x10(%ebp),%eax
c011035e:	0f b6 40 08          	movzbl 0x8(%eax),%eax
c0110362:	83 c8 01             	or     $0x1,%eax
c0110365:	89 c2                	mov    %eax,%edx
c0110367:	8b 45 f0             	mov    -0x10(%ebp),%eax
c011036a:	88 50 08             	mov    %dl,0x8(%eax)
c011036d:	eb 23                	jmp    c0110392 <open_dev+0xc7>
c011036f:	83 ec 08             	sub    $0x8,%esp
c0110372:	ff 75 08             	pushl  0x8(%ebp)
c0110375:	68 8c 37 11 c0       	push   $0xc011378c
c011037a:	e8 a4 18 00 00       	call   c0111c23 <printf>
c011037f:	83 c4 10             	add    $0x10,%esp
c0110382:	83 ec 0c             	sub    $0xc,%esp
c0110385:	68 86 37 11 c0       	push   $0xc0113786
c011038a:	e8 14 1e 00 00       	call   c01121a3 <panic>
c011038f:	83 c4 10             	add    $0x10,%esp
c0110392:	0f b6 45 e4          	movzbl -0x1c(%ebp),%eax
c0110396:	83 e0 02             	and    $0x2,%eax
c0110399:	85 c0                	test   %eax,%eax
c011039b:	74 42                	je     c01103df <open_dev+0x114>
c011039d:	8b 45 f4             	mov    -0xc(%ebp),%eax
c01103a0:	0f b6 40 08          	movzbl 0x8(%eax),%eax
c01103a4:	84 c0                	test   %al,%al
c01103a6:	74 14                	je     c01103bc <open_dev+0xf1>
c01103a8:	8b 45 f0             	mov    -0x10(%ebp),%eax
c01103ab:	0f b6 40 08          	movzbl 0x8(%eax),%eax
c01103af:	83 c8 02             	or     $0x2,%eax
c01103b2:	89 c2                	mov    %eax,%edx
c01103b4:	8b 45 f0             	mov    -0x10(%ebp),%eax
c01103b7:	88 50 08             	mov    %dl,0x8(%eax)
c01103ba:	eb 23                	jmp    c01103df <open_dev+0x114>
c01103bc:	83 ec 08             	sub    $0x8,%esp
c01103bf:	ff 75 08             	pushl  0x8(%ebp)
c01103c2:	68 a7 37 11 c0       	push   $0xc01137a7
c01103c7:	e8 57 18 00 00       	call   c0111c23 <printf>
c01103cc:	83 c4 10             	add    $0x10,%esp
c01103cf:	83 ec 0c             	sub    $0xc,%esp
c01103d2:	68 86 37 11 c0       	push   $0xc0113786
c01103d7:	e8 c7 1d 00 00       	call   c01121a3 <panic>
c01103dc:	83 c4 10             	add    $0x10,%esp
c01103df:	0f b6 45 e4          	movzbl -0x1c(%ebp),%eax
c01103e3:	83 e0 04             	and    $0x4,%eax
c01103e6:	85 c0                	test   %eax,%eax
c01103e8:	74 42                	je     c011042c <open_dev+0x161>
c01103ea:	8b 45 f4             	mov    -0xc(%ebp),%eax
c01103ed:	0f b6 40 08          	movzbl 0x8(%eax),%eax
c01103f1:	84 c0                	test   %al,%al
c01103f3:	74 14                	je     c0110409 <open_dev+0x13e>
c01103f5:	8b 45 f0             	mov    -0x10(%ebp),%eax
c01103f8:	0f b6 40 08          	movzbl 0x8(%eax),%eax
c01103fc:	83 c8 04             	or     $0x4,%eax
c01103ff:	89 c2                	mov    %eax,%edx
c0110401:	8b 45 f0             	mov    -0x10(%ebp),%eax
c0110404:	88 50 08             	mov    %dl,0x8(%eax)
c0110407:	eb 23                	jmp    c011042c <open_dev+0x161>
c0110409:	83 ec 08             	sub    $0x8,%esp
c011040c:	ff 75 08             	pushl  0x8(%ebp)
c011040f:	68 c1 37 11 c0       	push   $0xc01137c1
c0110414:	e8 0a 18 00 00       	call   c0111c23 <printf>
c0110419:	83 c4 10             	add    $0x10,%esp
c011041c:	83 ec 0c             	sub    $0xc,%esp
c011041f:	68 86 37 11 c0       	push   $0xc0113786
c0110424:	e8 7a 1d 00 00       	call   c01121a3 <panic>
c0110429:	83 c4 10             	add    $0x10,%esp
c011042c:	8b 45 f0             	mov    -0x10(%ebp),%eax
c011042f:	c9                   	leave  
c0110430:	c3                   	ret    

c0110431 <kopen>:
c0110431:	55                   	push   %ebp
c0110432:	89 e5                	mov    %esp,%ebp
c0110434:	83 ec 38             	sub    $0x38,%esp
c0110437:	8b 45 0c             	mov    0xc(%ebp),%eax
c011043a:	88 45 d4             	mov    %al,-0x2c(%ebp)
c011043d:	83 ec 0c             	sub    $0xc,%esp
c0110440:	ff 75 08             	pushl  0x8(%ebp)
c0110443:	e8 32 fe ff ff       	call   c011027a <is_dev_path>
c0110448:	83 c4 10             	add    $0x10,%esp
c011044b:	84 c0                	test   %al,%al
c011044d:	74 29                	je     c0110478 <kopen+0x47>
c011044f:	83 ec 0c             	sub    $0xc,%esp
c0110452:	ff 75 08             	pushl  0x8(%ebp)
c0110455:	e8 51 fe ff ff       	call   c01102ab <dev_name>
c011045a:	83 c4 10             	add    $0x10,%esp
c011045d:	89 45 ec             	mov    %eax,-0x14(%ebp)
c0110460:	0f b6 45 d4          	movzbl -0x2c(%ebp),%eax
c0110464:	83 ec 08             	sub    $0x8,%esp
c0110467:	50                   	push   %eax
c0110468:	ff 75 ec             	pushl  -0x14(%ebp)
c011046b:	e8 5b fe ff ff       	call   c01102cb <open_dev>
c0110470:	83 c4 10             	add    $0x10,%esp
c0110473:	e9 df 00 00 00       	jmp    c0110557 <kopen+0x126>
c0110478:	83 ec 08             	sub    $0x8,%esp
c011047b:	8d 45 e8             	lea    -0x18(%ebp),%eax
c011047e:	50                   	push   %eax
c011047f:	ff 75 08             	pushl  0x8(%ebp)
c0110482:	e8 1f f5 ff ff       	call   c010f9a6 <fs_find_inode>
c0110487:	83 c4 10             	add    $0x10,%esp
c011048a:	89 45 f4             	mov    %eax,-0xc(%ebp)
c011048d:	83 7d f4 00          	cmpl   $0x0,-0xc(%ebp)
c0110491:	79 15                	jns    c01104a8 <kopen+0x77>
c0110493:	83 ec 08             	sub    $0x8,%esp
c0110496:	ff 75 08             	pushl  0x8(%ebp)
c0110499:	68 dc 37 11 c0       	push   $0xc01137dc
c011049e:	e8 80 17 00 00       	call   c0111c23 <printf>
c01104a3:	83 c4 10             	add    $0x10,%esp
c01104a6:	eb fe                	jmp    c01104a6 <kopen+0x75>
c01104a8:	8b 45 e8             	mov    -0x18(%ebp),%eax
c01104ab:	83 ec 08             	sub    $0x8,%esp
c01104ae:	8d 55 e4             	lea    -0x1c(%ebp),%edx
c01104b1:	52                   	push   %edx
c01104b2:	50                   	push   %eax
c01104b3:	e8 93 fc ff ff       	call   c011014b <fs_inode_type>
c01104b8:	83 c4 10             	add    $0x10,%esp
c01104bb:	89 45 f4             	mov    %eax,-0xc(%ebp)
c01104be:	83 7d f4 00          	cmpl   $0x0,-0xc(%ebp)
c01104c2:	79 15                	jns    c01104d9 <kopen+0xa8>
c01104c4:	83 ec 08             	sub    $0x8,%esp
c01104c7:	ff 75 08             	pushl  0x8(%ebp)
c01104ca:	68 00 38 11 c0       	push   $0xc0113800
c01104cf:	e8 4f 17 00 00       	call   c0111c23 <printf>
c01104d4:	83 c4 10             	add    $0x10,%esp
c01104d7:	eb fe                	jmp    c01104d7 <kopen+0xa6>
c01104d9:	83 ec 0c             	sub    $0xc,%esp
c01104dc:	6a 14                	push   $0x14
c01104de:	e8 0d a3 ff ff       	call   c010a7f0 <kmalloc>
c01104e3:	83 c4 10             	add    $0x10,%esp
c01104e6:	89 45 f0             	mov    %eax,-0x10(%ebp)
c01104e9:	e8 4c be ff ff       	call   c010c33a <kql_create>
c01104ee:	8b 55 f0             	mov    -0x10(%ebp),%edx
c01104f1:	89 02                	mov    %eax,(%edx)
c01104f3:	0f b6 45 d4          	movzbl -0x2c(%ebp),%eax
c01104f7:	83 e0 07             	and    $0x7,%eax
c01104fa:	89 c2                	mov    %eax,%edx
c01104fc:	8b 45 f0             	mov    -0x10(%ebp),%eax
c01104ff:	88 50 08             	mov    %dl,0x8(%eax)
c0110502:	8b 45 e4             	mov    -0x1c(%ebp),%eax
c0110505:	83 f8 01             	cmp    $0x1,%eax
c0110508:	74 24                	je     c011052e <kopen+0xfd>
c011050a:	83 f8 02             	cmp    $0x2,%eax
c011050d:	75 34                	jne    c0110543 <kopen+0x112>
c011050f:	8b 45 f0             	mov    -0x10(%ebp),%eax
c0110512:	c7 40 04 02 00 00 00 	movl   $0x2,0x4(%eax)
c0110519:	8b 55 e8             	mov    -0x18(%ebp),%edx
c011051c:	8b 45 f0             	mov    -0x10(%ebp),%eax
c011051f:	89 50 0c             	mov    %edx,0xc(%eax)
c0110522:	8b 45 f0             	mov    -0x10(%ebp),%eax
c0110525:	c7 40 10 00 00 00 00 	movl   $0x0,0x10(%eax)
c011052c:	eb 26                	jmp    c0110554 <kopen+0x123>
c011052e:	8b 45 f0             	mov    -0x10(%ebp),%eax
c0110531:	c7 40 04 04 00 00 00 	movl   $0x4,0x4(%eax)
c0110538:	8b 55 e8             	mov    -0x18(%ebp),%edx
c011053b:	8b 45 f0             	mov    -0x10(%ebp),%eax
c011053e:	89 50 0c             	mov    %edx,0xc(%eax)
c0110541:	eb 11                	jmp    c0110554 <kopen+0x123>
c0110543:	83 ec 0c             	sub    $0xc,%esp
c0110546:	68 2d 38 11 c0       	push   $0xc011382d
c011054b:	e8 53 1c 00 00       	call   c01121a3 <panic>
c0110550:	83 c4 10             	add    $0x10,%esp
c0110553:	90                   	nop
c0110554:	8b 45 f0             	mov    -0x10(%ebp),%eax
c0110557:	c9                   	leave  
c0110558:	c3                   	ret    

c0110559 <kclose>:
c0110559:	55                   	push   %ebp
c011055a:	89 e5                	mov    %esp,%ebp
c011055c:	83 ec 08             	sub    $0x8,%esp
c011055f:	8b 45 08             	mov    0x8(%ebp),%eax
c0110562:	8b 00                	mov    (%eax),%eax
c0110564:	83 ec 0c             	sub    $0xc,%esp
c0110567:	50                   	push   %eax
c0110568:	e8 5e be ff ff       	call   c010c3cb <kql_acquire>
c011056d:	83 c4 10             	add    $0x10,%esp
c0110570:	8b 45 08             	mov    0x8(%ebp),%eax
c0110573:	8b 40 04             	mov    0x4(%eax),%eax
c0110576:	83 f8 03             	cmp    $0x3,%eax
c0110579:	75 10                	jne    c011058b <kclose+0x32>
c011057b:	83 ec 0c             	sub    $0xc,%esp
c011057e:	68 33 38 11 c0       	push   $0xc0113833
c0110583:	e8 1b 1c 00 00       	call   c01121a3 <panic>
c0110588:	83 c4 10             	add    $0x10,%esp
c011058b:	83 ec 0c             	sub    $0xc,%esp
c011058e:	ff 75 08             	pushl  0x8(%ebp)
c0110591:	e8 46 a3 ff ff       	call   c010a8dc <kfree>
c0110596:	83 c4 10             	add    $0x10,%esp
c0110599:	90                   	nop
c011059a:	c9                   	leave  
c011059b:	c3                   	ret    

c011059c <kseek>:
c011059c:	55                   	push   %ebp
c011059d:	89 e5                	mov    %esp,%ebp
c011059f:	83 ec 28             	sub    $0x28,%esp
c01105a2:	8b 45 10             	mov    0x10(%ebp),%eax
c01105a5:	88 45 e4             	mov    %al,-0x1c(%ebp)
c01105a8:	8b 45 08             	mov    0x8(%ebp),%eax
c01105ab:	0f b6 40 08          	movzbl 0x8(%eax),%eax
c01105af:	0f b6 c0             	movzbl %al,%eax
c01105b2:	83 e0 04             	and    $0x4,%eax
c01105b5:	85 c0                	test   %eax,%eax
c01105b7:	75 10                	jne    c01105c9 <kseek+0x2d>
c01105b9:	83 ec 0c             	sub    $0xc,%esp
c01105bc:	68 48 38 11 c0       	push   $0xc0113848
c01105c1:	e8 dd 1b 00 00       	call   c01121a3 <panic>
c01105c6:	83 c4 10             	add    $0x10,%esp
c01105c9:	8b 45 08             	mov    0x8(%ebp),%eax
c01105cc:	8b 40 04             	mov    0x4(%eax),%eax
c01105cf:	83 f8 01             	cmp    $0x1,%eax
c01105d2:	74 0a                	je     c01105de <kseek+0x42>
c01105d4:	83 f8 02             	cmp    $0x2,%eax
c01105d7:	74 23                	je     c01105fc <kseek+0x60>
c01105d9:	e9 a9 00 00 00       	jmp    c0110687 <kseek+0xeb>
c01105de:	8b 45 08             	mov    0x8(%ebp),%eax
c01105e1:	8b 40 0c             	mov    0xc(%eax),%eax
c01105e4:	8b 40 14             	mov    0x14(%eax),%eax
c01105e7:	0f b6 55 e4          	movzbl -0x1c(%ebp),%edx
c01105eb:	83 ec 08             	sub    $0x8,%esp
c01105ee:	52                   	push   %edx
c01105ef:	ff 75 0c             	pushl  0xc(%ebp)
c01105f2:	ff d0                	call   *%eax
c01105f4:	83 c4 10             	add    $0x10,%esp
c01105f7:	e9 9c 00 00 00       	jmp    c0110698 <kseek+0xfc>
c01105fc:	0f b6 45 e4          	movzbl -0x1c(%ebp),%eax
c0110600:	83 f8 03             	cmp    $0x3,%eax
c0110603:	74 2f                	je     c0110634 <kseek+0x98>
c0110605:	83 f8 03             	cmp    $0x3,%eax
c0110608:	7f 69                	jg     c0110673 <kseek+0xd7>
c011060a:	83 f8 01             	cmp    $0x1,%eax
c011060d:	74 07                	je     c0110616 <kseek+0x7a>
c011060f:	83 f8 02             	cmp    $0x2,%eax
c0110612:	74 0d                	je     c0110621 <kseek+0x85>
c0110614:	eb 5d                	jmp    c0110673 <kseek+0xd7>
c0110616:	8b 55 0c             	mov    0xc(%ebp),%edx
c0110619:	8b 45 08             	mov    0x8(%ebp),%eax
c011061c:	89 50 10             	mov    %edx,0x10(%eax)
c011061f:	eb 64                	jmp    c0110685 <kseek+0xe9>
c0110621:	8b 45 08             	mov    0x8(%ebp),%eax
c0110624:	8b 50 10             	mov    0x10(%eax),%edx
c0110627:	8b 45 0c             	mov    0xc(%ebp),%eax
c011062a:	01 c2                	add    %eax,%edx
c011062c:	8b 45 08             	mov    0x8(%ebp),%eax
c011062f:	89 50 10             	mov    %edx,0x10(%eax)
c0110632:	eb 51                	jmp    c0110685 <kseek+0xe9>
c0110634:	8b 45 08             	mov    0x8(%ebp),%eax
c0110637:	8b 40 0c             	mov    0xc(%eax),%eax
c011063a:	83 ec 08             	sub    $0x8,%esp
c011063d:	8d 55 f0             	lea    -0x10(%ebp),%edx
c0110640:	52                   	push   %edx
c0110641:	50                   	push   %eax
c0110642:	e8 93 fa ff ff       	call   c01100da <fs_file_size>
c0110647:	83 c4 10             	add    $0x10,%esp
c011064a:	89 45 f4             	mov    %eax,-0xc(%ebp)
c011064d:	83 7d f4 00          	cmpl   $0x0,-0xc(%ebp)
c0110651:	79 10                	jns    c0110663 <kseek+0xc7>
c0110653:	83 ec 0c             	sub    $0xc,%esp
c0110656:	68 88 38 11 c0       	push   $0xc0113888
c011065b:	e8 43 1b 00 00       	call   c01121a3 <panic>
c0110660:	83 c4 10             	add    $0x10,%esp
c0110663:	8b 55 f0             	mov    -0x10(%ebp),%edx
c0110666:	8b 45 0c             	mov    0xc(%ebp),%eax
c0110669:	01 c2                	add    %eax,%edx
c011066b:	8b 45 08             	mov    0x8(%ebp),%eax
c011066e:	89 50 10             	mov    %edx,0x10(%eax)
c0110671:	eb 12                	jmp    c0110685 <kseek+0xe9>
c0110673:	83 ec 0c             	sub    $0xc,%esp
c0110676:	68 aa 38 11 c0       	push   $0xc01138aa
c011067b:	e8 23 1b 00 00       	call   c01121a3 <panic>
c0110680:	83 c4 10             	add    $0x10,%esp
c0110683:	eb 13                	jmp    c0110698 <kseek+0xfc>
c0110685:	eb 11                	jmp    c0110698 <kseek+0xfc>
c0110687:	83 ec 0c             	sub    $0xc,%esp
c011068a:	68 c4 38 11 c0       	push   $0xc01138c4
c011068f:	e8 0f 1b 00 00       	call   c01121a3 <panic>
c0110694:	83 c4 10             	add    $0x10,%esp
c0110697:	90                   	nop
c0110698:	90                   	nop
c0110699:	c9                   	leave  
c011069a:	c3                   	ret    

c011069b <kfile_type>:
c011069b:	55                   	push   %ebp
c011069c:	89 e5                	mov    %esp,%ebp
c011069e:	83 ec 18             	sub    $0x18,%esp
c01106a1:	83 ec 0c             	sub    $0xc,%esp
c01106a4:	ff 75 08             	pushl  0x8(%ebp)
c01106a7:	e8 ce fb ff ff       	call   c011027a <is_dev_path>
c01106ac:	83 c4 10             	add    $0x10,%esp
c01106af:	84 c0                	test   %al,%al
c01106b1:	74 36                	je     c01106e9 <kfile_type+0x4e>
c01106b3:	83 ec 0c             	sub    $0xc,%esp
c01106b6:	ff 75 08             	pushl  0x8(%ebp)
c01106b9:	e8 ed fb ff ff       	call   c01102ab <dev_name>
c01106be:	83 c4 10             	add    $0x10,%esp
c01106c1:	89 45 f4             	mov    %eax,-0xc(%ebp)
c01106c4:	83 ec 0c             	sub    $0xc,%esp
c01106c7:	ff 75 f4             	pushl  -0xc(%ebp)
c01106ca:	e8 54 7e ff ff       	call   c0108523 <get_stream_dev>
c01106cf:	83 c4 10             	add    $0x10,%esp
c01106d2:	89 45 f0             	mov    %eax,-0x10(%ebp)
c01106d5:	83 7d f0 00          	cmpl   $0x0,-0x10(%ebp)
c01106d9:	74 07                	je     c01106e2 <kfile_type+0x47>
c01106db:	b8 01 00 00 00       	mov    $0x1,%eax
c01106e0:	eb 74                	jmp    c0110756 <kfile_type+0xbb>
c01106e2:	b8 05 00 00 00       	mov    $0x5,%eax
c01106e7:	eb 6d                	jmp    c0110756 <kfile_type+0xbb>
c01106e9:	83 ec 08             	sub    $0x8,%esp
c01106ec:	8d 45 ec             	lea    -0x14(%ebp),%eax
c01106ef:	50                   	push   %eax
c01106f0:	ff 75 08             	pushl  0x8(%ebp)
c01106f3:	e8 ae f2 ff ff       	call   c010f9a6 <fs_find_inode>
c01106f8:	83 c4 10             	add    $0x10,%esp
c01106fb:	85 c0                	test   %eax,%eax
c01106fd:	78 52                	js     c0110751 <kfile_type+0xb6>
c01106ff:	8b 45 ec             	mov    -0x14(%ebp),%eax
c0110702:	83 ec 08             	sub    $0x8,%esp
c0110705:	8d 55 e8             	lea    -0x18(%ebp),%edx
c0110708:	52                   	push   %edx
c0110709:	50                   	push   %eax
c011070a:	e8 3c fa ff ff       	call   c011014b <fs_inode_type>
c011070f:	83 c4 10             	add    $0x10,%esp
c0110712:	85 c0                	test   %eax,%eax
c0110714:	78 2b                	js     c0110741 <kfile_type+0xa6>
c0110716:	8b 45 e8             	mov    -0x18(%ebp),%eax
c0110719:	83 f8 01             	cmp    $0x1,%eax
c011071c:	74 0c                	je     c011072a <kfile_type+0x8f>
c011071e:	83 f8 02             	cmp    $0x2,%eax
c0110721:	75 0e                	jne    c0110731 <kfile_type+0x96>
c0110723:	b8 02 00 00 00       	mov    $0x2,%eax
c0110728:	eb 2c                	jmp    c0110756 <kfile_type+0xbb>
c011072a:	b8 04 00 00 00       	mov    $0x4,%eax
c011072f:	eb 25                	jmp    c0110756 <kfile_type+0xbb>
c0110731:	83 ec 0c             	sub    $0xc,%esp
c0110734:	68 dc 38 11 c0       	push   $0xc01138dc
c0110739:	e8 65 1a 00 00       	call   c01121a3 <panic>
c011073e:	83 c4 10             	add    $0x10,%esp
c0110741:	83 ec 0c             	sub    $0xc,%esp
c0110744:	68 dc 38 11 c0       	push   $0xc01138dc
c0110749:	e8 55 1a 00 00       	call   c01121a3 <panic>
c011074e:	83 c4 10             	add    $0x10,%esp
c0110751:	b8 05 00 00 00       	mov    $0x5,%eax
c0110756:	c9                   	leave  
c0110757:	c3                   	ret    

c0110758 <kwrite>:
c0110758:	55                   	push   %ebp
c0110759:	89 e5                	mov    %esp,%ebp
c011075b:	83 ec 18             	sub    $0x18,%esp
c011075e:	8b 45 08             	mov    0x8(%ebp),%eax
c0110761:	8b 00                	mov    (%eax),%eax
c0110763:	83 ec 0c             	sub    $0xc,%esp
c0110766:	50                   	push   %eax
c0110767:	e8 5f bc ff ff       	call   c010c3cb <kql_acquire>
c011076c:	83 c4 10             	add    $0x10,%esp
c011076f:	8b 45 08             	mov    0x8(%ebp),%eax
c0110772:	0f b6 40 08          	movzbl 0x8(%eax),%eax
c0110776:	0f b6 c0             	movzbl %al,%eax
c0110779:	83 e0 02             	and    $0x2,%eax
c011077c:	85 c0                	test   %eax,%eax
c011077e:	75 10                	jne    c0110790 <kwrite+0x38>
c0110780:	83 ec 0c             	sub    $0xc,%esp
c0110783:	68 e8 38 11 c0       	push   $0xc01138e8
c0110788:	e8 16 1a 00 00       	call   c01121a3 <panic>
c011078d:	83 c4 10             	add    $0x10,%esp
c0110790:	8b 45 08             	mov    0x8(%ebp),%eax
c0110793:	8b 40 04             	mov    0x4(%eax),%eax
c0110796:	83 f8 03             	cmp    $0x3,%eax
c0110799:	74 6e                	je     c0110809 <kwrite+0xb1>
c011079b:	83 f8 03             	cmp    $0x3,%eax
c011079e:	0f 87 85 00 00 00    	ja     c0110829 <kwrite+0xd1>
c01107a4:	83 f8 01             	cmp    $0x1,%eax
c01107a7:	74 07                	je     c01107b0 <kwrite+0x58>
c01107a9:	83 f8 02             	cmp    $0x2,%eax
c01107ac:	74 1e                	je     c01107cc <kwrite+0x74>
c01107ae:	eb 79                	jmp    c0110829 <kwrite+0xd1>
c01107b0:	8b 45 08             	mov    0x8(%ebp),%eax
c01107b3:	8b 40 0c             	mov    0xc(%eax),%eax
c01107b6:	8b 40 10             	mov    0x10(%eax),%eax
c01107b9:	83 ec 08             	sub    $0x8,%esp
c01107bc:	ff 75 10             	pushl  0x10(%ebp)
c01107bf:	ff 75 0c             	pushl  0xc(%ebp)
c01107c2:	ff d0                	call   *%eax
c01107c4:	83 c4 10             	add    $0x10,%esp
c01107c7:	89 45 f4             	mov    %eax,-0xc(%ebp)
c01107ca:	eb 6d                	jmp    c0110839 <kwrite+0xe1>
c01107cc:	8b 45 08             	mov    0x8(%ebp),%eax
c01107cf:	8b 50 10             	mov    0x10(%eax),%edx
c01107d2:	8b 45 08             	mov    0x8(%ebp),%eax
c01107d5:	8b 40 0c             	mov    0xc(%eax),%eax
c01107d8:	ff 75 0c             	pushl  0xc(%ebp)
c01107db:	ff 75 10             	pushl  0x10(%ebp)
c01107de:	52                   	push   %edx
c01107df:	50                   	push   %eax
c01107e0:	e8 a0 f7 ff ff       	call   c010ff85 <fs_write_file>
c01107e5:	83 c4 10             	add    $0x10,%esp
c01107e8:	89 45 f0             	mov    %eax,-0x10(%ebp)
c01107eb:	83 7d f0 00          	cmpl   $0x0,-0x10(%ebp)
c01107ef:	79 10                	jns    c0110801 <kwrite+0xa9>
c01107f1:	83 ec 0c             	sub    $0xc,%esp
c01107f4:	68 27 39 11 c0       	push   $0xc0113927
c01107f9:	e8 a5 19 00 00       	call   c01121a3 <panic>
c01107fe:	83 c4 10             	add    $0x10,%esp
c0110801:	8b 45 10             	mov    0x10(%ebp),%eax
c0110804:	89 45 f4             	mov    %eax,-0xc(%ebp)
c0110807:	eb 30                	jmp    c0110839 <kwrite+0xe1>
c0110809:	8b 45 08             	mov    0x8(%ebp),%eax
c011080c:	8b 40 0c             	mov    0xc(%eax),%eax
c011080f:	83 ec 04             	sub    $0x4,%esp
c0110812:	ff 75 10             	pushl  0x10(%ebp)
c0110815:	ff 75 0c             	pushl  0xc(%ebp)
c0110818:	50                   	push   %eax
c0110819:	e8 33 20 00 00       	call   c0112851 <bq_add>
c011081e:	83 c4 10             	add    $0x10,%esp
c0110821:	8b 45 10             	mov    0x10(%ebp),%eax
c0110824:	89 45 f4             	mov    %eax,-0xc(%ebp)
c0110827:	eb 10                	jmp    c0110839 <kwrite+0xe1>
c0110829:	83 ec 0c             	sub    $0xc,%esp
c011082c:	68 2e 39 11 c0       	push   $0xc011392e
c0110831:	e8 6d 19 00 00       	call   c01121a3 <panic>
c0110836:	83 c4 10             	add    $0x10,%esp
c0110839:	8b 45 08             	mov    0x8(%ebp),%eax
c011083c:	8b 00                	mov    (%eax),%eax
c011083e:	83 ec 0c             	sub    $0xc,%esp
c0110841:	50                   	push   %eax
c0110842:	e8 3a bc ff ff       	call   c010c481 <kql_release>
c0110847:	83 c4 10             	add    $0x10,%esp
c011084a:	8b 45 f4             	mov    -0xc(%ebp),%eax
c011084d:	c9                   	leave  
c011084e:	c3                   	ret    

c011084f <kread>:
c011084f:	55                   	push   %ebp
c0110850:	89 e5                	mov    %esp,%ebp
c0110852:	83 ec 18             	sub    $0x18,%esp
c0110855:	8b 45 08             	mov    0x8(%ebp),%eax
c0110858:	8b 00                	mov    (%eax),%eax
c011085a:	83 ec 0c             	sub    $0xc,%esp
c011085d:	50                   	push   %eax
c011085e:	e8 68 bb ff ff       	call   c010c3cb <kql_acquire>
c0110863:	83 c4 10             	add    $0x10,%esp
c0110866:	8b 45 08             	mov    0x8(%ebp),%eax
c0110869:	0f b6 40 08          	movzbl 0x8(%eax),%eax
c011086d:	0f b6 c0             	movzbl %al,%eax
c0110870:	83 e0 01             	and    $0x1,%eax
c0110873:	85 c0                	test   %eax,%eax
c0110875:	75 10                	jne    c0110887 <kread+0x38>
c0110877:	83 ec 0c             	sub    $0xc,%esp
c011087a:	68 48 39 11 c0       	push   $0xc0113948
c011087f:	e8 1f 19 00 00       	call   c01121a3 <panic>
c0110884:	83 c4 10             	add    $0x10,%esp
c0110887:	8b 45 08             	mov    0x8(%ebp),%eax
c011088a:	8b 40 04             	mov    0x4(%eax),%eax
c011088d:	83 f8 03             	cmp    $0x3,%eax
c0110890:	74 6e                	je     c0110900 <kread+0xb1>
c0110892:	83 f8 03             	cmp    $0x3,%eax
c0110895:	0f 87 85 00 00 00    	ja     c0110920 <kread+0xd1>
c011089b:	83 f8 01             	cmp    $0x1,%eax
c011089e:	74 07                	je     c01108a7 <kread+0x58>
c01108a0:	83 f8 02             	cmp    $0x2,%eax
c01108a3:	74 1e                	je     c01108c3 <kread+0x74>
c01108a5:	eb 79                	jmp    c0110920 <kread+0xd1>
c01108a7:	8b 45 08             	mov    0x8(%ebp),%eax
c01108aa:	8b 40 0c             	mov    0xc(%eax),%eax
c01108ad:	8b 40 0c             	mov    0xc(%eax),%eax
c01108b0:	83 ec 08             	sub    $0x8,%esp
c01108b3:	ff 75 10             	pushl  0x10(%ebp)
c01108b6:	ff 75 0c             	pushl  0xc(%ebp)
c01108b9:	ff d0                	call   *%eax
c01108bb:	83 c4 10             	add    $0x10,%esp
c01108be:	89 45 f4             	mov    %eax,-0xc(%ebp)
c01108c1:	eb 6d                	jmp    c0110930 <kread+0xe1>
c01108c3:	8b 45 08             	mov    0x8(%ebp),%eax
c01108c6:	8b 50 10             	mov    0x10(%eax),%edx
c01108c9:	8b 45 08             	mov    0x8(%ebp),%eax
c01108cc:	8b 40 0c             	mov    0xc(%eax),%eax
c01108cf:	ff 75 0c             	pushl  0xc(%ebp)
c01108d2:	ff 75 10             	pushl  0x10(%ebp)
c01108d5:	52                   	push   %edx
c01108d6:	50                   	push   %eax
c01108d7:	e8 35 f6 ff ff       	call   c010ff11 <fs_read_file>
c01108dc:	83 c4 10             	add    $0x10,%esp
c01108df:	89 45 f0             	mov    %eax,-0x10(%ebp)
c01108e2:	83 7d f0 00          	cmpl   $0x0,-0x10(%ebp)
c01108e6:	79 10                	jns    c01108f8 <kread+0xa9>
c01108e8:	83 ec 0c             	sub    $0xc,%esp
c01108eb:	68 88 39 11 c0       	push   $0xc0113988
c01108f0:	e8 ae 18 00 00       	call   c01121a3 <panic>
c01108f5:	83 c4 10             	add    $0x10,%esp
c01108f8:	8b 45 10             	mov    0x10(%ebp),%eax
c01108fb:	89 45 f4             	mov    %eax,-0xc(%ebp)
c01108fe:	eb 30                	jmp    c0110930 <kread+0xe1>
c0110900:	8b 45 08             	mov    0x8(%ebp),%eax
c0110903:	8b 40 0c             	mov    0xc(%eax),%eax
c0110906:	83 ec 04             	sub    $0x4,%esp
c0110909:	ff 75 10             	pushl  0x10(%ebp)
c011090c:	ff 75 0c             	pushl  0xc(%ebp)
c011090f:	50                   	push   %eax
c0110910:	e8 bd 20 00 00       	call   c01129d2 <bq_remove>
c0110915:	83 c4 10             	add    $0x10,%esp
c0110918:	8b 45 10             	mov    0x10(%ebp),%eax
c011091b:	89 45 f4             	mov    %eax,-0xc(%ebp)
c011091e:	eb 10                	jmp    c0110930 <kread+0xe1>
c0110920:	83 ec 0c             	sub    $0xc,%esp
c0110923:	68 2e 39 11 c0       	push   $0xc011392e
c0110928:	e8 76 18 00 00       	call   c01121a3 <panic>
c011092d:	83 c4 10             	add    $0x10,%esp
c0110930:	8b 45 08             	mov    0x8(%ebp),%eax
c0110933:	8b 00                	mov    (%eax),%eax
c0110935:	83 ec 0c             	sub    $0xc,%esp
c0110938:	50                   	push   %eax
c0110939:	e8 43 bb ff ff       	call   c010c481 <kql_release>
c011093e:	83 c4 10             	add    $0x10,%esp
c0110941:	8b 45 f4             	mov    -0xc(%ebp),%eax
c0110944:	c9                   	leave  
c0110945:	c3                   	ret    

c0110946 <kpipe>:
c0110946:	55                   	push   %ebp
c0110947:	89 e5                	mov    %esp,%ebp
c0110949:	83 ec 18             	sub    $0x18,%esp
c011094c:	83 ec 0c             	sub    $0xc,%esp
c011094f:	68 00 10 00 00       	push   $0x1000
c0110954:	e8 a2 1d 00 00       	call   c01126fb <bq_create>
c0110959:	83 c4 10             	add    $0x10,%esp
c011095c:	89 45 f4             	mov    %eax,-0xc(%ebp)
c011095f:	83 ec 0c             	sub    $0xc,%esp
c0110962:	6a 14                	push   $0x14
c0110964:	e8 87 9e ff ff       	call   c010a7f0 <kmalloc>
c0110969:	83 c4 10             	add    $0x10,%esp
c011096c:	89 45 f0             	mov    %eax,-0x10(%ebp)
c011096f:	83 ec 0c             	sub    $0xc,%esp
c0110972:	6a 14                	push   $0x14
c0110974:	e8 77 9e ff ff       	call   c010a7f0 <kmalloc>
c0110979:	83 c4 10             	add    $0x10,%esp
c011097c:	89 45 ec             	mov    %eax,-0x14(%ebp)
c011097f:	e8 b6 b9 ff ff       	call   c010c33a <kql_create>
c0110984:	89 c2                	mov    %eax,%edx
c0110986:	8b 45 f0             	mov    -0x10(%ebp),%eax
c0110989:	89 50 04             	mov    %edx,0x4(%eax)
c011098c:	e8 a9 b9 ff ff       	call   c010c33a <kql_create>
c0110991:	8b 55 ec             	mov    -0x14(%ebp),%edx
c0110994:	89 02                	mov    %eax,(%edx)
c0110996:	8b 45 ec             	mov    -0x14(%ebp),%eax
c0110999:	c7 40 04 03 00 00 00 	movl   $0x3,0x4(%eax)
c01109a0:	8b 45 ec             	mov    -0x14(%ebp),%eax
c01109a3:	8b 50 04             	mov    0x4(%eax),%edx
c01109a6:	8b 45 f0             	mov    -0x10(%ebp),%eax
c01109a9:	89 50 04             	mov    %edx,0x4(%eax)
c01109ac:	8b 45 ec             	mov    -0x14(%ebp),%eax
c01109af:	c6 40 08 00          	movb   $0x0,0x8(%eax)
c01109b3:	8b 45 ec             	mov    -0x14(%ebp),%eax
c01109b6:	0f b6 50 08          	movzbl 0x8(%eax),%edx
c01109ba:	8b 45 f0             	mov    -0x10(%ebp),%eax
c01109bd:	88 50 08             	mov    %dl,0x8(%eax)
c01109c0:	8b 45 f0             	mov    -0x10(%ebp),%eax
c01109c3:	0f b6 40 08          	movzbl 0x8(%eax),%eax
c01109c7:	83 c8 02             	or     $0x2,%eax
c01109ca:	89 c2                	mov    %eax,%edx
c01109cc:	8b 45 f0             	mov    -0x10(%ebp),%eax
c01109cf:	88 50 08             	mov    %dl,0x8(%eax)
c01109d2:	8b 45 ec             	mov    -0x14(%ebp),%eax
c01109d5:	0f b6 40 08          	movzbl 0x8(%eax),%eax
c01109d9:	83 c8 01             	or     $0x1,%eax
c01109dc:	89 c2                	mov    %eax,%edx
c01109de:	8b 45 ec             	mov    -0x14(%ebp),%eax
c01109e1:	88 50 08             	mov    %dl,0x8(%eax)
c01109e4:	8b 45 ec             	mov    -0x14(%ebp),%eax
c01109e7:	8b 55 f4             	mov    -0xc(%ebp),%edx
c01109ea:	89 50 0c             	mov    %edx,0xc(%eax)
c01109ed:	8b 45 ec             	mov    -0x14(%ebp),%eax
c01109f0:	8b 50 0c             	mov    0xc(%eax),%edx
c01109f3:	8b 45 f0             	mov    -0x10(%ebp),%eax
c01109f6:	89 50 0c             	mov    %edx,0xc(%eax)
c01109f9:	8b 45 08             	mov    0x8(%ebp),%eax
c01109fc:	8b 55 f0             	mov    -0x10(%ebp),%edx
c01109ff:	89 10                	mov    %edx,(%eax)
c0110a01:	8b 45 0c             	mov    0xc(%ebp),%eax
c0110a04:	8b 55 ec             	mov    -0x14(%ebp),%edx
c0110a07:	89 10                	mov    %edx,(%eax)
c0110a09:	90                   	nop
c0110a0a:	c9                   	leave  
c0110a0b:	c3                   	ret    

c0110a0c <kcreate>:
c0110a0c:	55                   	push   %ebp
c0110a0d:	89 e5                	mov    %esp,%ebp
c0110a0f:	83 ec 28             	sub    $0x28,%esp
c0110a12:	8b 45 0c             	mov    0xc(%ebp),%eax
c0110a15:	88 45 e4             	mov    %al,-0x1c(%ebp)
c0110a18:	0f b6 45 e4          	movzbl -0x1c(%ebp),%eax
c0110a1c:	83 f8 02             	cmp    $0x2,%eax
c0110a1f:	74 07                	je     c0110a28 <kcreate+0x1c>
c0110a21:	83 f8 04             	cmp    $0x4,%eax
c0110a24:	74 2e                	je     c0110a54 <kcreate+0x48>
c0110a26:	eb 58                	jmp    c0110a80 <kcreate+0x74>
c0110a28:	83 ec 0c             	sub    $0xc,%esp
c0110a2b:	ff 75 08             	pushl  0x8(%ebp)
c0110a2e:	e8 bc f1 ff ff       	call   c010fbef <fs_make_file>
c0110a33:	83 c4 10             	add    $0x10,%esp
c0110a36:	89 45 f0             	mov    %eax,-0x10(%ebp)
c0110a39:	83 7d f0 00          	cmpl   $0x0,-0x10(%ebp)
c0110a3d:	79 53                	jns    c0110a92 <kcreate+0x86>
c0110a3f:	83 ec 08             	sub    $0x8,%esp
c0110a42:	ff 75 08             	pushl  0x8(%ebp)
c0110a45:	68 8e 39 11 c0       	push   $0xc011398e
c0110a4a:	e8 d4 11 00 00       	call   c0111c23 <printf>
c0110a4f:	83 c4 10             	add    $0x10,%esp
c0110a52:	eb fe                	jmp    c0110a52 <kcreate+0x46>
c0110a54:	83 ec 0c             	sub    $0xc,%esp
c0110a57:	ff 75 08             	pushl  0x8(%ebp)
c0110a5a:	e8 ad f1 ff ff       	call   c010fc0c <fs_make_dir>
c0110a5f:	83 c4 10             	add    $0x10,%esp
c0110a62:	89 45 f4             	mov    %eax,-0xc(%ebp)
c0110a65:	83 7d f4 00          	cmpl   $0x0,-0xc(%ebp)
c0110a69:	79 2a                	jns    c0110a95 <kcreate+0x89>
c0110a6b:	83 ec 08             	sub    $0x8,%esp
c0110a6e:	ff 75 08             	pushl  0x8(%ebp)
c0110a71:	68 a5 39 11 c0       	push   $0xc01139a5
c0110a76:	e8 a8 11 00 00       	call   c0111c23 <printf>
c0110a7b:	83 c4 10             	add    $0x10,%esp
c0110a7e:	eb fe                	jmp    c0110a7e <kcreate+0x72>
c0110a80:	83 ec 0c             	sub    $0xc,%esp
c0110a83:	68 c1 39 11 c0       	push   $0xc01139c1
c0110a88:	e8 16 17 00 00       	call   c01121a3 <panic>
c0110a8d:	83 c4 10             	add    $0x10,%esp
c0110a90:	eb 04                	jmp    c0110a96 <kcreate+0x8a>
c0110a92:	90                   	nop
c0110a93:	eb 01                	jmp    c0110a96 <kcreate+0x8a>
c0110a95:	90                   	nop
c0110a96:	90                   	nop
c0110a97:	c9                   	leave  
c0110a98:	c3                   	ret    

c0110a99 <kremove>:
c0110a99:	55                   	push   %ebp
c0110a9a:	89 e5                	mov    %esp,%ebp
c0110a9c:	83 ec 28             	sub    $0x28,%esp
c0110a9f:	8b 45 0c             	mov    0xc(%ebp),%eax
c0110aa2:	88 45 e4             	mov    %al,-0x1c(%ebp)
c0110aa5:	0f b6 45 e4          	movzbl -0x1c(%ebp),%eax
c0110aa9:	83 f8 02             	cmp    $0x2,%eax
c0110aac:	74 07                	je     c0110ab5 <kremove+0x1c>
c0110aae:	83 f8 04             	cmp    $0x4,%eax
c0110ab1:	74 2e                	je     c0110ae1 <kremove+0x48>
c0110ab3:	eb 58                	jmp    c0110b0d <kremove+0x74>
c0110ab5:	83 ec 0c             	sub    $0xc,%esp
c0110ab8:	ff 75 08             	pushl  0x8(%ebp)
c0110abb:	e8 21 f4 ff ff       	call   c010fee1 <fs_rem_file>
c0110ac0:	83 c4 10             	add    $0x10,%esp
c0110ac3:	89 45 f0             	mov    %eax,-0x10(%ebp)
c0110ac6:	83 7d f0 00          	cmpl   $0x0,-0x10(%ebp)
c0110aca:	79 53                	jns    c0110b1f <kremove+0x86>
c0110acc:	83 ec 08             	sub    $0x8,%esp
c0110acf:	ff 75 08             	pushl  0x8(%ebp)
c0110ad2:	68 dd 39 11 c0       	push   $0xc01139dd
c0110ad7:	e8 47 11 00 00       	call   c0111c23 <printf>
c0110adc:	83 c4 10             	add    $0x10,%esp
c0110adf:	eb fe                	jmp    c0110adf <kremove+0x46>
c0110ae1:	83 ec 0c             	sub    $0xc,%esp
c0110ae4:	ff 75 08             	pushl  0x8(%ebp)
c0110ae7:	e8 0d f4 ff ff       	call   c010fef9 <fs_rem_dir>
c0110aec:	83 c4 10             	add    $0x10,%esp
c0110aef:	89 45 f4             	mov    %eax,-0xc(%ebp)
c0110af2:	83 7d f4 00          	cmpl   $0x0,-0xc(%ebp)
c0110af6:	79 2a                	jns    c0110b22 <kremove+0x89>
c0110af8:	83 ec 08             	sub    $0x8,%esp
c0110afb:	ff 75 08             	pushl  0x8(%ebp)
c0110afe:	68 f6 39 11 c0       	push   $0xc01139f6
c0110b03:	e8 1b 11 00 00       	call   c0111c23 <printf>
c0110b08:	83 c4 10             	add    $0x10,%esp
c0110b0b:	eb fe                	jmp    c0110b0b <kremove+0x72>
c0110b0d:	83 ec 0c             	sub    $0xc,%esp
c0110b10:	68 14 3a 11 c0       	push   $0xc0113a14
c0110b15:	e8 89 16 00 00       	call   c01121a3 <panic>
c0110b1a:	83 c4 10             	add    $0x10,%esp
c0110b1d:	eb 04                	jmp    c0110b23 <kremove+0x8a>
c0110b1f:	90                   	nop
c0110b20:	eb 01                	jmp    c0110b23 <kremove+0x8a>
c0110b22:	90                   	nop
c0110b23:	90                   	nop
c0110b24:	c9                   	leave  
c0110b25:	c3                   	ret    

c0110b26 <kget_size>:
c0110b26:	55                   	push   %ebp
c0110b27:	89 e5                	mov    %esp,%ebp
c0110b29:	83 ec 18             	sub    $0x18,%esp
c0110b2c:	8b 45 08             	mov    0x8(%ebp),%eax
c0110b2f:	8b 00                	mov    (%eax),%eax
c0110b31:	83 ec 0c             	sub    $0xc,%esp
c0110b34:	50                   	push   %eax
c0110b35:	e8 91 b8 ff ff       	call   c010c3cb <kql_acquire>
c0110b3a:	83 c4 10             	add    $0x10,%esp
c0110b3d:	8b 45 08             	mov    0x8(%ebp),%eax
c0110b40:	8b 40 04             	mov    0x4(%eax),%eax
c0110b43:	83 f8 02             	cmp    $0x2,%eax
c0110b46:	75 31                	jne    c0110b79 <kget_size+0x53>
c0110b48:	8b 45 08             	mov    0x8(%ebp),%eax
c0110b4b:	8b 40 0c             	mov    0xc(%eax),%eax
c0110b4e:	83 ec 08             	sub    $0x8,%esp
c0110b51:	8d 55 f0             	lea    -0x10(%ebp),%edx
c0110b54:	52                   	push   %edx
c0110b55:	50                   	push   %eax
c0110b56:	e8 7f f5 ff ff       	call   c01100da <fs_file_size>
c0110b5b:	83 c4 10             	add    $0x10,%esp
c0110b5e:	89 45 f4             	mov    %eax,-0xc(%ebp)
c0110b61:	83 7d f4 00          	cmpl   $0x0,-0xc(%ebp)
c0110b65:	79 2b                	jns    c0110b92 <kget_size+0x6c>
c0110b67:	83 ec 0c             	sub    $0xc,%esp
c0110b6a:	68 30 3a 11 c0       	push   $0xc0113a30
c0110b6f:	e8 2f 16 00 00       	call   c01121a3 <panic>
c0110b74:	83 c4 10             	add    $0x10,%esp
c0110b77:	eb fe                	jmp    c0110b77 <kget_size+0x51>
c0110b79:	83 ec 0c             	sub    $0xc,%esp
c0110b7c:	68 c1 39 11 c0       	push   $0xc01139c1
c0110b81:	e8 1d 16 00 00       	call   c01121a3 <panic>
c0110b86:	83 c4 10             	add    $0x10,%esp
c0110b89:	c7 45 f0 00 00 00 00 	movl   $0x0,-0x10(%ebp)
c0110b90:	eb 01                	jmp    c0110b93 <kget_size+0x6d>
c0110b92:	90                   	nop
c0110b93:	8b 45 08             	mov    0x8(%ebp),%eax
c0110b96:	8b 00                	mov    (%eax),%eax
c0110b98:	83 ec 0c             	sub    $0xc,%esp
c0110b9b:	50                   	push   %eax
c0110b9c:	e8 e0 b8 ff ff       	call   c010c481 <kql_release>
c0110ba1:	83 c4 10             	add    $0x10,%esp
c0110ba4:	8b 45 f0             	mov    -0x10(%ebp),%eax
c0110ba7:	c9                   	leave  
c0110ba8:	c3                   	ret    

c0110ba9 <kresize>:
c0110ba9:	55                   	push   %ebp
c0110baa:	89 e5                	mov    %esp,%ebp
c0110bac:	83 ec 18             	sub    $0x18,%esp
c0110baf:	8b 45 08             	mov    0x8(%ebp),%eax
c0110bb2:	8b 00                	mov    (%eax),%eax
c0110bb4:	83 ec 0c             	sub    $0xc,%esp
c0110bb7:	50                   	push   %eax
c0110bb8:	e8 0e b8 ff ff       	call   c010c3cb <kql_acquire>
c0110bbd:	83 c4 10             	add    $0x10,%esp
c0110bc0:	8b 45 08             	mov    0x8(%ebp),%eax
c0110bc3:	8b 40 04             	mov    0x4(%eax),%eax
c0110bc6:	83 f8 02             	cmp    $0x2,%eax
c0110bc9:	75 30                	jne    c0110bfb <kresize+0x52>
c0110bcb:	8b 45 08             	mov    0x8(%ebp),%eax
c0110bce:	8b 40 0c             	mov    0xc(%eax),%eax
c0110bd1:	83 ec 08             	sub    $0x8,%esp
c0110bd4:	ff 75 0c             	pushl  0xc(%ebp)
c0110bd7:	50                   	push   %eax
c0110bd8:	e8 8c f4 ff ff       	call   c0110069 <fs_resize_file>
c0110bdd:	83 c4 10             	add    $0x10,%esp
c0110be0:	89 45 f4             	mov    %eax,-0xc(%ebp)
c0110be3:	83 7d f4 00          	cmpl   $0x0,-0xc(%ebp)
c0110be7:	79 24                	jns    c0110c0d <kresize+0x64>
c0110be9:	83 ec 0c             	sub    $0xc,%esp
c0110bec:	68 3a 3a 11 c0       	push   $0xc0113a3a
c0110bf1:	e8 ad 15 00 00       	call   c01121a3 <panic>
c0110bf6:	83 c4 10             	add    $0x10,%esp
c0110bf9:	eb fe                	jmp    c0110bf9 <kresize+0x50>
c0110bfb:	83 ec 0c             	sub    $0xc,%esp
c0110bfe:	68 c1 39 11 c0       	push   $0xc01139c1
c0110c03:	e8 9b 15 00 00       	call   c01121a3 <panic>
c0110c08:	83 c4 10             	add    $0x10,%esp
c0110c0b:	eb 01                	jmp    c0110c0e <kresize+0x65>
c0110c0d:	90                   	nop
c0110c0e:	8b 45 08             	mov    0x8(%ebp),%eax
c0110c11:	8b 00                	mov    (%eax),%eax
c0110c13:	83 ec 0c             	sub    $0xc,%esp
c0110c16:	50                   	push   %eax
c0110c17:	e8 65 b8 ff ff       	call   c010c481 <kql_release>
c0110c1c:	83 c4 10             	add    $0x10,%esp
c0110c1f:	90                   	nop
c0110c20:	c9                   	leave  
c0110c21:	c3                   	ret    

c0110c22 <klist_dir>:
c0110c22:	55                   	push   %ebp
c0110c23:	89 e5                	mov    %esp,%ebp
c0110c25:	83 ec 18             	sub    $0x18,%esp
c0110c28:	8b 45 08             	mov    0x8(%ebp),%eax
c0110c2b:	8b 00                	mov    (%eax),%eax
c0110c2d:	83 ec 0c             	sub    $0xc,%esp
c0110c30:	50                   	push   %eax
c0110c31:	e8 95 b7 ff ff       	call   c010c3cb <kql_acquire>
c0110c36:	83 c4 10             	add    $0x10,%esp
c0110c39:	8b 45 08             	mov    0x8(%ebp),%eax
c0110c3c:	8b 40 04             	mov    0x4(%eax),%eax
c0110c3f:	83 f8 04             	cmp    $0x4,%eax
c0110c42:	0f 85 a7 00 00 00    	jne    c0110cef <klist_dir+0xcd>
c0110c48:	8b 45 08             	mov    0x8(%ebp),%eax
c0110c4b:	8b 40 0c             	mov    0xc(%eax),%eax
c0110c4e:	83 ec 08             	sub    $0x8,%esp
c0110c51:	8d 55 e8             	lea    -0x18(%ebp),%edx
c0110c54:	52                   	push   %edx
c0110c55:	50                   	push   %eax
c0110c56:	e8 97 eb ff ff       	call   c010f7f2 <fs_list_dir>
c0110c5b:	83 c4 10             	add    $0x10,%esp
c0110c5e:	89 45 f0             	mov    %eax,-0x10(%ebp)
c0110c61:	83 7d f0 00          	cmpl   $0x0,-0x10(%ebp)
c0110c65:	79 10                	jns    c0110c77 <klist_dir+0x55>
c0110c67:	83 ec 0c             	sub    $0xc,%esp
c0110c6a:	68 42 3a 11 c0       	push   $0xc0113a42
c0110c6f:	e8 2f 15 00 00       	call   c01121a3 <panic>
c0110c74:	83 c4 10             	add    $0x10,%esp
c0110c77:	c7 45 f4 00 00 00 00 	movl   $0x0,-0xc(%ebp)
c0110c7e:	eb 66                	jmp    c0110ce6 <klist_dir+0xc4>
c0110c80:	8b 45 e8             	mov    -0x18(%ebp),%eax
c0110c83:	8b 00                	mov    (%eax),%eax
c0110c85:	83 ec 0c             	sub    $0xc,%esp
c0110c88:	50                   	push   %eax
c0110c89:	e8 ee 14 00 00       	call   c011217c <strlen>
c0110c8e:	83 c4 10             	add    $0x10,%esp
c0110c91:	83 c0 01             	add    $0x1,%eax
c0110c94:	89 45 ec             	mov    %eax,-0x14(%ebp)
c0110c97:	8b 55 f4             	mov    -0xc(%ebp),%edx
c0110c9a:	8b 45 ec             	mov    -0x14(%ebp),%eax
c0110c9d:	01 d0                	add    %edx,%eax
c0110c9f:	39 45 10             	cmp    %eax,0x10(%ebp)
c0110ca2:	73 16                	jae    c0110cba <klist_dir+0x98>
c0110ca4:	8b 45 08             	mov    0x8(%ebp),%eax
c0110ca7:	8b 00                	mov    (%eax),%eax
c0110ca9:	83 ec 0c             	sub    $0xc,%esp
c0110cac:	50                   	push   %eax
c0110cad:	e8 cf b7 ff ff       	call   c010c481 <kql_release>
c0110cb2:	83 c4 10             	add    $0x10,%esp
c0110cb5:	8b 45 f4             	mov    -0xc(%ebp),%eax
c0110cb8:	eb 5c                	jmp    c0110d16 <klist_dir+0xf4>
c0110cba:	8b 45 e8             	mov    -0x18(%ebp),%eax
c0110cbd:	8b 00                	mov    (%eax),%eax
c0110cbf:	8b 4d 0c             	mov    0xc(%ebp),%ecx
c0110cc2:	8b 55 f4             	mov    -0xc(%ebp),%edx
c0110cc5:	01 ca                	add    %ecx,%edx
c0110cc7:	83 ec 04             	sub    $0x4,%esp
c0110cca:	ff 75 ec             	pushl  -0x14(%ebp)
c0110ccd:	50                   	push   %eax
c0110cce:	52                   	push   %edx
c0110ccf:	e8 82 14 00 00       	call   c0112156 <memcpy>
c0110cd4:	83 c4 10             	add    $0x10,%esp
c0110cd7:	8b 45 ec             	mov    -0x14(%ebp),%eax
c0110cda:	01 45 f4             	add    %eax,-0xc(%ebp)
c0110cdd:	8b 45 e8             	mov    -0x18(%ebp),%eax
c0110ce0:	8b 40 08             	mov    0x8(%eax),%eax
c0110ce3:	89 45 e8             	mov    %eax,-0x18(%ebp)
c0110ce6:	8b 45 e8             	mov    -0x18(%ebp),%eax
c0110ce9:	85 c0                	test   %eax,%eax
c0110ceb:	75 93                	jne    c0110c80 <klist_dir+0x5e>
c0110ced:	eb 11                	jmp    c0110d00 <klist_dir+0xde>
c0110cef:	83 ec 0c             	sub    $0xc,%esp
c0110cf2:	68 4c 3a 11 c0       	push   $0xc0113a4c
c0110cf7:	e8 a7 14 00 00       	call   c01121a3 <panic>
c0110cfc:	83 c4 10             	add    $0x10,%esp
c0110cff:	90                   	nop
c0110d00:	8b 45 08             	mov    0x8(%ebp),%eax
c0110d03:	8b 00                	mov    (%eax),%eax
c0110d05:	83 ec 0c             	sub    $0xc,%esp
c0110d08:	50                   	push   %eax
c0110d09:	e8 73 b7 ff ff       	call   c010c481 <kql_release>
c0110d0e:	83 c4 10             	add    $0x10,%esp
c0110d11:	b8 00 00 00 00       	mov    $0x0,%eax
c0110d16:	c9                   	leave  
c0110d17:	c3                   	ret    

c0110d18 <handle_interrupt>:
c0110d18:	55                   	push   %ebp
c0110d19:	89 e5                	mov    %esp,%ebp
c0110d1b:	57                   	push   %edi
c0110d1c:	56                   	push   %esi
c0110d1d:	53                   	push   %ebx
c0110d1e:	83 ec 1c             	sub    $0x1c,%esp
c0110d21:	8b 45 08             	mov    0x8(%ebp),%eax
c0110d24:	8b 40 2c             	mov    0x2c(%eax),%eax
c0110d27:	83 f8 1f             	cmp    $0x1f,%eax
c0110d2a:	0f 86 9f 00 00 00    	jbe    c0110dcf <handle_interrupt+0xb7>
c0110d30:	8b 45 08             	mov    0x8(%ebp),%eax
c0110d33:	8b 40 2c             	mov    0x2c(%eax),%eax
c0110d36:	83 f8 2f             	cmp    $0x2f,%eax
c0110d39:	0f 87 90 00 00 00    	ja     c0110dcf <handle_interrupt+0xb7>
c0110d3f:	8b 45 08             	mov    0x8(%ebp),%eax
c0110d42:	8b 40 2c             	mov    0x2c(%eax),%eax
c0110d45:	83 e8 20             	sub    $0x20,%eax
c0110d48:	89 45 e0             	mov    %eax,-0x20(%ebp)
c0110d4b:	8b 45 e0             	mov    -0x20(%ebp),%eax
c0110d4e:	83 f8 0e             	cmp    $0xe,%eax
c0110d51:	0f 84 0f 01 00 00    	je     c0110e66 <handle_interrupt+0x14e>
c0110d57:	83 f8 0e             	cmp    $0xe,%eax
c0110d5a:	7f 3d                	jg     c0110d99 <handle_interrupt+0x81>
c0110d5c:	85 c0                	test   %eax,%eax
c0110d5e:	74 07                	je     c0110d67 <handle_interrupt+0x4f>
c0110d60:	83 f8 01             	cmp    $0x1,%eax
c0110d63:	74 1b                	je     c0110d80 <handle_interrupt+0x68>
c0110d65:	eb 32                	jmp    c0110d99 <handle_interrupt+0x81>
c0110d67:	e8 bc 8d ff ff       	call   c0109b28 <timer_interrupt>
c0110d6c:	8b 45 e0             	mov    -0x20(%ebp),%eax
c0110d6f:	83 ec 0c             	sub    $0xc,%esp
c0110d72:	50                   	push   %eax
c0110d73:	e8 6a 83 ff ff       	call   c01090e2 <pic_eoi>
c0110d78:	83 c4 10             	add    $0x10,%esp
c0110d7b:	e9 e7 00 00 00       	jmp    c0110e67 <handle_interrupt+0x14f>
c0110d80:	e8 41 89 ff ff       	call   c01096c6 <kbd_interrupt>
c0110d85:	8b 45 e0             	mov    -0x20(%ebp),%eax
c0110d88:	83 ec 0c             	sub    $0xc,%esp
c0110d8b:	50                   	push   %eax
c0110d8c:	e8 51 83 ff ff       	call   c01090e2 <pic_eoi>
c0110d91:	83 c4 10             	add    $0x10,%esp
c0110d94:	e9 ce 00 00 00       	jmp    c0110e67 <handle_interrupt+0x14f>
c0110d99:	83 ec 0c             	sub    $0xc,%esp
c0110d9c:	68 68 3a 11 c0       	push   $0xc0113a68
c0110da1:	e8 1b 7c ff ff       	call   c01089c1 <vga_print>
c0110da6:	83 c4 10             	add    $0x10,%esp
c0110da9:	83 ec 08             	sub    $0x8,%esp
c0110dac:	6a 04                	push   $0x4
c0110dae:	8d 45 e0             	lea    -0x20(%ebp),%eax
c0110db1:	50                   	push   %eax
c0110db2:	e8 99 7b ff ff       	call   c0108950 <vga_print_mem>
c0110db7:	83 c4 10             	add    $0x10,%esp
c0110dba:	83 ec 0c             	sub    $0xc,%esp
c0110dbd:	68 78 3a 11 c0       	push   $0xc0113a78
c0110dc2:	e8 fa 7b ff ff       	call   c01089c1 <vga_print>
c0110dc7:	83 c4 10             	add    $0x10,%esp
c0110dca:	e9 98 00 00 00       	jmp    c0110e67 <handle_interrupt+0x14f>
c0110dcf:	8b 45 08             	mov    0x8(%ebp),%eax
c0110dd2:	8b 40 2c             	mov    0x2c(%eax),%eax
c0110dd5:	83 f8 0e             	cmp    $0xe,%eax
c0110dd8:	75 1b                	jne    c0110df5 <handle_interrupt+0xdd>
c0110dda:	e8 66 96 ff ff       	call   c010a445 <get_cr2>
c0110ddf:	89 45 e4             	mov    %eax,-0x1c(%ebp)
c0110de2:	83 ec 08             	sub    $0x8,%esp
c0110de5:	ff 75 e4             	pushl  -0x1c(%ebp)
c0110de8:	ff 75 08             	pushl  0x8(%ebp)
c0110deb:	e8 4d 93 ff ff       	call   c010a13d <page_fault>
c0110df0:	83 c4 10             	add    $0x10,%esp
c0110df3:	eb 72                	jmp    c0110e67 <handle_interrupt+0x14f>
c0110df5:	8b 45 08             	mov    0x8(%ebp),%eax
c0110df8:	8b 40 2c             	mov    0x2c(%eax),%eax
c0110dfb:	83 ec 08             	sub    $0x8,%esp
c0110dfe:	50                   	push   %eax
c0110dff:	68 7c 3a 11 c0       	push   $0xc0113a7c
c0110e04:	e8 1a 0e 00 00       	call   c0111c23 <printf>
c0110e09:	83 c4 10             	add    $0x10,%esp
c0110e0c:	8b 45 08             	mov    0x8(%ebp),%eax
c0110e0f:	8b 50 34             	mov    0x34(%eax),%edx
c0110e12:	8b 45 08             	mov    0x8(%ebp),%eax
c0110e15:	8b 40 38             	mov    0x38(%eax),%eax
c0110e18:	83 ec 04             	sub    $0x4,%esp
c0110e1b:	52                   	push   %edx
c0110e1c:	50                   	push   %eax
c0110e1d:	68 9e 3a 11 c0       	push   $0xc0113a9e
c0110e22:	e8 fc 0d 00 00       	call   c0111c23 <printf>
c0110e27:	83 c4 10             	add    $0x10,%esp
c0110e2a:	8b 45 08             	mov    0x8(%ebp),%eax
c0110e2d:	8b 78 28             	mov    0x28(%eax),%edi
c0110e30:	8b 45 08             	mov    0x8(%ebp),%eax
c0110e33:	8b 70 24             	mov    0x24(%eax),%esi
c0110e36:	8b 45 08             	mov    0x8(%ebp),%eax
c0110e39:	8b 58 14             	mov    0x14(%eax),%ebx
c0110e3c:	8b 45 08             	mov    0x8(%ebp),%eax
c0110e3f:	8b 48 18             	mov    0x18(%eax),%ecx
c0110e42:	8b 45 08             	mov    0x8(%ebp),%eax
c0110e45:	8b 50 1c             	mov    0x1c(%eax),%edx
c0110e48:	8b 45 08             	mov    0x8(%ebp),%eax
c0110e4b:	8b 40 20             	mov    0x20(%eax),%eax
c0110e4e:	83 ec 04             	sub    $0x4,%esp
c0110e51:	57                   	push   %edi
c0110e52:	56                   	push   %esi
c0110e53:	53                   	push   %ebx
c0110e54:	51                   	push   %ecx
c0110e55:	52                   	push   %edx
c0110e56:	50                   	push   %eax
c0110e57:	68 b4 3a 11 c0       	push   $0xc0113ab4
c0110e5c:	e8 c2 0d 00 00       	call   c0111c23 <printf>
c0110e61:	83 c4 20             	add    $0x20,%esp
c0110e64:	eb fe                	jmp    c0110e64 <handle_interrupt+0x14c>
c0110e66:	90                   	nop
c0110e67:	8d 65 f4             	lea    -0xc(%ebp),%esp
c0110e6a:	5b                   	pop    %ebx
c0110e6b:	5e                   	pop    %esi
c0110e6c:	5f                   	pop    %edi
c0110e6d:	5d                   	pop    %ebp
c0110e6e:	c3                   	ret    

c0110e6f <get_interrupt_flag>:
c0110e6f:	9c                   	pushf  
c0110e70:	58                   	pop    %eax
c0110e71:	a9 00 02 00 00       	test   $0x200,%eax
c0110e76:	74 07                	je     c0110e7f <get_interrupt_flag+0x10>
c0110e78:	b8 01 00 00 00       	mov    $0x1,%eax
c0110e7d:	eb 05                	jmp    c0110e84 <get_interrupt_flag+0x15>
c0110e7f:	b8 00 00 00 00       	mov    $0x0,%eax
c0110e84:	c3                   	ret    

c0110e85 <set_interrupt_flag>:
c0110e85:	9c                   	pushf  
c0110e86:	58                   	pop    %eax
c0110e87:	a9 00 02 00 00       	test   $0x200,%eax
c0110e8c:	74 07                	je     c0110e95 <set_interrupt_flag+0x10>
c0110e8e:	b8 01 00 00 00       	mov    $0x1,%eax
c0110e93:	eb 05                	jmp    c0110e9a <set_interrupt_flag+0x15>
c0110e95:	b8 00 00 00 00       	mov    $0x0,%eax
c0110e9a:	8b 5c 24 04          	mov    0x4(%esp),%ebx
c0110e9e:	85 db                	test   %ebx,%ebx
c0110ea0:	74 02                	je     c0110ea4 <set_interrupt_flag+0x1f>
c0110ea2:	fb                   	sti    
c0110ea3:	c3                   	ret    
c0110ea4:	fa                   	cli    
c0110ea5:	c3                   	ret    

c0110ea6 <get_syscall_arg>:
c0110ea6:	55                   	push   %ebp
c0110ea7:	89 e5                	mov    %esp,%ebp
c0110ea9:	83 ec 08             	sub    $0x8,%esp
c0110eac:	83 7d 0c 05          	cmpl   $0x5,0xc(%ebp)
c0110eb0:	77 3f                	ja     c0110ef1 <get_syscall_arg+0x4b>
c0110eb2:	8b 45 0c             	mov    0xc(%ebp),%eax
c0110eb5:	c1 e0 02             	shl    $0x2,%eax
c0110eb8:	05 14 3b 11 c0       	add    $0xc0113b14,%eax
c0110ebd:	8b 00                	mov    (%eax),%eax
c0110ebf:	ff e0                	jmp    *%eax
c0110ec1:	8b 45 08             	mov    0x8(%ebp),%eax
c0110ec4:	8b 40 20             	mov    0x20(%eax),%eax
c0110ec7:	eb 3d                	jmp    c0110f06 <get_syscall_arg+0x60>
c0110ec9:	8b 45 08             	mov    0x8(%ebp),%eax
c0110ecc:	8b 40 1c             	mov    0x1c(%eax),%eax
c0110ecf:	eb 35                	jmp    c0110f06 <get_syscall_arg+0x60>
c0110ed1:	8b 45 08             	mov    0x8(%ebp),%eax
c0110ed4:	8b 40 18             	mov    0x18(%eax),%eax
c0110ed7:	eb 2d                	jmp    c0110f06 <get_syscall_arg+0x60>
c0110ed9:	8b 45 08             	mov    0x8(%ebp),%eax
c0110edc:	8b 40 14             	mov    0x14(%eax),%eax
c0110edf:	eb 25                	jmp    c0110f06 <get_syscall_arg+0x60>
c0110ee1:	8b 45 08             	mov    0x8(%ebp),%eax
c0110ee4:	8b 40 28             	mov    0x28(%eax),%eax
c0110ee7:	eb 1d                	jmp    c0110f06 <get_syscall_arg+0x60>
c0110ee9:	8b 45 08             	mov    0x8(%ebp),%eax
c0110eec:	8b 40 24             	mov    0x24(%eax),%eax
c0110eef:	eb 15                	jmp    c0110f06 <get_syscall_arg+0x60>
c0110ef1:	83 ec 0c             	sub    $0xc,%esp
c0110ef4:	68 f0 3a 11 c0       	push   $0xc0113af0
c0110ef9:	e8 a5 12 00 00       	call   c01121a3 <panic>
c0110efe:	83 c4 10             	add    $0x10,%esp
c0110f01:	b8 00 00 00 00       	mov    $0x0,%eax
c0110f06:	c9                   	leave  
c0110f07:	c3                   	ret    

c0110f08 <set_syscall_arg>:
c0110f08:	55                   	push   %ebp
c0110f09:	89 e5                	mov    %esp,%ebp
c0110f0b:	83 ec 08             	sub    $0x8,%esp
c0110f0e:	83 7d 0c 05          	cmpl   $0x5,0xc(%ebp)
c0110f12:	77 51                	ja     c0110f65 <set_syscall_arg+0x5d>
c0110f14:	8b 45 0c             	mov    0xc(%ebp),%eax
c0110f17:	c1 e0 02             	shl    $0x2,%eax
c0110f1a:	05 50 3b 11 c0       	add    $0xc0113b50,%eax
c0110f1f:	8b 00                	mov    (%eax),%eax
c0110f21:	ff e0                	jmp    *%eax
c0110f23:	8b 45 08             	mov    0x8(%ebp),%eax
c0110f26:	8b 55 10             	mov    0x10(%ebp),%edx
c0110f29:	89 50 20             	mov    %edx,0x20(%eax)
c0110f2c:	eb 48                	jmp    c0110f76 <set_syscall_arg+0x6e>
c0110f2e:	8b 45 08             	mov    0x8(%ebp),%eax
c0110f31:	8b 55 10             	mov    0x10(%ebp),%edx
c0110f34:	89 50 1c             	mov    %edx,0x1c(%eax)
c0110f37:	eb 3d                	jmp    c0110f76 <set_syscall_arg+0x6e>
c0110f39:	8b 45 08             	mov    0x8(%ebp),%eax
c0110f3c:	8b 55 10             	mov    0x10(%ebp),%edx
c0110f3f:	89 50 18             	mov    %edx,0x18(%eax)
c0110f42:	eb 32                	jmp    c0110f76 <set_syscall_arg+0x6e>
c0110f44:	8b 45 08             	mov    0x8(%ebp),%eax
c0110f47:	8b 55 10             	mov    0x10(%ebp),%edx
c0110f4a:	89 50 14             	mov    %edx,0x14(%eax)
c0110f4d:	eb 27                	jmp    c0110f76 <set_syscall_arg+0x6e>
c0110f4f:	8b 45 08             	mov    0x8(%ebp),%eax
c0110f52:	8b 55 10             	mov    0x10(%ebp),%edx
c0110f55:	89 50 28             	mov    %edx,0x28(%eax)
c0110f58:	eb 1c                	jmp    c0110f76 <set_syscall_arg+0x6e>
c0110f5a:	8b 45 08             	mov    0x8(%ebp),%eax
c0110f5d:	8b 55 10             	mov    0x10(%ebp),%edx
c0110f60:	89 50 24             	mov    %edx,0x24(%eax)
c0110f63:	eb 11                	jmp    c0110f76 <set_syscall_arg+0x6e>
c0110f65:	83 ec 0c             	sub    $0xc,%esp
c0110f68:	68 2c 3b 11 c0       	push   $0xc0113b2c
c0110f6d:	e8 31 12 00 00       	call   c01121a3 <panic>
c0110f72:	83 c4 10             	add    $0x10,%esp
c0110f75:	90                   	nop
c0110f76:	c9                   	leave  
c0110f77:	c3                   	ret    

c0110f78 <handle_syscall>:
c0110f78:	55                   	push   %ebp
c0110f79:	89 e5                	mov    %esp,%ebp
c0110f7b:	57                   	push   %edi
c0110f7c:	56                   	push   %esi
c0110f7d:	53                   	push   %ebx
c0110f7e:	81 ec ac 00 00 00    	sub    $0xac,%esp
c0110f84:	8b 45 08             	mov    0x8(%ebp),%eax
c0110f87:	8b 40 20             	mov    0x20(%eax),%eax
c0110f8a:	83 f8 24             	cmp    $0x24,%eax
c0110f8d:	0f 87 a2 0a 00 00    	ja     c0111a35 <handle_syscall+0xabd>
c0110f93:	8b 04 85 ec 3b 11 c0 	mov    -0x3feec414(,%eax,4),%eax
c0110f9a:	ff e0                	jmp    *%eax
c0110f9c:	83 ec 0c             	sub    $0xc,%esp
c0110f9f:	ff 75 08             	pushl  0x8(%ebp)
c0110fa2:	e8 bc ac ff ff       	call   c010bc63 <do_proc_fork>
c0110fa7:	83 c4 10             	add    $0x10,%esp
c0110faa:	e9 da 0a 00 00       	jmp    c0111a89 <handle_syscall+0xb11>
c0110faf:	83 ec 08             	sub    $0x8,%esp
c0110fb2:	6a 03                	push   $0x3
c0110fb4:	ff 75 08             	pushl  0x8(%ebp)
c0110fb7:	e8 ea fe ff ff       	call   c0110ea6 <get_syscall_arg>
c0110fbc:	83 c4 10             	add    $0x10,%esp
c0110fbf:	89 c6                	mov    %eax,%esi
c0110fc1:	83 ec 08             	sub    $0x8,%esp
c0110fc4:	6a 02                	push   $0x2
c0110fc6:	ff 75 08             	pushl  0x8(%ebp)
c0110fc9:	e8 d8 fe ff ff       	call   c0110ea6 <get_syscall_arg>
c0110fce:	83 c4 10             	add    $0x10,%esp
c0110fd1:	89 c3                	mov    %eax,%ebx
c0110fd3:	83 ec 08             	sub    $0x8,%esp
c0110fd6:	6a 01                	push   $0x1
c0110fd8:	ff 75 08             	pushl  0x8(%ebp)
c0110fdb:	e8 c6 fe ff ff       	call   c0110ea6 <get_syscall_arg>
c0110fe0:	83 c4 10             	add    $0x10,%esp
c0110fe3:	83 ec 04             	sub    $0x4,%esp
c0110fe6:	56                   	push   %esi
c0110fe7:	53                   	push   %ebx
c0110fe8:	50                   	push   %eax
c0110fe9:	e8 3b ad ff ff       	call   c010bd29 <kproc_exec>
c0110fee:	83 c4 10             	add    $0x10,%esp
c0110ff1:	e9 93 0a 00 00       	jmp    c0111a89 <handle_syscall+0xb11>
c0110ff6:	83 ec 08             	sub    $0x8,%esp
c0110ff9:	6a 01                	push   $0x1
c0110ffb:	ff 75 08             	pushl  0x8(%ebp)
c0110ffe:	e8 a3 fe ff ff       	call   c0110ea6 <get_syscall_arg>
c0111003:	83 c4 10             	add    $0x10,%esp
c0111006:	83 ec 0c             	sub    $0xc,%esp
c0111009:	50                   	push   %eax
c011100a:	e8 94 af ff ff       	call   c010bfa3 <kproc_exit>
c011100f:	83 c4 10             	add    $0x10,%esp
c0111012:	e9 72 0a 00 00       	jmp    c0111a89 <handle_syscall+0xb11>
c0111017:	83 ec 08             	sub    $0x8,%esp
c011101a:	6a 01                	push   $0x1
c011101c:	ff 75 08             	pushl  0x8(%ebp)
c011101f:	e8 82 fe ff ff       	call   c0110ea6 <get_syscall_arg>
c0111024:	83 c4 10             	add    $0x10,%esp
c0111027:	83 ec 0c             	sub    $0xc,%esp
c011102a:	50                   	push   %eax
c011102b:	e8 14 b2 ff ff       	call   c010c244 <kproc_wait>
c0111030:	83 c4 10             	add    $0x10,%esp
c0111033:	89 c2                	mov    %eax,%edx
c0111035:	8b 45 08             	mov    0x8(%ebp),%eax
c0111038:	89 50 20             	mov    %edx,0x20(%eax)
c011103b:	e9 49 0a 00 00       	jmp    c0111a89 <handle_syscall+0xb11>
c0111040:	83 ec 08             	sub    $0x8,%esp
c0111043:	6a 02                	push   $0x2
c0111045:	ff 75 08             	pushl  0x8(%ebp)
c0111048:	e8 59 fe ff ff       	call   c0110ea6 <get_syscall_arg>
c011104d:	83 c4 10             	add    $0x10,%esp
c0111050:	89 c3                	mov    %eax,%ebx
c0111052:	83 ec 08             	sub    $0x8,%esp
c0111055:	6a 01                	push   $0x1
c0111057:	ff 75 08             	pushl  0x8(%ebp)
c011105a:	e8 47 fe ff ff       	call   c0110ea6 <get_syscall_arg>
c011105f:	83 c4 10             	add    $0x10,%esp
c0111062:	83 ec 08             	sub    $0x8,%esp
c0111065:	53                   	push   %ebx
c0111066:	50                   	push   %eax
c0111067:	e8 ee a0 ff ff       	call   c010b15a <kthread_create>
c011106c:	83 c4 10             	add    $0x10,%esp
c011106f:	8b 55 08             	mov    0x8(%ebp),%edx
c0111072:	89 42 20             	mov    %eax,0x20(%edx)
c0111075:	e9 0f 0a 00 00       	jmp    c0111a89 <handle_syscall+0xb11>
c011107a:	e8 64 a2 ff ff       	call   c010b2e3 <kthread_yield>
c011107f:	e9 05 0a 00 00       	jmp    c0111a89 <handle_syscall+0xb11>
c0111084:	83 ec 08             	sub    $0x8,%esp
c0111087:	6a 01                	push   $0x1
c0111089:	ff 75 08             	pushl  0x8(%ebp)
c011108c:	e8 15 fe ff ff       	call   c0110ea6 <get_syscall_arg>
c0111091:	83 c4 10             	add    $0x10,%esp
c0111094:	83 ec 0c             	sub    $0xc,%esp
c0111097:	50                   	push   %eax
c0111098:	e8 4b a3 ff ff       	call   c010b3e8 <kthread_join>
c011109d:	83 c4 10             	add    $0x10,%esp
c01110a0:	89 c2                	mov    %eax,%edx
c01110a2:	8b 45 08             	mov    0x8(%ebp),%eax
c01110a5:	89 50 20             	mov    %edx,0x20(%eax)
c01110a8:	e9 dc 09 00 00       	jmp    c0111a89 <handle_syscall+0xb11>
c01110ad:	83 ec 08             	sub    $0x8,%esp
c01110b0:	6a 01                	push   $0x1
c01110b2:	ff 75 08             	pushl  0x8(%ebp)
c01110b5:	e8 ec fd ff ff       	call   c0110ea6 <get_syscall_arg>
c01110ba:	83 c4 10             	add    $0x10,%esp
c01110bd:	83 ec 0c             	sub    $0xc,%esp
c01110c0:	50                   	push   %eax
c01110c1:	e8 2b a2 ff ff       	call   c010b2f1 <kthread_exit>
c01110c6:	83 c4 10             	add    $0x10,%esp
c01110c9:	e9 bb 09 00 00       	jmp    c0111a89 <handle_syscall+0xb11>
c01110ce:	e8 67 b2 ff ff       	call   c010c33a <kql_create>
c01110d3:	89 85 50 ff ff ff    	mov    %eax,-0xb0(%ebp)
c01110d9:	e8 85 98 ff ff       	call   c010a963 <curr_process>
c01110de:	83 ec 08             	sub    $0x8,%esp
c01110e1:	ff b5 50 ff ff ff    	pushl  -0xb0(%ebp)
c01110e7:	50                   	push   %eax
c01110e8:	e8 9b a5 ff ff       	call   c010b688 <proc_add_lock>
c01110ed:	83 c4 10             	add    $0x10,%esp
c01110f0:	8b 55 08             	mov    0x8(%ebp),%edx
c01110f3:	89 42 20             	mov    %eax,0x20(%edx)
c01110f6:	e9 8e 09 00 00       	jmp    c0111a89 <handle_syscall+0xb11>
c01110fb:	83 ec 08             	sub    $0x8,%esp
c01110fe:	6a 01                	push   $0x1
c0111100:	ff 75 08             	pushl  0x8(%ebp)
c0111103:	e8 9e fd ff ff       	call   c0110ea6 <get_syscall_arg>
c0111108:	83 c4 10             	add    $0x10,%esp
c011110b:	89 c3                	mov    %eax,%ebx
c011110d:	e8 51 98 ff ff       	call   c010a963 <curr_process>
c0111112:	83 ec 08             	sub    $0x8,%esp
c0111115:	53                   	push   %ebx
c0111116:	50                   	push   %eax
c0111117:	e8 fa a5 ff ff       	call   c010b716 <proc_remove_lock>
c011111c:	83 c4 10             	add    $0x10,%esp
c011111f:	89 85 54 ff ff ff    	mov    %eax,-0xac(%ebp)
c0111125:	83 ec 0c             	sub    $0xc,%esp
c0111128:	ff b5 54 ff ff ff    	pushl  -0xac(%ebp)
c011112e:	e8 4b b2 ff ff       	call   c010c37e <kql_delete>
c0111133:	83 c4 10             	add    $0x10,%esp
c0111136:	e9 4e 09 00 00       	jmp    c0111a89 <handle_syscall+0xb11>
c011113b:	83 ec 08             	sub    $0x8,%esp
c011113e:	6a 01                	push   $0x1
c0111140:	ff 75 08             	pushl  0x8(%ebp)
c0111143:	e8 5e fd ff ff       	call   c0110ea6 <get_syscall_arg>
c0111148:	83 c4 10             	add    $0x10,%esp
c011114b:	89 c3                	mov    %eax,%ebx
c011114d:	e8 11 98 ff ff       	call   c010a963 <curr_process>
c0111152:	83 ec 08             	sub    $0x8,%esp
c0111155:	53                   	push   %ebx
c0111156:	50                   	push   %eax
c0111157:	e8 73 a5 ff ff       	call   c010b6cf <proc_get_lock>
c011115c:	83 c4 10             	add    $0x10,%esp
c011115f:	89 85 58 ff ff ff    	mov    %eax,-0xa8(%ebp)
c0111165:	83 ec 0c             	sub    $0xc,%esp
c0111168:	ff b5 58 ff ff ff    	pushl  -0xa8(%ebp)
c011116e:	e8 58 b2 ff ff       	call   c010c3cb <kql_acquire>
c0111173:	83 c4 10             	add    $0x10,%esp
c0111176:	e9 0e 09 00 00       	jmp    c0111a89 <handle_syscall+0xb11>
c011117b:	83 ec 08             	sub    $0x8,%esp
c011117e:	6a 01                	push   $0x1
c0111180:	ff 75 08             	pushl  0x8(%ebp)
c0111183:	e8 1e fd ff ff       	call   c0110ea6 <get_syscall_arg>
c0111188:	83 c4 10             	add    $0x10,%esp
c011118b:	89 c3                	mov    %eax,%ebx
c011118d:	e8 d1 97 ff ff       	call   c010a963 <curr_process>
c0111192:	83 ec 08             	sub    $0x8,%esp
c0111195:	53                   	push   %ebx
c0111196:	50                   	push   %eax
c0111197:	e8 33 a5 ff ff       	call   c010b6cf <proc_get_lock>
c011119c:	83 c4 10             	add    $0x10,%esp
c011119f:	89 85 5c ff ff ff    	mov    %eax,-0xa4(%ebp)
c01111a5:	83 ec 0c             	sub    $0xc,%esp
c01111a8:	ff b5 5c ff ff ff    	pushl  -0xa4(%ebp)
c01111ae:	e8 ce b2 ff ff       	call   c010c481 <kql_release>
c01111b3:	83 c4 10             	add    $0x10,%esp
c01111b6:	e9 ce 08 00 00       	jmp    c0111a89 <handle_syscall+0xb11>
c01111bb:	83 ec 08             	sub    $0x8,%esp
c01111be:	6a 02                	push   $0x2
c01111c0:	ff 75 08             	pushl  0x8(%ebp)
c01111c3:	e8 de fc ff ff       	call   c0110ea6 <get_syscall_arg>
c01111c8:	83 c4 10             	add    $0x10,%esp
c01111cb:	0f b6 d8             	movzbl %al,%ebx
c01111ce:	83 ec 08             	sub    $0x8,%esp
c01111d1:	6a 01                	push   $0x1
c01111d3:	ff 75 08             	pushl  0x8(%ebp)
c01111d6:	e8 cb fc ff ff       	call   c0110ea6 <get_syscall_arg>
c01111db:	83 c4 10             	add    $0x10,%esp
c01111de:	83 ec 08             	sub    $0x8,%esp
c01111e1:	53                   	push   %ebx
c01111e2:	50                   	push   %eax
c01111e3:	e8 49 f2 ff ff       	call   c0110431 <kopen>
c01111e8:	83 c4 10             	add    $0x10,%esp
c01111eb:	89 85 60 ff ff ff    	mov    %eax,-0xa0(%ebp)
c01111f1:	e8 6d 97 ff ff       	call   c010a963 <curr_process>
c01111f6:	83 ec 08             	sub    $0x8,%esp
c01111f9:	ff b5 60 ff ff ff    	pushl  -0xa0(%ebp)
c01111ff:	50                   	push   %eax
c0111200:	e8 31 a6 ff ff       	call   c010b836 <proc_add_fd>
c0111205:	83 c4 10             	add    $0x10,%esp
c0111208:	8b 55 08             	mov    0x8(%ebp),%edx
c011120b:	89 42 20             	mov    %eax,0x20(%edx)
c011120e:	e9 76 08 00 00       	jmp    c0111a89 <handle_syscall+0xb11>
c0111213:	83 ec 08             	sub    $0x8,%esp
c0111216:	6a 01                	push   $0x1
c0111218:	ff 75 08             	pushl  0x8(%ebp)
c011121b:	e8 86 fc ff ff       	call   c0110ea6 <get_syscall_arg>
c0111220:	83 c4 10             	add    $0x10,%esp
c0111223:	89 c3                	mov    %eax,%ebx
c0111225:	e8 39 97 ff ff       	call   c010a963 <curr_process>
c011122a:	83 ec 08             	sub    $0x8,%esp
c011122d:	53                   	push   %ebx
c011122e:	50                   	push   %eax
c011122f:	e8 90 a6 ff ff       	call   c010b8c4 <proc_remove_fd>
c0111234:	83 c4 10             	add    $0x10,%esp
c0111237:	89 85 64 ff ff ff    	mov    %eax,-0x9c(%ebp)
c011123d:	83 ec 0c             	sub    $0xc,%esp
c0111240:	ff b5 64 ff ff ff    	pushl  -0x9c(%ebp)
c0111246:	e8 0e f3 ff ff       	call   c0110559 <kclose>
c011124b:	83 c4 10             	add    $0x10,%esp
c011124e:	e9 36 08 00 00       	jmp    c0111a89 <handle_syscall+0xb11>
c0111253:	83 ec 08             	sub    $0x8,%esp
c0111256:	6a 01                	push   $0x1
c0111258:	ff 75 08             	pushl  0x8(%ebp)
c011125b:	e8 46 fc ff ff       	call   c0110ea6 <get_syscall_arg>
c0111260:	83 c4 10             	add    $0x10,%esp
c0111263:	89 c3                	mov    %eax,%ebx
c0111265:	e8 f9 96 ff ff       	call   c010a963 <curr_process>
c011126a:	83 ec 08             	sub    $0x8,%esp
c011126d:	53                   	push   %ebx
c011126e:	50                   	push   %eax
c011126f:	e8 09 a6 ff ff       	call   c010b87d <proc_get_fd>
c0111274:	83 c4 10             	add    $0x10,%esp
c0111277:	89 85 68 ff ff ff    	mov    %eax,-0x98(%ebp)
c011127d:	83 ec 08             	sub    $0x8,%esp
c0111280:	6a 03                	push   $0x3
c0111282:	ff 75 08             	pushl  0x8(%ebp)
c0111285:	e8 1c fc ff ff       	call   c0110ea6 <get_syscall_arg>
c011128a:	83 c4 10             	add    $0x10,%esp
c011128d:	89 c3                	mov    %eax,%ebx
c011128f:	83 ec 08             	sub    $0x8,%esp
c0111292:	6a 02                	push   $0x2
c0111294:	ff 75 08             	pushl  0x8(%ebp)
c0111297:	e8 0a fc ff ff       	call   c0110ea6 <get_syscall_arg>
c011129c:	83 c4 10             	add    $0x10,%esp
c011129f:	83 ec 04             	sub    $0x4,%esp
c01112a2:	53                   	push   %ebx
c01112a3:	50                   	push   %eax
c01112a4:	ff b5 68 ff ff ff    	pushl  -0x98(%ebp)
c01112aa:	e8 a0 f5 ff ff       	call   c011084f <kread>
c01112af:	83 c4 10             	add    $0x10,%esp
c01112b2:	89 c2                	mov    %eax,%edx
c01112b4:	8b 45 08             	mov    0x8(%ebp),%eax
c01112b7:	89 50 20             	mov    %edx,0x20(%eax)
c01112ba:	e9 ca 07 00 00       	jmp    c0111a89 <handle_syscall+0xb11>
c01112bf:	83 ec 08             	sub    $0x8,%esp
c01112c2:	6a 01                	push   $0x1
c01112c4:	ff 75 08             	pushl  0x8(%ebp)
c01112c7:	e8 da fb ff ff       	call   c0110ea6 <get_syscall_arg>
c01112cc:	83 c4 10             	add    $0x10,%esp
c01112cf:	89 c3                	mov    %eax,%ebx
c01112d1:	e8 8d 96 ff ff       	call   c010a963 <curr_process>
c01112d6:	83 ec 08             	sub    $0x8,%esp
c01112d9:	53                   	push   %ebx
c01112da:	50                   	push   %eax
c01112db:	e8 9d a5 ff ff       	call   c010b87d <proc_get_fd>
c01112e0:	83 c4 10             	add    $0x10,%esp
c01112e3:	89 85 6c ff ff ff    	mov    %eax,-0x94(%ebp)
c01112e9:	83 ec 08             	sub    $0x8,%esp
c01112ec:	6a 03                	push   $0x3
c01112ee:	ff 75 08             	pushl  0x8(%ebp)
c01112f1:	e8 b0 fb ff ff       	call   c0110ea6 <get_syscall_arg>
c01112f6:	83 c4 10             	add    $0x10,%esp
c01112f9:	89 c3                	mov    %eax,%ebx
c01112fb:	83 ec 08             	sub    $0x8,%esp
c01112fe:	6a 02                	push   $0x2
c0111300:	ff 75 08             	pushl  0x8(%ebp)
c0111303:	e8 9e fb ff ff       	call   c0110ea6 <get_syscall_arg>
c0111308:	83 c4 10             	add    $0x10,%esp
c011130b:	83 ec 04             	sub    $0x4,%esp
c011130e:	53                   	push   %ebx
c011130f:	50                   	push   %eax
c0111310:	ff b5 6c ff ff ff    	pushl  -0x94(%ebp)
c0111316:	e8 3d f4 ff ff       	call   c0110758 <kwrite>
c011131b:	83 c4 10             	add    $0x10,%esp
c011131e:	89 c2                	mov    %eax,%edx
c0111320:	8b 45 08             	mov    0x8(%ebp),%eax
c0111323:	89 50 20             	mov    %edx,0x20(%eax)
c0111326:	e9 5e 07 00 00       	jmp    c0111a89 <handle_syscall+0xb11>
c011132b:	83 ec 08             	sub    $0x8,%esp
c011132e:	6a 01                	push   $0x1
c0111330:	ff 75 08             	pushl  0x8(%ebp)
c0111333:	e8 6e fb ff ff       	call   c0110ea6 <get_syscall_arg>
c0111338:	83 c4 10             	add    $0x10,%esp
c011133b:	89 85 74 ff ff ff    	mov    %eax,-0x8c(%ebp)
c0111341:	83 ec 08             	sub    $0x8,%esp
c0111344:	6a 02                	push   $0x2
c0111346:	ff 75 08             	pushl  0x8(%ebp)
c0111349:	e8 58 fb ff ff       	call   c0110ea6 <get_syscall_arg>
c011134e:	83 c4 10             	add    $0x10,%esp
c0111351:	89 85 70 ff ff ff    	mov    %eax,-0x90(%ebp)
c0111357:	83 ec 08             	sub    $0x8,%esp
c011135a:	8d 85 48 ff ff ff    	lea    -0xb8(%ebp),%eax
c0111360:	50                   	push   %eax
c0111361:	8d 85 4c ff ff ff    	lea    -0xb4(%ebp),%eax
c0111367:	50                   	push   %eax
c0111368:	e8 d9 f5 ff ff       	call   c0110946 <kpipe>
c011136d:	83 c4 10             	add    $0x10,%esp
c0111370:	8b 9d 4c ff ff ff    	mov    -0xb4(%ebp),%ebx
c0111376:	e8 e8 95 ff ff       	call   c010a963 <curr_process>
c011137b:	83 ec 08             	sub    $0x8,%esp
c011137e:	53                   	push   %ebx
c011137f:	50                   	push   %eax
c0111380:	e8 b1 a4 ff ff       	call   c010b836 <proc_add_fd>
c0111385:	83 c4 10             	add    $0x10,%esp
c0111388:	8b 95 74 ff ff ff    	mov    -0x8c(%ebp),%edx
c011138e:	89 02                	mov    %eax,(%edx)
c0111390:	8b 9d 48 ff ff ff    	mov    -0xb8(%ebp),%ebx
c0111396:	e8 c8 95 ff ff       	call   c010a963 <curr_process>
c011139b:	83 ec 08             	sub    $0x8,%esp
c011139e:	53                   	push   %ebx
c011139f:	50                   	push   %eax
c01113a0:	e8 91 a4 ff ff       	call   c010b836 <proc_add_fd>
c01113a5:	83 c4 10             	add    $0x10,%esp
c01113a8:	8b 95 70 ff ff ff    	mov    -0x90(%ebp),%edx
c01113ae:	89 02                	mov    %eax,(%edx)
c01113b0:	e9 d4 06 00 00       	jmp    c0111a89 <handle_syscall+0xb11>
c01113b5:	e8 a9 95 ff ff       	call   c010a963 <curr_process>
c01113ba:	83 ec 08             	sub    $0x8,%esp
c01113bd:	6a 01                	push   $0x1
c01113bf:	50                   	push   %eax
c01113c0:	e8 e1 fa ff ff       	call   c0110ea6 <get_syscall_arg>
c01113c5:	83 c4 10             	add    $0x10,%esp
c01113c8:	89 c3                	mov    %eax,%ebx
c01113ca:	e8 94 95 ff ff       	call   c010a963 <curr_process>
c01113cf:	83 ec 08             	sub    $0x8,%esp
c01113d2:	53                   	push   %ebx
c01113d3:	50                   	push   %eax
c01113d4:	e8 a4 a4 ff ff       	call   c010b87d <proc_get_fd>
c01113d9:	83 c4 10             	add    $0x10,%esp
c01113dc:	89 45 b0             	mov    %eax,-0x50(%ebp)
c01113df:	83 7d b0 00          	cmpl   $0x0,-0x50(%ebp)
c01113e3:	75 10                	jne    c01113f5 <handle_syscall+0x47d>
c01113e5:	83 ec 0c             	sub    $0xc,%esp
c01113e8:	68 68 3b 11 c0       	push   $0xc0113b68
c01113ed:	e8 b1 0d 00 00       	call   c01121a3 <panic>
c01113f2:	83 c4 10             	add    $0x10,%esp
c01113f5:	83 ec 0c             	sub    $0xc,%esp
c01113f8:	ff 75 b0             	pushl  -0x50(%ebp)
c01113fb:	e8 c3 ed ff ff       	call   c01101c3 <fd_copy>
c0111400:	83 c4 10             	add    $0x10,%esp
c0111403:	89 c3                	mov    %eax,%ebx
c0111405:	e8 59 95 ff ff       	call   c010a963 <curr_process>
c011140a:	83 ec 08             	sub    $0x8,%esp
c011140d:	53                   	push   %ebx
c011140e:	50                   	push   %eax
c011140f:	e8 22 a4 ff ff       	call   c010b836 <proc_add_fd>
c0111414:	83 c4 10             	add    $0x10,%esp
c0111417:	8b 55 08             	mov    0x8(%ebp),%edx
c011141a:	89 42 20             	mov    %eax,0x20(%edx)
c011141d:	e9 67 06 00 00       	jmp    c0111a89 <handle_syscall+0xb11>
c0111422:	83 ec 08             	sub    $0x8,%esp
c0111425:	6a 01                	push   $0x1
c0111427:	ff 75 08             	pushl  0x8(%ebp)
c011142a:	e8 77 fa ff ff       	call   c0110ea6 <get_syscall_arg>
c011142f:	83 c4 10             	add    $0x10,%esp
c0111432:	89 45 c8             	mov    %eax,-0x38(%ebp)
c0111435:	83 ec 08             	sub    $0x8,%esp
c0111438:	6a 02                	push   $0x2
c011143a:	ff 75 08             	pushl  0x8(%ebp)
c011143d:	e8 64 fa ff ff       	call   c0110ea6 <get_syscall_arg>
c0111442:	83 c4 10             	add    $0x10,%esp
c0111445:	89 45 c4             	mov    %eax,-0x3c(%ebp)
c0111448:	8b 45 c8             	mov    -0x38(%ebp),%eax
c011144b:	3b 45 c4             	cmp    -0x3c(%ebp),%eax
c011144e:	0f 84 34 06 00 00    	je     c0111a88 <handle_syscall+0xb10>
c0111454:	e8 0a 95 ff ff       	call   c010a963 <curr_process>
c0111459:	89 45 c0             	mov    %eax,-0x40(%ebp)
c011145c:	8b 45 c0             	mov    -0x40(%ebp),%eax
c011145f:	8b 40 04             	mov    0x4(%eax),%eax
c0111462:	83 ec 0c             	sub    $0xc,%esp
c0111465:	50                   	push   %eax
c0111466:	e8 60 af ff ff       	call   c010c3cb <kql_acquire>
c011146b:	83 c4 10             	add    $0x10,%esp
c011146e:	8b 45 c0             	mov    -0x40(%ebp),%eax
c0111471:	8b 40 20             	mov    0x20(%eax),%eax
c0111474:	8b 40 04             	mov    0x4(%eax),%eax
c0111477:	39 45 c8             	cmp    %eax,-0x38(%ebp)
c011147a:	72 10                	jb     c011148c <handle_syscall+0x514>
c011147c:	83 ec 0c             	sub    $0xc,%esp
c011147f:	68 70 3b 11 c0       	push   $0xc0113b70
c0111484:	e8 1a 0d 00 00       	call   c01121a3 <panic>
c0111489:	83 c4 10             	add    $0x10,%esp
c011148c:	8b 45 c0             	mov    -0x40(%ebp),%eax
c011148f:	8b 40 20             	mov    0x20(%eax),%eax
c0111492:	83 ec 08             	sub    $0x8,%esp
c0111495:	ff 75 c8             	pushl  -0x38(%ebp)
c0111498:	50                   	push   %eax
c0111499:	e8 aa 16 00 00       	call   c0112b48 <vect_get>
c011149e:	83 c4 10             	add    $0x10,%esp
c01114a1:	89 45 bc             	mov    %eax,-0x44(%ebp)
c01114a4:	83 7d bc 00          	cmpl   $0x0,-0x44(%ebp)
c01114a8:	75 10                	jne    c01114ba <handle_syscall+0x542>
c01114aa:	83 ec 0c             	sub    $0xc,%esp
c01114ad:	68 70 3b 11 c0       	push   $0xc0113b70
c01114b2:	e8 ec 0c 00 00       	call   c01121a3 <panic>
c01114b7:	83 c4 10             	add    $0x10,%esp
c01114ba:	83 ec 0c             	sub    $0xc,%esp
c01114bd:	ff 75 bc             	pushl  -0x44(%ebp)
c01114c0:	e8 fe ec ff ff       	call   c01101c3 <fd_copy>
c01114c5:	83 c4 10             	add    $0x10,%esp
c01114c8:	89 45 b8             	mov    %eax,-0x48(%ebp)
c01114cb:	8b 45 c0             	mov    -0x40(%ebp),%eax
c01114ce:	8b 40 20             	mov    0x20(%eax),%eax
c01114d1:	8b 40 04             	mov    0x4(%eax),%eax
c01114d4:	39 45 c4             	cmp    %eax,-0x3c(%ebp)
c01114d7:	72 10                	jb     c01114e9 <handle_syscall+0x571>
c01114d9:	83 ec 0c             	sub    $0xc,%esp
c01114dc:	68 70 3b 11 c0       	push   $0xc0113b70
c01114e1:	e8 bd 0c 00 00       	call   c01121a3 <panic>
c01114e6:	83 c4 10             	add    $0x10,%esp
c01114e9:	8b 45 c0             	mov    -0x40(%ebp),%eax
c01114ec:	8b 40 20             	mov    0x20(%eax),%eax
c01114ef:	83 ec 04             	sub    $0x4,%esp
c01114f2:	ff 75 b8             	pushl  -0x48(%ebp)
c01114f5:	ff 75 c4             	pushl  -0x3c(%ebp)
c01114f8:	50                   	push   %eax
c01114f9:	e8 b5 16 00 00       	call   c0112bb3 <vect_set>
c01114fe:	83 c4 10             	add    $0x10,%esp
c0111501:	89 45 b4             	mov    %eax,-0x4c(%ebp)
c0111504:	83 7d b4 00          	cmpl   $0x0,-0x4c(%ebp)
c0111508:	74 0e                	je     c0111518 <handle_syscall+0x5a0>
c011150a:	83 ec 0c             	sub    $0xc,%esp
c011150d:	ff 75 b4             	pushl  -0x4c(%ebp)
c0111510:	e8 44 f0 ff ff       	call   c0110559 <kclose>
c0111515:	83 c4 10             	add    $0x10,%esp
c0111518:	8b 45 c0             	mov    -0x40(%ebp),%eax
c011151b:	8b 40 04             	mov    0x4(%eax),%eax
c011151e:	83 ec 0c             	sub    $0xc,%esp
c0111521:	50                   	push   %eax
c0111522:	e8 5a af ff ff       	call   c010c481 <kql_release>
c0111527:	83 c4 10             	add    $0x10,%esp
c011152a:	e9 5a 05 00 00       	jmp    c0111a89 <handle_syscall+0xb11>
c011152f:	83 ec 08             	sub    $0x8,%esp
c0111532:	6a 01                	push   $0x1
c0111534:	ff 75 08             	pushl  0x8(%ebp)
c0111537:	e8 6a f9 ff ff       	call   c0110ea6 <get_syscall_arg>
c011153c:	83 c4 10             	add    $0x10,%esp
c011153f:	89 c3                	mov    %eax,%ebx
c0111541:	e8 1d 94 ff ff       	call   c010a963 <curr_process>
c0111546:	83 ec 08             	sub    $0x8,%esp
c0111549:	53                   	push   %ebx
c011154a:	50                   	push   %eax
c011154b:	e8 2d a3 ff ff       	call   c010b87d <proc_get_fd>
c0111550:	83 c4 10             	add    $0x10,%esp
c0111553:	89 85 78 ff ff ff    	mov    %eax,-0x88(%ebp)
c0111559:	83 ec 08             	sub    $0x8,%esp
c011155c:	6a 03                	push   $0x3
c011155e:	ff 75 08             	pushl  0x8(%ebp)
c0111561:	e8 40 f9 ff ff       	call   c0110ea6 <get_syscall_arg>
c0111566:	83 c4 10             	add    $0x10,%esp
c0111569:	0f b6 d8             	movzbl %al,%ebx
c011156c:	83 ec 08             	sub    $0x8,%esp
c011156f:	6a 02                	push   $0x2
c0111571:	ff 75 08             	pushl  0x8(%ebp)
c0111574:	e8 2d f9 ff ff       	call   c0110ea6 <get_syscall_arg>
c0111579:	83 c4 10             	add    $0x10,%esp
c011157c:	83 ec 04             	sub    $0x4,%esp
c011157f:	53                   	push   %ebx
c0111580:	50                   	push   %eax
c0111581:	ff b5 78 ff ff ff    	pushl  -0x88(%ebp)
c0111587:	e8 10 f0 ff ff       	call   c011059c <kseek>
c011158c:	83 c4 10             	add    $0x10,%esp
c011158f:	e9 f5 04 00 00       	jmp    c0111a89 <handle_syscall+0xb11>
c0111594:	83 ec 08             	sub    $0x8,%esp
c0111597:	6a 01                	push   $0x1
c0111599:	ff 75 08             	pushl  0x8(%ebp)
c011159c:	e8 05 f9 ff ff       	call   c0110ea6 <get_syscall_arg>
c01115a1:	83 c4 10             	add    $0x10,%esp
c01115a4:	89 c3                	mov    %eax,%ebx
c01115a6:	e8 b8 93 ff ff       	call   c010a963 <curr_process>
c01115ab:	83 ec 08             	sub    $0x8,%esp
c01115ae:	53                   	push   %ebx
c01115af:	50                   	push   %eax
c01115b0:	e8 1a a1 ff ff       	call   c010b6cf <proc_get_lock>
c01115b5:	83 c4 10             	add    $0x10,%esp
c01115b8:	89 45 80             	mov    %eax,-0x80(%ebp)
c01115bb:	83 ec 0c             	sub    $0xc,%esp
c01115be:	ff 75 80             	pushl  -0x80(%ebp)
c01115c1:	e8 6b b0 ff ff       	call   c010c631 <kevent_create>
c01115c6:	83 c4 10             	add    $0x10,%esp
c01115c9:	89 85 7c ff ff ff    	mov    %eax,-0x84(%ebp)
c01115cf:	e8 8f 93 ff ff       	call   c010a963 <curr_process>
c01115d4:	83 ec 08             	sub    $0x8,%esp
c01115d7:	ff b5 7c ff ff ff    	pushl  -0x84(%ebp)
c01115dd:	50                   	push   %eax
c01115de:	e8 7c a1 ff ff       	call   c010b75f <proc_add_event>
c01115e3:	83 c4 10             	add    $0x10,%esp
c01115e6:	8b 55 08             	mov    0x8(%ebp),%edx
c01115e9:	89 42 20             	mov    %eax,0x20(%edx)
c01115ec:	e9 98 04 00 00       	jmp    c0111a89 <handle_syscall+0xb11>
c01115f1:	83 ec 08             	sub    $0x8,%esp
c01115f4:	6a 01                	push   $0x1
c01115f6:	ff 75 08             	pushl  0x8(%ebp)
c01115f9:	e8 a8 f8 ff ff       	call   c0110ea6 <get_syscall_arg>
c01115fe:	83 c4 10             	add    $0x10,%esp
c0111601:	89 c3                	mov    %eax,%ebx
c0111603:	e8 5b 93 ff ff       	call   c010a963 <curr_process>
c0111608:	83 ec 08             	sub    $0x8,%esp
c011160b:	53                   	push   %ebx
c011160c:	50                   	push   %eax
c011160d:	e8 db a1 ff ff       	call   c010b7ed <proc_remove_event>
c0111612:	83 c4 10             	add    $0x10,%esp
c0111615:	89 45 84             	mov    %eax,-0x7c(%ebp)
c0111618:	83 ec 0c             	sub    $0xc,%esp
c011161b:	ff 75 84             	pushl  -0x7c(%ebp)
c011161e:	e8 3c b0 ff ff       	call   c010c65f <kevent_delete>
c0111623:	83 c4 10             	add    $0x10,%esp
c0111626:	e9 5e 04 00 00       	jmp    c0111a89 <handle_syscall+0xb11>
c011162b:	83 ec 08             	sub    $0x8,%esp
c011162e:	6a 01                	push   $0x1
c0111630:	ff 75 08             	pushl  0x8(%ebp)
c0111633:	e8 6e f8 ff ff       	call   c0110ea6 <get_syscall_arg>
c0111638:	83 c4 10             	add    $0x10,%esp
c011163b:	89 c3                	mov    %eax,%ebx
c011163d:	e8 21 93 ff ff       	call   c010a963 <curr_process>
c0111642:	83 ec 08             	sub    $0x8,%esp
c0111645:	53                   	push   %ebx
c0111646:	50                   	push   %eax
c0111647:	e8 5a a1 ff ff       	call   c010b7a6 <proc_get_event>
c011164c:	83 c4 10             	add    $0x10,%esp
c011164f:	89 45 88             	mov    %eax,-0x78(%ebp)
c0111652:	83 ec 0c             	sub    $0xc,%esp
c0111655:	ff 75 88             	pushl  -0x78(%ebp)
c0111658:	e8 49 b0 ff ff       	call   c010c6a6 <kevent_wait>
c011165d:	83 c4 10             	add    $0x10,%esp
c0111660:	e9 24 04 00 00       	jmp    c0111a89 <handle_syscall+0xb11>
c0111665:	83 ec 08             	sub    $0x8,%esp
c0111668:	6a 01                	push   $0x1
c011166a:	ff 75 08             	pushl  0x8(%ebp)
c011166d:	e8 34 f8 ff ff       	call   c0110ea6 <get_syscall_arg>
c0111672:	83 c4 10             	add    $0x10,%esp
c0111675:	89 c3                	mov    %eax,%ebx
c0111677:	e8 e7 92 ff ff       	call   c010a963 <curr_process>
c011167c:	83 ec 08             	sub    $0x8,%esp
c011167f:	53                   	push   %ebx
c0111680:	50                   	push   %eax
c0111681:	e8 20 a1 ff ff       	call   c010b7a6 <proc_get_event>
c0111686:	83 c4 10             	add    $0x10,%esp
c0111689:	89 45 8c             	mov    %eax,-0x74(%ebp)
c011168c:	83 ec 0c             	sub    $0xc,%esp
c011168f:	ff 75 8c             	pushl  -0x74(%ebp)
c0111692:	e8 5e b0 ff ff       	call   c010c6f5 <kevent_signal>
c0111697:	83 c4 10             	add    $0x10,%esp
c011169a:	e9 ea 03 00 00       	jmp    c0111a89 <handle_syscall+0xb11>
c011169f:	83 ec 08             	sub    $0x8,%esp
c01116a2:	6a 01                	push   $0x1
c01116a4:	ff 75 08             	pushl  0x8(%ebp)
c01116a7:	e8 fa f7 ff ff       	call   c0110ea6 <get_syscall_arg>
c01116ac:	83 c4 10             	add    $0x10,%esp
c01116af:	89 c3                	mov    %eax,%ebx
c01116b1:	e8 ad 92 ff ff       	call   c010a963 <curr_process>
c01116b6:	83 ec 08             	sub    $0x8,%esp
c01116b9:	53                   	push   %ebx
c01116ba:	50                   	push   %eax
c01116bb:	e8 e6 a0 ff ff       	call   c010b7a6 <proc_get_event>
c01116c0:	83 c4 10             	add    $0x10,%esp
c01116c3:	89 45 90             	mov    %eax,-0x70(%ebp)
c01116c6:	83 ec 0c             	sub    $0xc,%esp
c01116c9:	ff 75 90             	pushl  -0x70(%ebp)
c01116cc:	e8 6c b0 ff ff       	call   c010c73d <kevent_broadcast>
c01116d1:	83 c4 10             	add    $0x10,%esp
c01116d4:	e9 b0 03 00 00       	jmp    c0111a89 <handle_syscall+0xb11>
c01116d9:	e8 85 92 ff ff       	call   c010a963 <curr_process>
c01116de:	89 45 98             	mov    %eax,-0x68(%ebp)
c01116e1:	8b 45 98             	mov    -0x68(%ebp),%eax
c01116e4:	8b 40 04             	mov    0x4(%eax),%eax
c01116e7:	83 ec 0c             	sub    $0xc,%esp
c01116ea:	50                   	push   %eax
c01116eb:	e8 db ac ff ff       	call   c010c3cb <kql_acquire>
c01116f0:	83 c4 10             	add    $0x10,%esp
c01116f3:	8b 45 98             	mov    -0x68(%ebp),%eax
c01116f6:	8b 40 34             	mov    0x34(%eax),%eax
c01116f9:	89 45 94             	mov    %eax,-0x6c(%ebp)
c01116fc:	8b 45 98             	mov    -0x68(%ebp),%eax
c01116ff:	8b 40 04             	mov    0x4(%eax),%eax
c0111702:	83 ec 0c             	sub    $0xc,%esp
c0111705:	50                   	push   %eax
c0111706:	e8 76 ad ff ff       	call   c010c481 <kql_release>
c011170b:	83 c4 10             	add    $0x10,%esp
c011170e:	8b 45 08             	mov    0x8(%ebp),%eax
c0111711:	8b 55 94             	mov    -0x6c(%ebp),%edx
c0111714:	89 50 20             	mov    %edx,0x20(%eax)
c0111717:	e9 6d 03 00 00       	jmp    c0111a89 <handle_syscall+0xb11>
c011171c:	e8 42 92 ff ff       	call   c010a963 <curr_process>
c0111721:	89 45 a0             	mov    %eax,-0x60(%ebp)
c0111724:	8b 45 a0             	mov    -0x60(%ebp),%eax
c0111727:	8b 40 04             	mov    0x4(%eax),%eax
c011172a:	83 ec 0c             	sub    $0xc,%esp
c011172d:	50                   	push   %eax
c011172e:	e8 98 ac ff ff       	call   c010c3cb <kql_acquire>
c0111733:	83 c4 10             	add    $0x10,%esp
c0111736:	8b 45 a0             	mov    -0x60(%ebp),%eax
c0111739:	8b 40 38             	mov    0x38(%eax),%eax
c011173c:	89 45 9c             	mov    %eax,-0x64(%ebp)
c011173f:	8b 45 a0             	mov    -0x60(%ebp),%eax
c0111742:	8b 40 04             	mov    0x4(%eax),%eax
c0111745:	83 ec 0c             	sub    $0xc,%esp
c0111748:	50                   	push   %eax
c0111749:	e8 33 ad ff ff       	call   c010c481 <kql_release>
c011174e:	83 c4 10             	add    $0x10,%esp
c0111751:	8b 45 08             	mov    0x8(%ebp),%eax
c0111754:	8b 55 9c             	mov    -0x64(%ebp),%edx
c0111757:	89 50 20             	mov    %edx,0x20(%eax)
c011175a:	e9 2a 03 00 00       	jmp    c0111a89 <handle_syscall+0xb11>
c011175f:	83 ec 08             	sub    $0x8,%esp
c0111762:	6a 02                	push   $0x2
c0111764:	ff 75 08             	pushl  0x8(%ebp)
c0111767:	e8 3a f7 ff ff       	call   c0110ea6 <get_syscall_arg>
c011176c:	83 c4 10             	add    $0x10,%esp
c011176f:	0f b6 d8             	movzbl %al,%ebx
c0111772:	83 ec 08             	sub    $0x8,%esp
c0111775:	6a 01                	push   $0x1
c0111777:	ff 75 08             	pushl  0x8(%ebp)
c011177a:	e8 27 f7 ff ff       	call   c0110ea6 <get_syscall_arg>
c011177f:	83 c4 10             	add    $0x10,%esp
c0111782:	83 ec 08             	sub    $0x8,%esp
c0111785:	53                   	push   %ebx
c0111786:	50                   	push   %eax
c0111787:	e8 80 f2 ff ff       	call   c0110a0c <kcreate>
c011178c:	83 c4 10             	add    $0x10,%esp
c011178f:	e9 f5 02 00 00       	jmp    c0111a89 <handle_syscall+0xb11>
c0111794:	83 ec 08             	sub    $0x8,%esp
c0111797:	6a 02                	push   $0x2
c0111799:	ff 75 08             	pushl  0x8(%ebp)
c011179c:	e8 05 f7 ff ff       	call   c0110ea6 <get_syscall_arg>
c01117a1:	83 c4 10             	add    $0x10,%esp
c01117a4:	0f b6 d8             	movzbl %al,%ebx
c01117a7:	83 ec 08             	sub    $0x8,%esp
c01117aa:	6a 01                	push   $0x1
c01117ac:	ff 75 08             	pushl  0x8(%ebp)
c01117af:	e8 f2 f6 ff ff       	call   c0110ea6 <get_syscall_arg>
c01117b4:	83 c4 10             	add    $0x10,%esp
c01117b7:	83 ec 08             	sub    $0x8,%esp
c01117ba:	53                   	push   %ebx
c01117bb:	50                   	push   %eax
c01117bc:	e8 d8 f2 ff ff       	call   c0110a99 <kremove>
c01117c1:	83 c4 10             	add    $0x10,%esp
c01117c4:	e9 c0 02 00 00       	jmp    c0111a89 <handle_syscall+0xb11>
c01117c9:	83 ec 08             	sub    $0x8,%esp
c01117cc:	6a 01                	push   $0x1
c01117ce:	ff 75 08             	pushl  0x8(%ebp)
c01117d1:	e8 d0 f6 ff ff       	call   c0110ea6 <get_syscall_arg>
c01117d6:	83 c4 10             	add    $0x10,%esp
c01117d9:	89 c3                	mov    %eax,%ebx
c01117db:	e8 83 91 ff ff       	call   c010a963 <curr_process>
c01117e0:	83 ec 08             	sub    $0x8,%esp
c01117e3:	53                   	push   %ebx
c01117e4:	50                   	push   %eax
c01117e5:	e8 93 a0 ff ff       	call   c010b87d <proc_get_fd>
c01117ea:	83 c4 10             	add    $0x10,%esp
c01117ed:	89 45 a4             	mov    %eax,-0x5c(%ebp)
c01117f0:	83 ec 0c             	sub    $0xc,%esp
c01117f3:	ff 75 a4             	pushl  -0x5c(%ebp)
c01117f6:	e8 2b f3 ff ff       	call   c0110b26 <kget_size>
c01117fb:	83 c4 10             	add    $0x10,%esp
c01117fe:	8b 55 08             	mov    0x8(%ebp),%edx
c0111801:	89 42 20             	mov    %eax,0x20(%edx)
c0111804:	e9 80 02 00 00       	jmp    c0111a89 <handle_syscall+0xb11>
c0111809:	83 ec 08             	sub    $0x8,%esp
c011180c:	6a 01                	push   $0x1
c011180e:	ff 75 08             	pushl  0x8(%ebp)
c0111811:	e8 90 f6 ff ff       	call   c0110ea6 <get_syscall_arg>
c0111816:	83 c4 10             	add    $0x10,%esp
c0111819:	89 c3                	mov    %eax,%ebx
c011181b:	e8 43 91 ff ff       	call   c010a963 <curr_process>
c0111820:	83 ec 08             	sub    $0x8,%esp
c0111823:	53                   	push   %ebx
c0111824:	50                   	push   %eax
c0111825:	e8 53 a0 ff ff       	call   c010b87d <proc_get_fd>
c011182a:	83 c4 10             	add    $0x10,%esp
c011182d:	89 45 a8             	mov    %eax,-0x58(%ebp)
c0111830:	83 ec 08             	sub    $0x8,%esp
c0111833:	6a 02                	push   $0x2
c0111835:	ff 75 08             	pushl  0x8(%ebp)
c0111838:	e8 69 f6 ff ff       	call   c0110ea6 <get_syscall_arg>
c011183d:	83 c4 10             	add    $0x10,%esp
c0111840:	83 ec 08             	sub    $0x8,%esp
c0111843:	50                   	push   %eax
c0111844:	ff 75 a8             	pushl  -0x58(%ebp)
c0111847:	e8 5d f3 ff ff       	call   c0110ba9 <kresize>
c011184c:	83 c4 10             	add    $0x10,%esp
c011184f:	e9 35 02 00 00       	jmp    c0111a89 <handle_syscall+0xb11>
c0111854:	83 ec 08             	sub    $0x8,%esp
c0111857:	6a 01                	push   $0x1
c0111859:	ff 75 08             	pushl  0x8(%ebp)
c011185c:	e8 45 f6 ff ff       	call   c0110ea6 <get_syscall_arg>
c0111861:	83 c4 10             	add    $0x10,%esp
c0111864:	89 c3                	mov    %eax,%ebx
c0111866:	e8 f8 90 ff ff       	call   c010a963 <curr_process>
c011186b:	83 ec 08             	sub    $0x8,%esp
c011186e:	53                   	push   %ebx
c011186f:	50                   	push   %eax
c0111870:	e8 08 a0 ff ff       	call   c010b87d <proc_get_fd>
c0111875:	83 c4 10             	add    $0x10,%esp
c0111878:	89 45 ac             	mov    %eax,-0x54(%ebp)
c011187b:	83 ec 08             	sub    $0x8,%esp
c011187e:	6a 03                	push   $0x3
c0111880:	ff 75 08             	pushl  0x8(%ebp)
c0111883:	e8 1e f6 ff ff       	call   c0110ea6 <get_syscall_arg>
c0111888:	83 c4 10             	add    $0x10,%esp
c011188b:	89 c3                	mov    %eax,%ebx
c011188d:	83 ec 08             	sub    $0x8,%esp
c0111890:	6a 02                	push   $0x2
c0111892:	ff 75 08             	pushl  0x8(%ebp)
c0111895:	e8 0c f6 ff ff       	call   c0110ea6 <get_syscall_arg>
c011189a:	83 c4 10             	add    $0x10,%esp
c011189d:	83 ec 04             	sub    $0x4,%esp
c01118a0:	53                   	push   %ebx
c01118a1:	50                   	push   %eax
c01118a2:	ff 75 ac             	pushl  -0x54(%ebp)
c01118a5:	e8 78 f3 ff ff       	call   c0110c22 <klist_dir>
c01118aa:	83 c4 10             	add    $0x10,%esp
c01118ad:	89 c2                	mov    %eax,%edx
c01118af:	8b 45 08             	mov    0x8(%ebp),%eax
c01118b2:	89 50 20             	mov    %edx,0x20(%eax)
c01118b5:	e9 cf 01 00 00       	jmp    c0111a89 <handle_syscall+0xb11>
c01118ba:	e8 a4 90 ff ff       	call   c010a963 <curr_process>
c01118bf:	89 45 e0             	mov    %eax,-0x20(%ebp)
c01118c2:	8b 45 e0             	mov    -0x20(%ebp),%eax
c01118c5:	8b 40 04             	mov    0x4(%eax),%eax
c01118c8:	83 ec 0c             	sub    $0xc,%esp
c01118cb:	50                   	push   %eax
c01118cc:	e8 fa aa ff ff       	call   c010c3cb <kql_acquire>
c01118d1:	83 c4 10             	add    $0x10,%esp
c01118d4:	8b 45 e0             	mov    -0x20(%ebp),%eax
c01118d7:	8b 40 2c             	mov    0x2c(%eax),%eax
c01118da:	89 45 dc             	mov    %eax,-0x24(%ebp)
c01118dd:	8b 45 e0             	mov    -0x20(%ebp),%eax
c01118e0:	8b 40 04             	mov    0x4(%eax),%eax
c01118e3:	83 ec 0c             	sub    $0xc,%esp
c01118e6:	50                   	push   %eax
c01118e7:	e8 95 ab ff ff       	call   c010c481 <kql_release>
c01118ec:	83 c4 10             	add    $0x10,%esp
c01118ef:	83 ec 08             	sub    $0x8,%esp
c01118f2:	6a 01                	push   $0x1
c01118f4:	ff 75 08             	pushl  0x8(%ebp)
c01118f7:	e8 aa f5 ff ff       	call   c0110ea6 <get_syscall_arg>
c01118fc:	83 c4 10             	add    $0x10,%esp
c01118ff:	89 45 d8             	mov    %eax,-0x28(%ebp)
c0111902:	83 ec 08             	sub    $0x8,%esp
c0111905:	6a 02                	push   $0x2
c0111907:	ff 75 08             	pushl  0x8(%ebp)
c011190a:	e8 97 f5 ff ff       	call   c0110ea6 <get_syscall_arg>
c011190f:	83 c4 10             	add    $0x10,%esp
c0111912:	89 45 d4             	mov    %eax,-0x2c(%ebp)
c0111915:	83 ec 0c             	sub    $0xc,%esp
c0111918:	ff 75 dc             	pushl  -0x24(%ebp)
c011191b:	e8 5c 08 00 00       	call   c011217c <strlen>
c0111920:	83 c4 10             	add    $0x10,%esp
c0111923:	83 c0 01             	add    $0x1,%eax
c0111926:	39 45 d4             	cmp    %eax,-0x2c(%ebp)
c0111929:	72 32                	jb     c011195d <handle_syscall+0x9e5>
c011192b:	83 ec 0c             	sub    $0xc,%esp
c011192e:	ff 75 dc             	pushl  -0x24(%ebp)
c0111931:	e8 46 08 00 00       	call   c011217c <strlen>
c0111936:	83 c4 10             	add    $0x10,%esp
c0111939:	83 c0 01             	add    $0x1,%eax
c011193c:	83 ec 04             	sub    $0x4,%esp
c011193f:	50                   	push   %eax
c0111940:	ff 75 dc             	pushl  -0x24(%ebp)
c0111943:	ff 75 d8             	pushl  -0x28(%ebp)
c0111946:	e8 0b 08 00 00       	call   c0112156 <memcpy>
c011194b:	83 c4 10             	add    $0x10,%esp
c011194e:	8b 45 08             	mov    0x8(%ebp),%eax
c0111951:	c7 40 20 00 00 00 00 	movl   $0x0,0x20(%eax)
c0111958:	e9 2c 01 00 00       	jmp    c0111a89 <handle_syscall+0xb11>
c011195d:	8b 45 d4             	mov    -0x2c(%ebp),%eax
c0111960:	83 e8 01             	sub    $0x1,%eax
c0111963:	83 ec 04             	sub    $0x4,%esp
c0111966:	50                   	push   %eax
c0111967:	ff 75 dc             	pushl  -0x24(%ebp)
c011196a:	ff 75 d8             	pushl  -0x28(%ebp)
c011196d:	e8 e4 07 00 00       	call   c0112156 <memcpy>
c0111972:	83 c4 10             	add    $0x10,%esp
c0111975:	8b 45 d4             	mov    -0x2c(%ebp),%eax
c0111978:	8d 50 ff             	lea    -0x1(%eax),%edx
c011197b:	8b 45 d8             	mov    -0x28(%ebp),%eax
c011197e:	01 d0                	add    %edx,%eax
c0111980:	83 ec 04             	sub    $0x4,%esp
c0111983:	6a 01                	push   $0x1
c0111985:	6a 00                	push   $0x0
c0111987:	50                   	push   %eax
c0111988:	e8 db 07 00 00       	call   c0112168 <memset>
c011198d:	83 c4 10             	add    $0x10,%esp
c0111990:	8b 45 08             	mov    0x8(%ebp),%eax
c0111993:	c7 40 20 01 00 00 00 	movl   $0x1,0x20(%eax)
c011199a:	e9 ea 00 00 00       	jmp    c0111a89 <handle_syscall+0xb11>
c011199f:	83 ec 08             	sub    $0x8,%esp
c01119a2:	6a 01                	push   $0x1
c01119a4:	ff 75 08             	pushl  0x8(%ebp)
c01119a7:	e8 fa f4 ff ff       	call   c0110ea6 <get_syscall_arg>
c01119ac:	83 c4 10             	add    $0x10,%esp
c01119af:	89 45 d0             	mov    %eax,-0x30(%ebp)
c01119b2:	83 ec 0c             	sub    $0xc,%esp
c01119b5:	ff 75 d0             	pushl  -0x30(%ebp)
c01119b8:	e8 de ec ff ff       	call   c011069b <kfile_type>
c01119bd:	83 c4 10             	add    $0x10,%esp
c01119c0:	83 f8 04             	cmp    $0x4,%eax
c01119c3:	74 10                	je     c01119d5 <handle_syscall+0xa5d>
c01119c5:	83 ec 0c             	sub    $0xc,%esp
c01119c8:	68 79 3b 11 c0       	push   $0xc0113b79
c01119cd:	e8 d1 07 00 00       	call   c01121a3 <panic>
c01119d2:	83 c4 10             	add    $0x10,%esp
c01119d5:	e8 89 8f ff ff       	call   c010a963 <curr_process>
c01119da:	89 45 cc             	mov    %eax,-0x34(%ebp)
c01119dd:	8b 45 cc             	mov    -0x34(%ebp),%eax
c01119e0:	8b 40 04             	mov    0x4(%eax),%eax
c01119e3:	83 ec 0c             	sub    $0xc,%esp
c01119e6:	50                   	push   %eax
c01119e7:	e8 df a9 ff ff       	call   c010c3cb <kql_acquire>
c01119ec:	83 c4 10             	add    $0x10,%esp
c01119ef:	8b 45 cc             	mov    -0x34(%ebp),%eax
c01119f2:	8b 55 d0             	mov    -0x30(%ebp),%edx
c01119f5:	89 50 2c             	mov    %edx,0x2c(%eax)
c01119f8:	8b 45 cc             	mov    -0x34(%ebp),%eax
c01119fb:	8b 40 04             	mov    0x4(%eax),%eax
c01119fe:	83 ec 0c             	sub    $0xc,%esp
c0111a01:	50                   	push   %eax
c0111a02:	e8 7a aa ff ff       	call   c010c481 <kql_release>
c0111a07:	83 c4 10             	add    $0x10,%esp
c0111a0a:	eb 7d                	jmp    c0111a89 <handle_syscall+0xb11>
c0111a0c:	83 ec 08             	sub    $0x8,%esp
c0111a0f:	6a 01                	push   $0x1
c0111a11:	ff 75 08             	pushl  0x8(%ebp)
c0111a14:	e8 8d f4 ff ff       	call   c0110ea6 <get_syscall_arg>
c0111a19:	83 c4 10             	add    $0x10,%esp
c0111a1c:	89 45 e4             	mov    %eax,-0x1c(%ebp)
c0111a1f:	83 ec 0c             	sub    $0xc,%esp
c0111a22:	ff 75 e4             	pushl  -0x1c(%ebp)
c0111a25:	e8 71 ec ff ff       	call   c011069b <kfile_type>
c0111a2a:	83 c4 10             	add    $0x10,%esp
c0111a2d:	8b 55 08             	mov    0x8(%ebp),%edx
c0111a30:	89 42 20             	mov    %eax,0x20(%edx)
c0111a33:	eb 54                	jmp    c0111a89 <handle_syscall+0xb11>
c0111a35:	8b 45 08             	mov    0x8(%ebp),%eax
c0111a38:	8b 40 20             	mov    0x20(%eax),%eax
c0111a3b:	83 ec 08             	sub    $0x8,%esp
c0111a3e:	50                   	push   %eax
c0111a3f:	68 84 3b 11 c0       	push   $0xc0113b84
c0111a44:	e8 da 01 00 00       	call   c0111c23 <printf>
c0111a49:	83 c4 10             	add    $0x10,%esp
c0111a4c:	8b 45 08             	mov    0x8(%ebp),%eax
c0111a4f:	8b 78 28             	mov    0x28(%eax),%edi
c0111a52:	8b 45 08             	mov    0x8(%ebp),%eax
c0111a55:	8b 70 24             	mov    0x24(%eax),%esi
c0111a58:	8b 45 08             	mov    0x8(%ebp),%eax
c0111a5b:	8b 58 14             	mov    0x14(%eax),%ebx
c0111a5e:	8b 45 08             	mov    0x8(%ebp),%eax
c0111a61:	8b 48 18             	mov    0x18(%eax),%ecx
c0111a64:	8b 45 08             	mov    0x8(%ebp),%eax
c0111a67:	8b 50 1c             	mov    0x1c(%eax),%edx
c0111a6a:	8b 45 08             	mov    0x8(%ebp),%eax
c0111a6d:	8b 40 20             	mov    0x20(%eax),%eax
c0111a70:	83 ec 04             	sub    $0x4,%esp
c0111a73:	57                   	push   %edi
c0111a74:	56                   	push   %esi
c0111a75:	53                   	push   %ebx
c0111a76:	51                   	push   %ecx
c0111a77:	52                   	push   %edx
c0111a78:	50                   	push   %eax
c0111a79:	68 b0 3b 11 c0       	push   $0xc0113bb0
c0111a7e:	e8 a0 01 00 00       	call   c0111c23 <printf>
c0111a83:	83 c4 20             	add    $0x20,%esp
c0111a86:	eb fe                	jmp    c0111a86 <handle_syscall+0xb0e>
c0111a88:	90                   	nop
c0111a89:	8d 65 f4             	lea    -0xc(%ebp),%esp
c0111a8c:	5b                   	pop    %ebx
c0111a8d:	5e                   	pop    %esi
c0111a8e:	5f                   	pop    %edi
c0111a8f:	5d                   	pop    %ebp
c0111a90:	c3                   	ret    

c0111a91 <sprint_signed>:
c0111a91:	55                   	push   %ebp
c0111a92:	89 e5                	mov    %esp,%ebp
c0111a94:	83 ec 18             	sub    $0x18,%esp
c0111a97:	8b 45 08             	mov    0x8(%ebp),%eax
c0111a9a:	89 45 f0             	mov    %eax,-0x10(%ebp)
c0111a9d:	8b 45 0c             	mov    0xc(%ebp),%eax
c0111aa0:	89 45 f4             	mov    %eax,-0xc(%ebp)
c0111aa3:	83 7d 10 01          	cmpl   $0x1,0x10(%ebp)
c0111aa7:	7e 06                	jle    c0111aaf <sprint_signed+0x1e>
c0111aa9:	83 7d 10 10          	cmpl   $0x10,0x10(%ebp)
c0111aad:	7e 07                	jle    c0111ab6 <sprint_signed+0x25>
c0111aaf:	b8 00 00 00 00       	mov    $0x0,%eax
c0111ab4:	eb 48                	jmp    c0111afe <sprint_signed+0x6d>
c0111ab6:	83 7d f4 00          	cmpl   $0x0,-0xc(%ebp)
c0111aba:	79 2c                	jns    c0111ae8 <sprint_signed+0x57>
c0111abc:	8b 45 14             	mov    0x14(%ebp),%eax
c0111abf:	c6 00 2d             	movb   $0x2d,(%eax)
c0111ac2:	8b 45 14             	mov    0x14(%ebp),%eax
c0111ac5:	8d 48 01             	lea    0x1(%eax),%ecx
c0111ac8:	8b 45 f0             	mov    -0x10(%ebp),%eax
c0111acb:	8b 55 f4             	mov    -0xc(%ebp),%edx
c0111ace:	f7 d8                	neg    %eax
c0111ad0:	83 d2 00             	adc    $0x0,%edx
c0111ad3:	f7 da                	neg    %edx
c0111ad5:	51                   	push   %ecx
c0111ad6:	ff 75 10             	pushl  0x10(%ebp)
c0111ad9:	52                   	push   %edx
c0111ada:	50                   	push   %eax
c0111adb:	e8 20 00 00 00       	call   c0111b00 <sprint_unsigned>
c0111ae0:	83 c4 10             	add    $0x10,%esp
c0111ae3:	83 c0 01             	add    $0x1,%eax
c0111ae6:	eb 16                	jmp    c0111afe <sprint_signed+0x6d>
c0111ae8:	8b 45 f0             	mov    -0x10(%ebp),%eax
c0111aeb:	8b 55 f4             	mov    -0xc(%ebp),%edx
c0111aee:	ff 75 14             	pushl  0x14(%ebp)
c0111af1:	ff 75 10             	pushl  0x10(%ebp)
c0111af4:	52                   	push   %edx
c0111af5:	50                   	push   %eax
c0111af6:	e8 05 00 00 00       	call   c0111b00 <sprint_unsigned>
c0111afb:	83 c4 10             	add    $0x10,%esp
c0111afe:	c9                   	leave  
c0111aff:	c3                   	ret    

c0111b00 <sprint_unsigned>:
c0111b00:	55                   	push   %ebp
c0111b01:	89 e5                	mov    %esp,%ebp
c0111b03:	53                   	push   %ebx
c0111b04:	83 ec 24             	sub    $0x24,%esp
c0111b07:	8b 45 08             	mov    0x8(%ebp),%eax
c0111b0a:	89 45 e0             	mov    %eax,-0x20(%ebp)
c0111b0d:	8b 45 0c             	mov    0xc(%ebp),%eax
c0111b10:	89 45 e4             	mov    %eax,-0x1c(%ebp)
c0111b13:	83 7d 10 01          	cmpl   $0x1,0x10(%ebp)
c0111b17:	7e 06                	jle    c0111b1f <sprint_unsigned+0x1f>
c0111b19:	83 7d 10 10          	cmpl   $0x10,0x10(%ebp)
c0111b1d:	7e 0a                	jle    c0111b29 <sprint_unsigned+0x29>
c0111b1f:	b8 00 00 00 00       	mov    $0x0,%eax
c0111b24:	e9 80 00 00 00       	jmp    c0111ba9 <sprint_unsigned+0xa9>
c0111b29:	8b 45 10             	mov    0x10(%ebp),%eax
c0111b2c:	99                   	cltd   
c0111b2d:	8b 4d e4             	mov    -0x1c(%ebp),%ecx
c0111b30:	39 45 e0             	cmp    %eax,-0x20(%ebp)
c0111b33:	19 d1                	sbb    %edx,%ecx
c0111b35:	73 17                	jae    c0111b4e <sprint_unsigned+0x4e>
c0111b37:	8b 45 e0             	mov    -0x20(%ebp),%eax
c0111b3a:	05 1c 60 11 c0       	add    $0xc011601c,%eax
c0111b3f:	0f b6 10             	movzbl (%eax),%edx
c0111b42:	8b 45 14             	mov    0x14(%ebp),%eax
c0111b45:	88 10                	mov    %dl,(%eax)
c0111b47:	b8 01 00 00 00       	mov    $0x1,%eax
c0111b4c:	eb 5b                	jmp    c0111ba9 <sprint_unsigned+0xa9>
c0111b4e:	8b 45 10             	mov    0x10(%ebp),%eax
c0111b51:	99                   	cltd   
c0111b52:	52                   	push   %edx
c0111b53:	50                   	push   %eax
c0111b54:	ff 75 e4             	pushl  -0x1c(%ebp)
c0111b57:	ff 75 e0             	pushl  -0x20(%ebp)
c0111b5a:	e8 41 11 00 00       	call   c0112ca0 <__udivdi3>
c0111b5f:	83 c4 10             	add    $0x10,%esp
c0111b62:	ff 75 14             	pushl  0x14(%ebp)
c0111b65:	ff 75 10             	pushl  0x10(%ebp)
c0111b68:	52                   	push   %edx
c0111b69:	50                   	push   %eax
c0111b6a:	e8 91 ff ff ff       	call   c0111b00 <sprint_unsigned>
c0111b6f:	83 c4 10             	add    $0x10,%esp
c0111b72:	89 45 f4             	mov    %eax,-0xc(%ebp)
c0111b75:	8b 45 10             	mov    0x10(%ebp),%eax
c0111b78:	89 c1                	mov    %eax,%ecx
c0111b7a:	89 c3                	mov    %eax,%ebx
c0111b7c:	c1 fb 1f             	sar    $0x1f,%ebx
c0111b7f:	8b 45 e0             	mov    -0x20(%ebp),%eax
c0111b82:	8b 55 e4             	mov    -0x1c(%ebp),%edx
c0111b85:	53                   	push   %ebx
c0111b86:	51                   	push   %ecx
c0111b87:	52                   	push   %edx
c0111b88:	50                   	push   %eax
c0111b89:	e8 32 12 00 00       	call   c0112dc0 <__umoddi3>
c0111b8e:	83 c4 10             	add    $0x10,%esp
c0111b91:	8b 5d f4             	mov    -0xc(%ebp),%ebx
c0111b94:	8b 4d 14             	mov    0x14(%ebp),%ecx
c0111b97:	01 d9                	add    %ebx,%ecx
c0111b99:	05 1c 60 11 c0       	add    $0xc011601c,%eax
c0111b9e:	0f b6 00             	movzbl (%eax),%eax
c0111ba1:	88 01                	mov    %al,(%ecx)
c0111ba3:	8b 45 f4             	mov    -0xc(%ebp),%eax
c0111ba6:	83 c0 01             	add    $0x1,%eax
c0111ba9:	8b 5d fc             	mov    -0x4(%ebp),%ebx
c0111bac:	c9                   	leave  
c0111bad:	c3                   	ret    

c0111bae <parse_uint32>:
c0111bae:	55                   	push   %ebp
c0111baf:	89 e5                	mov    %esp,%ebp
c0111bb1:	83 ec 10             	sub    $0x10,%esp
c0111bb4:	c7 45 fc 00 00 00 00 	movl   $0x0,-0x4(%ebp)
c0111bbb:	c7 45 f8 00 00 00 00 	movl   $0x0,-0x8(%ebp)
c0111bc2:	eb 28                	jmp    c0111bec <parse_uint32+0x3e>
c0111bc4:	8b 55 fc             	mov    -0x4(%ebp),%edx
c0111bc7:	89 d0                	mov    %edx,%eax
c0111bc9:	c1 e0 02             	shl    $0x2,%eax
c0111bcc:	01 d0                	add    %edx,%eax
c0111bce:	01 c0                	add    %eax,%eax
c0111bd0:	89 c1                	mov    %eax,%ecx
c0111bd2:	8b 55 f8             	mov    -0x8(%ebp),%edx
c0111bd5:	8b 45 08             	mov    0x8(%ebp),%eax
c0111bd8:	01 d0                	add    %edx,%eax
c0111bda:	0f b6 00             	movzbl (%eax),%eax
c0111bdd:	0f be c0             	movsbl %al,%eax
c0111be0:	01 c8                	add    %ecx,%eax
c0111be2:	83 e8 30             	sub    $0x30,%eax
c0111be5:	89 45 fc             	mov    %eax,-0x4(%ebp)
c0111be8:	83 45 f8 01          	addl   $0x1,-0x8(%ebp)
c0111bec:	83 7d f8 08          	cmpl   $0x8,-0x8(%ebp)
c0111bf0:	7f 1e                	jg     c0111c10 <parse_uint32+0x62>
c0111bf2:	8b 55 f8             	mov    -0x8(%ebp),%edx
c0111bf5:	8b 45 08             	mov    0x8(%ebp),%eax
c0111bf8:	01 d0                	add    %edx,%eax
c0111bfa:	0f b6 00             	movzbl (%eax),%eax
c0111bfd:	3c 2f                	cmp    $0x2f,%al
c0111bff:	7e 0f                	jle    c0111c10 <parse_uint32+0x62>
c0111c01:	8b 55 f8             	mov    -0x8(%ebp),%edx
c0111c04:	8b 45 08             	mov    0x8(%ebp),%eax
c0111c07:	01 d0                	add    %edx,%eax
c0111c09:	0f b6 00             	movzbl (%eax),%eax
c0111c0c:	3c 39                	cmp    $0x39,%al
c0111c0e:	7e b4                	jle    c0111bc4 <parse_uint32+0x16>
c0111c10:	83 7d f8 00          	cmpl   $0x0,-0x8(%ebp)
c0111c14:	7e 08                	jle    c0111c1e <parse_uint32+0x70>
c0111c16:	8b 45 0c             	mov    0xc(%ebp),%eax
c0111c19:	8b 55 fc             	mov    -0x4(%ebp),%edx
c0111c1c:	89 10                	mov    %edx,(%eax)
c0111c1e:	8b 45 f8             	mov    -0x8(%ebp),%eax
c0111c21:	c9                   	leave  
c0111c22:	c3                   	ret    

c0111c23 <printf>:
c0111c23:	55                   	push   %ebp
c0111c24:	89 e5                	mov    %esp,%ebp
c0111c26:	81 ec a8 00 00 00    	sub    $0xa8,%esp
c0111c2c:	8d 45 0c             	lea    0xc(%ebp),%eax
c0111c2f:	89 45 9c             	mov    %eax,-0x64(%ebp)
c0111c32:	c7 45 f4 00 00 00 00 	movl   $0x0,-0xc(%ebp)
c0111c39:	c7 45 f0 00 00 00 00 	movl   $0x0,-0x10(%ebp)
c0111c40:	e9 bb 04 00 00       	jmp    c0112100 <printf+0x4dd>
c0111c45:	8b 55 08             	mov    0x8(%ebp),%edx
c0111c48:	8b 45 f4             	mov    -0xc(%ebp),%eax
c0111c4b:	01 d0                	add    %edx,%eax
c0111c4d:	83 ec 04             	sub    $0x4,%esp
c0111c50:	6a 02                	push   $0x2
c0111c52:	68 80 3c 11 c0       	push   $0xc0113c80
c0111c57:	50                   	push   %eax
c0111c58:	e8 d9 04 00 00       	call   c0112136 <memcmp>
c0111c5d:	83 c4 10             	add    $0x10,%esp
c0111c60:	85 c0                	test   %eax,%eax
c0111c62:	75 1a                	jne    c0111c7e <printf+0x5b>
c0111c64:	83 ec 0c             	sub    $0xc,%esp
c0111c67:	6a 25                	push   $0x25
c0111c69:	e8 aa 04 00 00       	call   c0112118 <putchar>
c0111c6e:	83 c4 10             	add    $0x10,%esp
c0111c71:	83 45 f0 01          	addl   $0x1,-0x10(%ebp)
c0111c75:	83 45 f4 02          	addl   $0x2,-0xc(%ebp)
c0111c79:	e9 82 04 00 00       	jmp    c0112100 <printf+0x4dd>
c0111c7e:	8b 55 08             	mov    0x8(%ebp),%edx
c0111c81:	8b 45 f4             	mov    -0xc(%ebp),%eax
c0111c84:	01 d0                	add    %edx,%eax
c0111c86:	83 ec 04             	sub    $0x4,%esp
c0111c89:	6a 01                	push   $0x1
c0111c8b:	68 83 3c 11 c0       	push   $0xc0113c83
c0111c90:	50                   	push   %eax
c0111c91:	e8 a0 04 00 00       	call   c0112136 <memcmp>
c0111c96:	83 c4 10             	add    $0x10,%esp
c0111c99:	85 c0                	test   %eax,%eax
c0111c9b:	0f 85 3d 04 00 00    	jne    c01120de <printf+0x4bb>
c0111ca1:	83 45 f4 01          	addl   $0x1,-0xc(%ebp)
c0111ca5:	c6 45 ef 00          	movb   $0x0,-0x11(%ebp)
c0111ca9:	8b 55 08             	mov    0x8(%ebp),%edx
c0111cac:	8b 45 f4             	mov    -0xc(%ebp),%eax
c0111caf:	01 d0                	add    %edx,%eax
c0111cb1:	0f b6 00             	movzbl (%eax),%eax
c0111cb4:	3c 30                	cmp    $0x30,%al
c0111cb6:	75 08                	jne    c0111cc0 <printf+0x9d>
c0111cb8:	c6 45 ef 01          	movb   $0x1,-0x11(%ebp)
c0111cbc:	83 45 f4 01          	addl   $0x1,-0xc(%ebp)
c0111cc0:	c7 85 58 ff ff ff 00 	movl   $0x0,-0xa8(%ebp)
c0111cc7:	00 00 00 
c0111cca:	8b 55 08             	mov    0x8(%ebp),%edx
c0111ccd:	8b 45 f4             	mov    -0xc(%ebp),%eax
c0111cd0:	01 c2                	add    %eax,%edx
c0111cd2:	83 ec 08             	sub    $0x8,%esp
c0111cd5:	8d 85 58 ff ff ff    	lea    -0xa8(%ebp),%eax
c0111cdb:	50                   	push   %eax
c0111cdc:	52                   	push   %edx
c0111cdd:	e8 cc fe ff ff       	call   c0111bae <parse_uint32>
c0111ce2:	83 c4 10             	add    $0x10,%esp
c0111ce5:	01 45 f4             	add    %eax,-0xc(%ebp)
c0111ce8:	8d 85 5c ff ff ff    	lea    -0xa4(%ebp),%eax
c0111cee:	89 45 e8             	mov    %eax,-0x18(%ebp)
c0111cf1:	c7 45 e4 00 00 00 00 	movl   $0x0,-0x1c(%ebp)
c0111cf8:	8b 55 08             	mov    0x8(%ebp),%edx
c0111cfb:	8b 45 f4             	mov    -0xc(%ebp),%eax
c0111cfe:	01 d0                	add    %edx,%eax
c0111d00:	83 ec 04             	sub    $0x4,%esp
c0111d03:	6a 01                	push   $0x1
c0111d05:	68 85 3c 11 c0       	push   $0xc0113c85
c0111d0a:	50                   	push   %eax
c0111d0b:	e8 26 04 00 00       	call   c0112136 <memcmp>
c0111d10:	83 c4 10             	add    $0x10,%esp
c0111d13:	85 c0                	test   %eax,%eax
c0111d15:	75 28                	jne    c0111d3f <printf+0x11c>
c0111d17:	8b 45 9c             	mov    -0x64(%ebp),%eax
c0111d1a:	8d 50 04             	lea    0x4(%eax),%edx
c0111d1d:	89 55 9c             	mov    %edx,-0x64(%ebp)
c0111d20:	8b 00                	mov    (%eax),%eax
c0111d22:	89 45 a0             	mov    %eax,-0x60(%ebp)
c0111d25:	8b 45 a0             	mov    -0x60(%ebp),%eax
c0111d28:	89 c2                	mov    %eax,%edx
c0111d2a:	8b 45 e8             	mov    -0x18(%ebp),%eax
c0111d2d:	88 10                	mov    %dl,(%eax)
c0111d2f:	c7 45 e4 01 00 00 00 	movl   $0x1,-0x1c(%ebp)
c0111d36:	83 45 f4 01          	addl   $0x1,-0xc(%ebp)
c0111d3a:	e9 1f 03 00 00       	jmp    c011205e <printf+0x43b>
c0111d3f:	8b 55 08             	mov    0x8(%ebp),%edx
c0111d42:	8b 45 f4             	mov    -0xc(%ebp),%eax
c0111d45:	01 d0                	add    %edx,%eax
c0111d47:	83 ec 04             	sub    $0x4,%esp
c0111d4a:	6a 01                	push   $0x1
c0111d4c:	68 87 3c 11 c0       	push   $0xc0113c87
c0111d51:	50                   	push   %eax
c0111d52:	e8 df 03 00 00       	call   c0112136 <memcmp>
c0111d57:	83 c4 10             	add    $0x10,%esp
c0111d5a:	85 c0                	test   %eax,%eax
c0111d5c:	75 2e                	jne    c0111d8c <printf+0x169>
c0111d5e:	8b 45 9c             	mov    -0x64(%ebp),%eax
c0111d61:	8d 50 04             	lea    0x4(%eax),%edx
c0111d64:	89 55 9c             	mov    %edx,-0x64(%ebp)
c0111d67:	8b 00                	mov    (%eax),%eax
c0111d69:	89 45 a4             	mov    %eax,-0x5c(%ebp)
c0111d6c:	8b 45 a4             	mov    -0x5c(%ebp),%eax
c0111d6f:	89 45 e8             	mov    %eax,-0x18(%ebp)
c0111d72:	83 ec 0c             	sub    $0xc,%esp
c0111d75:	ff 75 a4             	pushl  -0x5c(%ebp)
c0111d78:	e8 ff 03 00 00       	call   c011217c <strlen>
c0111d7d:	83 c4 10             	add    $0x10,%esp
c0111d80:	89 45 e4             	mov    %eax,-0x1c(%ebp)
c0111d83:	83 45 f4 01          	addl   $0x1,-0xc(%ebp)
c0111d87:	e9 d2 02 00 00       	jmp    c011205e <printf+0x43b>
c0111d8c:	8b 55 08             	mov    0x8(%ebp),%edx
c0111d8f:	8b 45 f4             	mov    -0xc(%ebp),%eax
c0111d92:	01 d0                	add    %edx,%eax
c0111d94:	83 ec 04             	sub    $0x4,%esp
c0111d97:	6a 01                	push   $0x1
c0111d99:	68 89 3c 11 c0       	push   $0xc0113c89
c0111d9e:	50                   	push   %eax
c0111d9f:	e8 92 03 00 00       	call   c0112136 <memcmp>
c0111da4:	83 c4 10             	add    $0x10,%esp
c0111da7:	85 c0                	test   %eax,%eax
c0111da9:	75 2d                	jne    c0111dd8 <printf+0x1b5>
c0111dab:	8b 45 9c             	mov    -0x64(%ebp),%eax
c0111dae:	8d 50 04             	lea    0x4(%eax),%edx
c0111db1:	89 55 9c             	mov    %edx,-0x64(%ebp)
c0111db4:	8b 00                	mov    (%eax),%eax
c0111db6:	89 45 a8             	mov    %eax,-0x58(%ebp)
c0111db9:	8b 45 a8             	mov    -0x58(%ebp),%eax
c0111dbc:	99                   	cltd   
c0111dbd:	ff 75 e8             	pushl  -0x18(%ebp)
c0111dc0:	6a 0a                	push   $0xa
c0111dc2:	52                   	push   %edx
c0111dc3:	50                   	push   %eax
c0111dc4:	e8 c8 fc ff ff       	call   c0111a91 <sprint_signed>
c0111dc9:	83 c4 10             	add    $0x10,%esp
c0111dcc:	89 45 e4             	mov    %eax,-0x1c(%ebp)
c0111dcf:	83 45 f4 01          	addl   $0x1,-0xc(%ebp)
c0111dd3:	e9 86 02 00 00       	jmp    c011205e <printf+0x43b>
c0111dd8:	8b 55 08             	mov    0x8(%ebp),%edx
c0111ddb:	8b 45 f4             	mov    -0xc(%ebp),%eax
c0111dde:	01 d0                	add    %edx,%eax
c0111de0:	83 ec 04             	sub    $0x4,%esp
c0111de3:	6a 02                	push   $0x2
c0111de5:	68 8b 3c 11 c0       	push   $0xc0113c8b
c0111dea:	50                   	push   %eax
c0111deb:	e8 46 03 00 00       	call   c0112136 <memcmp>
c0111df0:	83 c4 10             	add    $0x10,%esp
c0111df3:	85 c0                	test   %eax,%eax
c0111df5:	75 2d                	jne    c0111e24 <printf+0x201>
c0111df7:	8b 45 9c             	mov    -0x64(%ebp),%eax
c0111dfa:	8d 50 04             	lea    0x4(%eax),%edx
c0111dfd:	89 55 9c             	mov    %edx,-0x64(%ebp)
c0111e00:	8b 00                	mov    (%eax),%eax
c0111e02:	89 45 ac             	mov    %eax,-0x54(%ebp)
c0111e05:	8b 45 ac             	mov    -0x54(%ebp),%eax
c0111e08:	99                   	cltd   
c0111e09:	ff 75 e8             	pushl  -0x18(%ebp)
c0111e0c:	6a 0a                	push   $0xa
c0111e0e:	52                   	push   %edx
c0111e0f:	50                   	push   %eax
c0111e10:	e8 7c fc ff ff       	call   c0111a91 <sprint_signed>
c0111e15:	83 c4 10             	add    $0x10,%esp
c0111e18:	89 45 e4             	mov    %eax,-0x1c(%ebp)
c0111e1b:	83 45 f4 02          	addl   $0x2,-0xc(%ebp)
c0111e1f:	e9 3a 02 00 00       	jmp    c011205e <printf+0x43b>
c0111e24:	8b 55 08             	mov    0x8(%ebp),%edx
c0111e27:	8b 45 f4             	mov    -0xc(%ebp),%eax
c0111e2a:	01 d0                	add    %edx,%eax
c0111e2c:	83 ec 04             	sub    $0x4,%esp
c0111e2f:	6a 03                	push   $0x3
c0111e31:	68 8e 3c 11 c0       	push   $0xc0113c8e
c0111e36:	50                   	push   %eax
c0111e37:	e8 fa 02 00 00       	call   c0112136 <memcmp>
c0111e3c:	83 c4 10             	add    $0x10,%esp
c0111e3f:	85 c0                	test   %eax,%eax
c0111e41:	75 33                	jne    c0111e76 <printf+0x253>
c0111e43:	8b 45 9c             	mov    -0x64(%ebp),%eax
c0111e46:	8d 50 08             	lea    0x8(%eax),%edx
c0111e49:	89 55 9c             	mov    %edx,-0x64(%ebp)
c0111e4c:	8b 50 04             	mov    0x4(%eax),%edx
c0111e4f:	8b 00                	mov    (%eax),%eax
c0111e51:	89 45 b0             	mov    %eax,-0x50(%ebp)
c0111e54:	89 55 b4             	mov    %edx,-0x4c(%ebp)
c0111e57:	ff 75 e8             	pushl  -0x18(%ebp)
c0111e5a:	6a 0a                	push   $0xa
c0111e5c:	ff 75 b4             	pushl  -0x4c(%ebp)
c0111e5f:	ff 75 b0             	pushl  -0x50(%ebp)
c0111e62:	e8 2a fc ff ff       	call   c0111a91 <sprint_signed>
c0111e67:	83 c4 10             	add    $0x10,%esp
c0111e6a:	89 45 e4             	mov    %eax,-0x1c(%ebp)
c0111e6d:	83 45 f4 03          	addl   $0x3,-0xc(%ebp)
c0111e71:	e9 e8 01 00 00       	jmp    c011205e <printf+0x43b>
c0111e76:	8b 55 08             	mov    0x8(%ebp),%edx
c0111e79:	8b 45 f4             	mov    -0xc(%ebp),%eax
c0111e7c:	01 d0                	add    %edx,%eax
c0111e7e:	83 ec 04             	sub    $0x4,%esp
c0111e81:	6a 01                	push   $0x1
c0111e83:	68 92 3c 11 c0       	push   $0xc0113c92
c0111e88:	50                   	push   %eax
c0111e89:	e8 a8 02 00 00       	call   c0112136 <memcmp>
c0111e8e:	83 c4 10             	add    $0x10,%esp
c0111e91:	85 c0                	test   %eax,%eax
c0111e93:	75 31                	jne    c0111ec6 <printf+0x2a3>
c0111e95:	8b 45 9c             	mov    -0x64(%ebp),%eax
c0111e98:	8d 50 04             	lea    0x4(%eax),%edx
c0111e9b:	89 55 9c             	mov    %edx,-0x64(%ebp)
c0111e9e:	8b 00                	mov    (%eax),%eax
c0111ea0:	89 45 b8             	mov    %eax,-0x48(%ebp)
c0111ea3:	8b 45 b8             	mov    -0x48(%ebp),%eax
c0111ea6:	ba 00 00 00 00       	mov    $0x0,%edx
c0111eab:	ff 75 e8             	pushl  -0x18(%ebp)
c0111eae:	6a 0a                	push   $0xa
c0111eb0:	52                   	push   %edx
c0111eb1:	50                   	push   %eax
c0111eb2:	e8 49 fc ff ff       	call   c0111b00 <sprint_unsigned>
c0111eb7:	83 c4 10             	add    $0x10,%esp
c0111eba:	89 45 e4             	mov    %eax,-0x1c(%ebp)
c0111ebd:	83 45 f4 01          	addl   $0x1,-0xc(%ebp)
c0111ec1:	e9 98 01 00 00       	jmp    c011205e <printf+0x43b>
c0111ec6:	8b 55 08             	mov    0x8(%ebp),%edx
c0111ec9:	8b 45 f4             	mov    -0xc(%ebp),%eax
c0111ecc:	01 d0                	add    %edx,%eax
c0111ece:	83 ec 04             	sub    $0x4,%esp
c0111ed1:	6a 02                	push   $0x2
c0111ed3:	68 94 3c 11 c0       	push   $0xc0113c94
c0111ed8:	50                   	push   %eax
c0111ed9:	e8 58 02 00 00       	call   c0112136 <memcmp>
c0111ede:	83 c4 10             	add    $0x10,%esp
c0111ee1:	85 c0                	test   %eax,%eax
c0111ee3:	75 31                	jne    c0111f16 <printf+0x2f3>
c0111ee5:	8b 45 9c             	mov    -0x64(%ebp),%eax
c0111ee8:	8d 50 04             	lea    0x4(%eax),%edx
c0111eeb:	89 55 9c             	mov    %edx,-0x64(%ebp)
c0111eee:	8b 00                	mov    (%eax),%eax
c0111ef0:	89 45 bc             	mov    %eax,-0x44(%ebp)
c0111ef3:	8b 45 bc             	mov    -0x44(%ebp),%eax
c0111ef6:	ba 00 00 00 00       	mov    $0x0,%edx
c0111efb:	ff 75 e8             	pushl  -0x18(%ebp)
c0111efe:	6a 0a                	push   $0xa
c0111f00:	52                   	push   %edx
c0111f01:	50                   	push   %eax
c0111f02:	e8 f9 fb ff ff       	call   c0111b00 <sprint_unsigned>
c0111f07:	83 c4 10             	add    $0x10,%esp
c0111f0a:	89 45 e4             	mov    %eax,-0x1c(%ebp)
c0111f0d:	83 45 f4 02          	addl   $0x2,-0xc(%ebp)
c0111f11:	e9 48 01 00 00       	jmp    c011205e <printf+0x43b>
c0111f16:	8b 55 08             	mov    0x8(%ebp),%edx
c0111f19:	8b 45 f4             	mov    -0xc(%ebp),%eax
c0111f1c:	01 d0                	add    %edx,%eax
c0111f1e:	83 ec 04             	sub    $0x4,%esp
c0111f21:	6a 03                	push   $0x3
c0111f23:	68 97 3c 11 c0       	push   $0xc0113c97
c0111f28:	50                   	push   %eax
c0111f29:	e8 08 02 00 00       	call   c0112136 <memcmp>
c0111f2e:	83 c4 10             	add    $0x10,%esp
c0111f31:	85 c0                	test   %eax,%eax
c0111f33:	75 33                	jne    c0111f68 <printf+0x345>
c0111f35:	8b 45 9c             	mov    -0x64(%ebp),%eax
c0111f38:	8d 50 08             	lea    0x8(%eax),%edx
c0111f3b:	89 55 9c             	mov    %edx,-0x64(%ebp)
c0111f3e:	8b 50 04             	mov    0x4(%eax),%edx
c0111f41:	8b 00                	mov    (%eax),%eax
c0111f43:	89 45 c0             	mov    %eax,-0x40(%ebp)
c0111f46:	89 55 c4             	mov    %edx,-0x3c(%ebp)
c0111f49:	ff 75 e8             	pushl  -0x18(%ebp)
c0111f4c:	6a 0a                	push   $0xa
c0111f4e:	ff 75 c4             	pushl  -0x3c(%ebp)
c0111f51:	ff 75 c0             	pushl  -0x40(%ebp)
c0111f54:	e8 a7 fb ff ff       	call   c0111b00 <sprint_unsigned>
c0111f59:	83 c4 10             	add    $0x10,%esp
c0111f5c:	89 45 e4             	mov    %eax,-0x1c(%ebp)
c0111f5f:	83 45 f4 03          	addl   $0x3,-0xc(%ebp)
c0111f63:	e9 f6 00 00 00       	jmp    c011205e <printf+0x43b>
c0111f68:	8b 55 08             	mov    0x8(%ebp),%edx
c0111f6b:	8b 45 f4             	mov    -0xc(%ebp),%eax
c0111f6e:	01 d0                	add    %edx,%eax
c0111f70:	83 ec 04             	sub    $0x4,%esp
c0111f73:	6a 01                	push   $0x1
c0111f75:	68 9b 3c 11 c0       	push   $0xc0113c9b
c0111f7a:	50                   	push   %eax
c0111f7b:	e8 b6 01 00 00       	call   c0112136 <memcmp>
c0111f80:	83 c4 10             	add    $0x10,%esp
c0111f83:	85 c0                	test   %eax,%eax
c0111f85:	75 31                	jne    c0111fb8 <printf+0x395>
c0111f87:	8b 45 9c             	mov    -0x64(%ebp),%eax
c0111f8a:	8d 50 04             	lea    0x4(%eax),%edx
c0111f8d:	89 55 9c             	mov    %edx,-0x64(%ebp)
c0111f90:	8b 00                	mov    (%eax),%eax
c0111f92:	89 45 c8             	mov    %eax,-0x38(%ebp)
c0111f95:	8b 45 c8             	mov    -0x38(%ebp),%eax
c0111f98:	ba 00 00 00 00       	mov    $0x0,%edx
c0111f9d:	ff 75 e8             	pushl  -0x18(%ebp)
c0111fa0:	6a 10                	push   $0x10
c0111fa2:	52                   	push   %edx
c0111fa3:	50                   	push   %eax
c0111fa4:	e8 57 fb ff ff       	call   c0111b00 <sprint_unsigned>
c0111fa9:	83 c4 10             	add    $0x10,%esp
c0111fac:	89 45 e4             	mov    %eax,-0x1c(%ebp)
c0111faf:	83 45 f4 01          	addl   $0x1,-0xc(%ebp)
c0111fb3:	e9 a6 00 00 00       	jmp    c011205e <printf+0x43b>
c0111fb8:	8b 55 08             	mov    0x8(%ebp),%edx
c0111fbb:	8b 45 f4             	mov    -0xc(%ebp),%eax
c0111fbe:	01 d0                	add    %edx,%eax
c0111fc0:	83 ec 04             	sub    $0x4,%esp
c0111fc3:	6a 02                	push   $0x2
c0111fc5:	68 9d 3c 11 c0       	push   $0xc0113c9d
c0111fca:	50                   	push   %eax
c0111fcb:	e8 66 01 00 00       	call   c0112136 <memcmp>
c0111fd0:	83 c4 10             	add    $0x10,%esp
c0111fd3:	85 c0                	test   %eax,%eax
c0111fd5:	75 2e                	jne    c0112005 <printf+0x3e2>
c0111fd7:	8b 45 9c             	mov    -0x64(%ebp),%eax
c0111fda:	8d 50 04             	lea    0x4(%eax),%edx
c0111fdd:	89 55 9c             	mov    %edx,-0x64(%ebp)
c0111fe0:	8b 00                	mov    (%eax),%eax
c0111fe2:	89 45 cc             	mov    %eax,-0x34(%ebp)
c0111fe5:	8b 45 cc             	mov    -0x34(%ebp),%eax
c0111fe8:	ba 00 00 00 00       	mov    $0x0,%edx
c0111fed:	ff 75 e8             	pushl  -0x18(%ebp)
c0111ff0:	6a 10                	push   $0x10
c0111ff2:	52                   	push   %edx
c0111ff3:	50                   	push   %eax
c0111ff4:	e8 07 fb ff ff       	call   c0111b00 <sprint_unsigned>
c0111ff9:	83 c4 10             	add    $0x10,%esp
c0111ffc:	89 45 e4             	mov    %eax,-0x1c(%ebp)
c0111fff:	83 45 f4 02          	addl   $0x2,-0xc(%ebp)
c0112003:	eb 59                	jmp    c011205e <printf+0x43b>
c0112005:	8b 55 08             	mov    0x8(%ebp),%edx
c0112008:	8b 45 f4             	mov    -0xc(%ebp),%eax
c011200b:	01 d0                	add    %edx,%eax
c011200d:	83 ec 04             	sub    $0x4,%esp
c0112010:	6a 03                	push   $0x3
c0112012:	68 a0 3c 11 c0       	push   $0xc0113ca0
c0112017:	50                   	push   %eax
c0112018:	e8 19 01 00 00       	call   c0112136 <memcmp>
c011201d:	83 c4 10             	add    $0x10,%esp
c0112020:	85 c0                	test   %eax,%eax
c0112022:	75 30                	jne    c0112054 <printf+0x431>
c0112024:	8b 45 9c             	mov    -0x64(%ebp),%eax
c0112027:	8d 50 08             	lea    0x8(%eax),%edx
c011202a:	89 55 9c             	mov    %edx,-0x64(%ebp)
c011202d:	8b 50 04             	mov    0x4(%eax),%edx
c0112030:	8b 00                	mov    (%eax),%eax
c0112032:	89 45 d0             	mov    %eax,-0x30(%ebp)
c0112035:	89 55 d4             	mov    %edx,-0x2c(%ebp)
c0112038:	ff 75 e8             	pushl  -0x18(%ebp)
c011203b:	6a 10                	push   $0x10
c011203d:	ff 75 d4             	pushl  -0x2c(%ebp)
c0112040:	ff 75 d0             	pushl  -0x30(%ebp)
c0112043:	e8 b8 fa ff ff       	call   c0111b00 <sprint_unsigned>
c0112048:	83 c4 10             	add    $0x10,%esp
c011204b:	89 45 e4             	mov    %eax,-0x1c(%ebp)
c011204e:	83 45 f4 03          	addl   $0x3,-0xc(%ebp)
c0112052:	eb 0a                	jmp    c011205e <printf+0x43b>
c0112054:	b8 ff ff ff ff       	mov    $0xffffffff,%eax
c0112059:	e9 b8 00 00 00       	jmp    c0112116 <printf+0x4f3>
c011205e:	8b 85 58 ff ff ff    	mov    -0xa8(%ebp),%eax
c0112064:	39 45 e4             	cmp    %eax,-0x1c(%ebp)
c0112067:	73 60                	jae    c01120c9 <printf+0x4a6>
c0112069:	80 7d ef 00          	cmpb   $0x0,-0x11(%ebp)
c011206d:	74 2e                	je     c011209d <printf+0x47a>
c011206f:	c7 45 e0 00 00 00 00 	movl   $0x0,-0x20(%ebp)
c0112076:	eb 11                	jmp    c0112089 <printf+0x466>
c0112078:	83 ec 0c             	sub    $0xc,%esp
c011207b:	6a 30                	push   $0x30
c011207d:	e8 96 00 00 00       	call   c0112118 <putchar>
c0112082:	83 c4 10             	add    $0x10,%esp
c0112085:	83 45 e0 01          	addl   $0x1,-0x20(%ebp)
c0112089:	8b 85 58 ff ff ff    	mov    -0xa8(%ebp),%eax
c011208f:	2b 45 e4             	sub    -0x1c(%ebp),%eax
c0112092:	89 c2                	mov    %eax,%edx
c0112094:	8b 45 e0             	mov    -0x20(%ebp),%eax
c0112097:	39 c2                	cmp    %eax,%edx
c0112099:	77 dd                	ja     c0112078 <printf+0x455>
c011209b:	eb 2c                	jmp    c01120c9 <printf+0x4a6>
c011209d:	c7 45 dc 00 00 00 00 	movl   $0x0,-0x24(%ebp)
c01120a4:	eb 11                	jmp    c01120b7 <printf+0x494>
c01120a6:	83 ec 0c             	sub    $0xc,%esp
c01120a9:	6a 20                	push   $0x20
c01120ab:	e8 68 00 00 00       	call   c0112118 <putchar>
c01120b0:	83 c4 10             	add    $0x10,%esp
c01120b3:	83 45 dc 01          	addl   $0x1,-0x24(%ebp)
c01120b7:	8b 85 58 ff ff ff    	mov    -0xa8(%ebp),%eax
c01120bd:	2b 45 e4             	sub    -0x1c(%ebp),%eax
c01120c0:	89 c2                	mov    %eax,%edx
c01120c2:	8b 45 dc             	mov    -0x24(%ebp),%eax
c01120c5:	39 c2                	cmp    %eax,%edx
c01120c7:	77 dd                	ja     c01120a6 <printf+0x483>
c01120c9:	83 ec 04             	sub    $0x4,%esp
c01120cc:	ff 75 e4             	pushl  -0x1c(%ebp)
c01120cf:	ff 75 e8             	pushl  -0x18(%ebp)
c01120d2:	6a 01                	push   $0x1
c01120d4:	e8 c9 09 00 00       	call   c0112aa2 <write>
c01120d9:	83 c4 10             	add    $0x10,%esp
c01120dc:	eb 22                	jmp    c0112100 <printf+0x4dd>
c01120de:	8b 55 08             	mov    0x8(%ebp),%edx
c01120e1:	8b 45 f4             	mov    -0xc(%ebp),%eax
c01120e4:	01 d0                	add    %edx,%eax
c01120e6:	0f b6 00             	movzbl (%eax),%eax
c01120e9:	0f be c0             	movsbl %al,%eax
c01120ec:	83 ec 0c             	sub    $0xc,%esp
c01120ef:	50                   	push   %eax
c01120f0:	e8 23 00 00 00       	call   c0112118 <putchar>
c01120f5:	83 c4 10             	add    $0x10,%esp
c01120f8:	83 45 f0 01          	addl   $0x1,-0x10(%ebp)
c01120fc:	83 45 f4 01          	addl   $0x1,-0xc(%ebp)
c0112100:	8b 55 08             	mov    0x8(%ebp),%edx
c0112103:	8b 45 f4             	mov    -0xc(%ebp),%eax
c0112106:	01 d0                	add    %edx,%eax
c0112108:	0f b6 00             	movzbl (%eax),%eax
c011210b:	84 c0                	test   %al,%al
c011210d:	0f 85 32 fb ff ff    	jne    c0111c45 <printf+0x22>
c0112113:	8b 45 f0             	mov    -0x10(%ebp),%eax
c0112116:	c9                   	leave  
c0112117:	c3                   	ret    

c0112118 <putchar>:
c0112118:	55                   	push   %ebp
c0112119:	89 e5                	mov    %esp,%ebp
c011211b:	83 ec 08             	sub    $0x8,%esp
c011211e:	83 ec 04             	sub    $0x4,%esp
c0112121:	6a 01                	push   $0x1
c0112123:	8d 45 08             	lea    0x8(%ebp),%eax
c0112126:	50                   	push   %eax
c0112127:	6a 01                	push   $0x1
c0112129:	e8 74 09 00 00       	call   c0112aa2 <write>
c011212e:	83 c4 10             	add    $0x10,%esp
c0112131:	8b 45 08             	mov    0x8(%ebp),%eax
c0112134:	c9                   	leave  
c0112135:	c3                   	ret    

c0112136 <memcmp>:
c0112136:	8b 7c 24 04          	mov    0x4(%esp),%edi
c011213a:	8b 74 24 08          	mov    0x8(%esp),%esi
c011213e:	8b 4c 24 0c          	mov    0xc(%esp),%ecx
c0112142:	fc                   	cld    
c0112143:	85 c9                	test   %ecx,%ecx
c0112145:	f3 a6                	repz cmpsb %es:(%edi),%ds:(%esi)
c0112147:	75 06                	jne    c011214f <memcmp+0x19>
c0112149:	b8 00 00 00 00       	mov    $0x0,%eax
c011214e:	c3                   	ret    
c011214f:	4f                   	dec    %edi
c0112150:	4e                   	dec    %esi
c0112151:	8b 07                	mov    (%edi),%eax
c0112153:	2b 06                	sub    (%esi),%eax
c0112155:	c3                   	ret    

c0112156 <memcpy>:
c0112156:	8b 7c 24 04          	mov    0x4(%esp),%edi
c011215a:	8b 74 24 08          	mov    0x8(%esp),%esi
c011215e:	8b 4c 24 0c          	mov    0xc(%esp),%ecx
c0112162:	89 f8                	mov    %edi,%eax
c0112164:	fc                   	cld    
c0112165:	f3 a4                	rep movsb %ds:(%esi),%es:(%edi)
c0112167:	c3                   	ret    

c0112168 <memset>:
c0112168:	8b 7c 24 04          	mov    0x4(%esp),%edi
c011216c:	8b 44 24 08          	mov    0x8(%esp),%eax
c0112170:	8b 4c 24 0c          	mov    0xc(%esp),%ecx
c0112174:	89 fa                	mov    %edi,%edx
c0112176:	fc                   	cld    
c0112177:	f3 aa                	rep stos %al,%es:(%edi)
c0112179:	89 d0                	mov    %edx,%eax
c011217b:	c3                   	ret    

c011217c <strlen>:
c011217c:	55                   	push   %ebp
c011217d:	89 e5                	mov    %esp,%ebp
c011217f:	83 ec 10             	sub    $0x10,%esp
c0112182:	c7 45 fc 00 00 00 00 	movl   $0x0,-0x4(%ebp)
c0112189:	eb 04                	jmp    c011218f <strlen+0x13>
c011218b:	83 45 fc 01          	addl   $0x1,-0x4(%ebp)
c011218f:	8b 55 08             	mov    0x8(%ebp),%edx
c0112192:	8b 45 fc             	mov    -0x4(%ebp),%eax
c0112195:	01 d0                	add    %edx,%eax
c0112197:	0f b6 00             	movzbl (%eax),%eax
c011219a:	84 c0                	test   %al,%al
c011219c:	75 ed                	jne    c011218b <strlen+0xf>
c011219e:	8b 45 fc             	mov    -0x4(%ebp),%eax
c01121a1:	c9                   	leave  
c01121a2:	c3                   	ret    

c01121a3 <panic>:
c01121a3:	55                   	push   %ebp
c01121a4:	89 e5                	mov    %esp,%ebp
c01121a6:	83 ec 08             	sub    $0x8,%esp
c01121a9:	83 ec 08             	sub    $0x8,%esp
c01121ac:	ff 75 08             	pushl  0x8(%ebp)
c01121af:	68 a4 3c 11 c0       	push   $0xc0113ca4
c01121b4:	e8 6a fa ff ff       	call   c0111c23 <printf>
c01121b9:	83 c4 10             	add    $0x10,%esp
c01121bc:	eb fe                	jmp    c01121bc <panic+0x19>

c01121be <bitset_set>:
c01121be:	55                   	push   %ebp
c01121bf:	89 e5                	mov    %esp,%ebp
c01121c1:	57                   	push   %edi
c01121c2:	56                   	push   %esi
c01121c3:	53                   	push   %ebx
c01121c4:	83 ec 1c             	sub    $0x1c,%esp
c01121c7:	8b 45 0c             	mov    0xc(%ebp),%eax
c01121ca:	c1 e8 06             	shr    $0x6,%eax
c01121cd:	89 45 ec             	mov    %eax,-0x14(%ebp)
c01121d0:	8b 45 0c             	mov    0xc(%ebp),%eax
c01121d3:	83 e0 3f             	and    $0x3f,%eax
c01121d6:	89 45 e8             	mov    %eax,-0x18(%ebp)
c01121d9:	8b 45 ec             	mov    -0x14(%ebp),%eax
c01121dc:	8d 14 c5 00 00 00 00 	lea    0x0(,%eax,8),%edx
c01121e3:	8b 45 08             	mov    0x8(%ebp),%eax
c01121e6:	01 d0                	add    %edx,%eax
c01121e8:	8b 50 04             	mov    0x4(%eax),%edx
c01121eb:	8b 00                	mov    (%eax),%eax
c01121ed:	89 45 d8             	mov    %eax,-0x28(%ebp)
c01121f0:	89 55 dc             	mov    %edx,-0x24(%ebp)
c01121f3:	8b 5d e8             	mov    -0x18(%ebp),%ebx
c01121f6:	b8 01 00 00 00       	mov    $0x1,%eax
c01121fb:	ba 00 00 00 00       	mov    $0x0,%edx
c0112200:	89 d9                	mov    %ebx,%ecx
c0112202:	0f a5 c2             	shld   %cl,%eax,%edx
c0112205:	d3 e0                	shl    %cl,%eax
c0112207:	f6 c1 20             	test   $0x20,%cl
c011220a:	74 04                	je     c0112210 <bitset_set+0x52>
c011220c:	89 c2                	mov    %eax,%edx
c011220e:	31 c0                	xor    %eax,%eax
c0112210:	89 c1                	mov    %eax,%ecx
c0112212:	89 d3                	mov    %edx,%ebx
c0112214:	8b 45 ec             	mov    -0x14(%ebp),%eax
c0112217:	8d 14 c5 00 00 00 00 	lea    0x0(,%eax,8),%edx
c011221e:	8b 45 08             	mov    0x8(%ebp),%eax
c0112221:	01 d0                	add    %edx,%eax
c0112223:	8b 55 d8             	mov    -0x28(%ebp),%edx
c0112226:	09 ca                	or     %ecx,%edx
c0112228:	89 d6                	mov    %edx,%esi
c011222a:	8b 55 dc             	mov    -0x24(%ebp),%edx
c011222d:	09 da                	or     %ebx,%edx
c011222f:	89 d7                	mov    %edx,%edi
c0112231:	89 30                	mov    %esi,(%eax)
c0112233:	89 78 04             	mov    %edi,0x4(%eax)
c0112236:	90                   	nop
c0112237:	83 c4 1c             	add    $0x1c,%esp
c011223a:	5b                   	pop    %ebx
c011223b:	5e                   	pop    %esi
c011223c:	5f                   	pop    %edi
c011223d:	5d                   	pop    %ebp
c011223e:	c3                   	ret    

c011223f <bitset_clear>:
c011223f:	55                   	push   %ebp
c0112240:	89 e5                	mov    %esp,%ebp
c0112242:	57                   	push   %edi
c0112243:	56                   	push   %esi
c0112244:	53                   	push   %ebx
c0112245:	83 ec 24             	sub    $0x24,%esp
c0112248:	8b 45 0c             	mov    0xc(%ebp),%eax
c011224b:	c1 e8 06             	shr    $0x6,%eax
c011224e:	89 45 ec             	mov    %eax,-0x14(%ebp)
c0112251:	8b 45 0c             	mov    0xc(%ebp),%eax
c0112254:	83 e0 3f             	and    $0x3f,%eax
c0112257:	89 45 e8             	mov    %eax,-0x18(%ebp)
c011225a:	8b 45 ec             	mov    -0x14(%ebp),%eax
c011225d:	8d 14 c5 00 00 00 00 	lea    0x0(,%eax,8),%edx
c0112264:	8b 45 08             	mov    0x8(%ebp),%eax
c0112267:	01 d0                	add    %edx,%eax
c0112269:	8b 10                	mov    (%eax),%edx
c011226b:	8b 48 04             	mov    0x4(%eax),%ecx
c011226e:	89 55 d0             	mov    %edx,-0x30(%ebp)
c0112271:	89 4d d4             	mov    %ecx,-0x2c(%ebp)
c0112274:	8b 4d e8             	mov    -0x18(%ebp),%ecx
c0112277:	b8 01 00 00 00       	mov    $0x1,%eax
c011227c:	ba 00 00 00 00       	mov    $0x0,%edx
c0112281:	0f a5 c2             	shld   %cl,%eax,%edx
c0112284:	d3 e0                	shl    %cl,%eax
c0112286:	f6 c1 20             	test   $0x20,%cl
c0112289:	74 04                	je     c011228f <bitset_clear+0x50>
c011228b:	89 c2                	mov    %eax,%edx
c011228d:	31 c0                	xor    %eax,%eax
c011228f:	89 c1                	mov    %eax,%ecx
c0112291:	f7 d1                	not    %ecx
c0112293:	89 4d d8             	mov    %ecx,-0x28(%ebp)
c0112296:	89 d0                	mov    %edx,%eax
c0112298:	f7 d0                	not    %eax
c011229a:	89 45 dc             	mov    %eax,-0x24(%ebp)
c011229d:	8b 45 ec             	mov    -0x14(%ebp),%eax
c01122a0:	8d 14 c5 00 00 00 00 	lea    0x0(,%eax,8),%edx
c01122a7:	8b 45 08             	mov    0x8(%ebp),%eax
c01122aa:	01 d0                	add    %edx,%eax
c01122ac:	8b 55 d0             	mov    -0x30(%ebp),%edx
c01122af:	8b 4d d4             	mov    -0x2c(%ebp),%ecx
c01122b2:	89 d3                	mov    %edx,%ebx
c01122b4:	23 5d d8             	and    -0x28(%ebp),%ebx
c01122b7:	89 de                	mov    %ebx,%esi
c01122b9:	89 cb                	mov    %ecx,%ebx
c01122bb:	23 5d dc             	and    -0x24(%ebp),%ebx
c01122be:	89 df                	mov    %ebx,%edi
c01122c0:	89 30                	mov    %esi,(%eax)
c01122c2:	89 78 04             	mov    %edi,0x4(%eax)
c01122c5:	90                   	nop
c01122c6:	83 c4 24             	add    $0x24,%esp
c01122c9:	5b                   	pop    %ebx
c01122ca:	5e                   	pop    %esi
c01122cb:	5f                   	pop    %edi
c01122cc:	5d                   	pop    %ebp
c01122cd:	c3                   	ret    

c01122ce <bit_one>:
c01122ce:	55                   	push   %ebp
c01122cf:	89 e5                	mov    %esp,%ebp
c01122d1:	8b 45 0c             	mov    0xc(%ebp),%eax
c01122d4:	8d 14 c5 00 00 00 00 	lea    0x0(,%eax,8),%edx
c01122db:	8b 45 08             	mov    0x8(%ebp),%eax
c01122de:	01 d0                	add    %edx,%eax
c01122e0:	8b 50 04             	mov    0x4(%eax),%edx
c01122e3:	8b 00                	mov    (%eax),%eax
c01122e5:	8b 4d 10             	mov    0x10(%ebp),%ecx
c01122e8:	0f ad d0             	shrd   %cl,%edx,%eax
c01122eb:	d3 ea                	shr    %cl,%edx
c01122ed:	f6 c1 20             	test   $0x20,%cl
c01122f0:	74 04                	je     c01122f6 <bit_one+0x28>
c01122f2:	89 d0                	mov    %edx,%eax
c01122f4:	31 d2                	xor    %edx,%edx
c01122f6:	83 e0 01             	and    $0x1,%eax
c01122f9:	85 c0                	test   %eax,%eax
c01122fb:	0f 95 c0             	setne  %al
c01122fe:	5d                   	pop    %ebp
c01122ff:	c3                   	ret    

c0112300 <bitset_find_one>:
c0112300:	55                   	push   %ebp
c0112301:	89 e5                	mov    %esp,%ebp
c0112303:	56                   	push   %esi
c0112304:	53                   	push   %ebx
c0112305:	83 ec 10             	sub    $0x10,%esp
c0112308:	c7 45 f4 00 00 00 00 	movl   $0x0,-0xc(%ebp)
c011230f:	eb 77                	jmp    c0112388 <bitset_find_one+0x88>
c0112311:	8b 45 f4             	mov    -0xc(%ebp),%eax
c0112314:	8d 14 c5 00 00 00 00 	lea    0x0(,%eax,8),%edx
c011231b:	8b 45 08             	mov    0x8(%ebp),%eax
c011231e:	01 d0                	add    %edx,%eax
c0112320:	8b 50 04             	mov    0x4(%eax),%edx
c0112323:	8b 00                	mov    (%eax),%eax
c0112325:	89 c6                	mov    %eax,%esi
c0112327:	83 f6 00             	xor    $0x0,%esi
c011232a:	89 f1                	mov    %esi,%ecx
c011232c:	89 d0                	mov    %edx,%eax
c011232e:	80 f4 00             	xor    $0x0,%ah
c0112331:	89 c3                	mov    %eax,%ebx
c0112333:	89 d8                	mov    %ebx,%eax
c0112335:	09 c8                	or     %ecx,%eax
c0112337:	85 c0                	test   %eax,%eax
c0112339:	74 49                	je     c0112384 <bitset_find_one+0x84>
c011233b:	c7 45 f0 00 00 00 00 	movl   $0x0,-0x10(%ebp)
c0112342:	eb 04                	jmp    c0112348 <bitset_find_one+0x48>
c0112344:	83 45 f0 01          	addl   $0x1,-0x10(%ebp)
c0112348:	8b 45 f4             	mov    -0xc(%ebp),%eax
c011234b:	c1 e0 06             	shl    $0x6,%eax
c011234e:	89 c2                	mov    %eax,%edx
c0112350:	8b 45 f0             	mov    -0x10(%ebp),%eax
c0112353:	01 d0                	add    %edx,%eax
c0112355:	39 45 0c             	cmp    %eax,0xc(%ebp)
c0112358:	76 1b                	jbe    c0112375 <bitset_find_one+0x75>
c011235a:	83 ec 04             	sub    $0x4,%esp
c011235d:	ff 75 f0             	pushl  -0x10(%ebp)
c0112360:	ff 75 f4             	pushl  -0xc(%ebp)
c0112363:	ff 75 08             	pushl  0x8(%ebp)
c0112366:	e8 63 ff ff ff       	call   c01122ce <bit_one>
c011236b:	83 c4 10             	add    $0x10,%esp
c011236e:	83 f0 01             	xor    $0x1,%eax
c0112371:	84 c0                	test   %al,%al
c0112373:	75 cf                	jne    c0112344 <bitset_find_one+0x44>
c0112375:	8b 45 f4             	mov    -0xc(%ebp),%eax
c0112378:	c1 e0 06             	shl    $0x6,%eax
c011237b:	89 c2                	mov    %eax,%edx
c011237d:	8b 45 f0             	mov    -0x10(%ebp),%eax
c0112380:	01 d0                	add    %edx,%eax
c0112382:	eb 16                	jmp    c011239a <bitset_find_one+0x9a>
c0112384:	83 45 f4 01          	addl   $0x1,-0xc(%ebp)
c0112388:	8b 45 f4             	mov    -0xc(%ebp),%eax
c011238b:	c1 e0 06             	shl    $0x6,%eax
c011238e:	39 45 0c             	cmp    %eax,0xc(%ebp)
c0112391:	0f 87 7a ff ff ff    	ja     c0112311 <bitset_find_one+0x11>
c0112397:	8b 45 0c             	mov    0xc(%ebp),%eax
c011239a:	8d 65 f8             	lea    -0x8(%ebp),%esp
c011239d:	5b                   	pop    %ebx
c011239e:	5e                   	pop    %esi
c011239f:	5d                   	pop    %ebp
c01123a0:	c3                   	ret    

c01123a1 <bit_one>:
c01123a1:	55                   	push   %ebp
c01123a2:	89 e5                	mov    %esp,%ebp
c01123a4:	8b 45 0c             	mov    0xc(%ebp),%eax
c01123a7:	8d 14 c5 00 00 00 00 	lea    0x0(,%eax,8),%edx
c01123ae:	8b 45 08             	mov    0x8(%ebp),%eax
c01123b1:	01 d0                	add    %edx,%eax
c01123b3:	8b 50 04             	mov    0x4(%eax),%edx
c01123b6:	8b 00                	mov    (%eax),%eax
c01123b8:	8b 4d 10             	mov    0x10(%ebp),%ecx
c01123bb:	0f ad d0             	shrd   %cl,%edx,%eax
c01123be:	d3 ea                	shr    %cl,%edx
c01123c0:	f6 c1 20             	test   $0x20,%cl
c01123c3:	74 04                	je     c01123c9 <bit_one+0x28>
c01123c5:	89 d0                	mov    %edx,%eax
c01123c7:	31 d2                	xor    %edx,%edx
c01123c9:	83 e0 01             	and    $0x1,%eax
c01123cc:	85 c0                	test   %eax,%eax
c01123ce:	0f 95 c0             	setne  %al
c01123d1:	5d                   	pop    %ebp
c01123d2:	c3                   	ret    

c01123d3 <bitset_find_zero>:
c01123d3:	55                   	push   %ebp
c01123d4:	89 e5                	mov    %esp,%ebp
c01123d6:	56                   	push   %esi
c01123d7:	53                   	push   %ebx
c01123d8:	83 ec 10             	sub    $0x10,%esp
c01123db:	c7 45 f4 00 00 00 00 	movl   $0x0,-0xc(%ebp)
c01123e2:	eb 74                	jmp    c0112458 <bitset_find_zero+0x85>
c01123e4:	8b 45 f4             	mov    -0xc(%ebp),%eax
c01123e7:	8d 14 c5 00 00 00 00 	lea    0x0(,%eax,8),%edx
c01123ee:	8b 45 08             	mov    0x8(%ebp),%eax
c01123f1:	01 d0                	add    %edx,%eax
c01123f3:	8b 50 04             	mov    0x4(%eax),%edx
c01123f6:	8b 00                	mov    (%eax),%eax
c01123f8:	89 c6                	mov    %eax,%esi
c01123fa:	83 f6 ff             	xor    $0xffffffff,%esi
c01123fd:	89 f1                	mov    %esi,%ecx
c01123ff:	89 d0                	mov    %edx,%eax
c0112401:	83 f0 ff             	xor    $0xffffffff,%eax
c0112404:	89 c3                	mov    %eax,%ebx
c0112406:	89 d8                	mov    %ebx,%eax
c0112408:	09 c8                	or     %ecx,%eax
c011240a:	85 c0                	test   %eax,%eax
c011240c:	74 46                	je     c0112454 <bitset_find_zero+0x81>
c011240e:	c7 45 f0 00 00 00 00 	movl   $0x0,-0x10(%ebp)
c0112415:	eb 04                	jmp    c011241b <bitset_find_zero+0x48>
c0112417:	83 45 f0 01          	addl   $0x1,-0x10(%ebp)
c011241b:	8b 45 f4             	mov    -0xc(%ebp),%eax
c011241e:	c1 e0 06             	shl    $0x6,%eax
c0112421:	89 c2                	mov    %eax,%edx
c0112423:	8b 45 f0             	mov    -0x10(%ebp),%eax
c0112426:	01 d0                	add    %edx,%eax
c0112428:	39 45 0c             	cmp    %eax,0xc(%ebp)
c011242b:	76 18                	jbe    c0112445 <bitset_find_zero+0x72>
c011242d:	83 ec 04             	sub    $0x4,%esp
c0112430:	ff 75 f0             	pushl  -0x10(%ebp)
c0112433:	ff 75 f4             	pushl  -0xc(%ebp)
c0112436:	ff 75 08             	pushl  0x8(%ebp)
c0112439:	e8 63 ff ff ff       	call   c01123a1 <bit_one>
c011243e:	83 c4 10             	add    $0x10,%esp
c0112441:	84 c0                	test   %al,%al
c0112443:	75 d2                	jne    c0112417 <bitset_find_zero+0x44>
c0112445:	8b 45 f4             	mov    -0xc(%ebp),%eax
c0112448:	c1 e0 06             	shl    $0x6,%eax
c011244b:	89 c2                	mov    %eax,%edx
c011244d:	8b 45 f0             	mov    -0x10(%ebp),%eax
c0112450:	01 d0                	add    %edx,%eax
c0112452:	eb 12                	jmp    c0112466 <bitset_find_zero+0x93>
c0112454:	83 45 f4 01          	addl   $0x1,-0xc(%ebp)
c0112458:	8b 45 f4             	mov    -0xc(%ebp),%eax
c011245b:	c1 e0 06             	shl    $0x6,%eax
c011245e:	39 45 0c             	cmp    %eax,0xc(%ebp)
c0112461:	77 81                	ja     c01123e4 <bitset_find_zero+0x11>
c0112463:	8b 45 0c             	mov    0xc(%ebp),%eax
c0112466:	8d 65 f8             	lea    -0x8(%ebp),%esp
c0112469:	5b                   	pop    %ebx
c011246a:	5e                   	pop    %esi
c011246b:	5d                   	pop    %ebp
c011246c:	c3                   	ret    

c011246d <list_create>:
c011246d:	55                   	push   %ebp
c011246e:	89 e5                	mov    %esp,%ebp
c0112470:	83 ec 18             	sub    $0x18,%esp
c0112473:	83 ec 0c             	sub    $0xc,%esp
c0112476:	6a 08                	push   $0x8
c0112478:	e8 73 83 ff ff       	call   c010a7f0 <kmalloc>
c011247d:	83 c4 10             	add    $0x10,%esp
c0112480:	89 45 f4             	mov    %eax,-0xc(%ebp)
c0112483:	8b 45 f4             	mov    -0xc(%ebp),%eax
c0112486:	c7 40 04 00 00 00 00 	movl   $0x0,0x4(%eax)
c011248d:	8b 45 f4             	mov    -0xc(%ebp),%eax
c0112490:	8b 50 04             	mov    0x4(%eax),%edx
c0112493:	8b 45 f4             	mov    -0xc(%ebp),%eax
c0112496:	89 10                	mov    %edx,(%eax)
c0112498:	8b 45 f4             	mov    -0xc(%ebp),%eax
c011249b:	c9                   	leave  
c011249c:	c3                   	ret    

c011249d <list_delete>:
c011249d:	55                   	push   %ebp
c011249e:	89 e5                	mov    %esp,%ebp
c01124a0:	83 ec 18             	sub    $0x18,%esp
c01124a3:	8b 45 08             	mov    0x8(%ebp),%eax
c01124a6:	8b 00                	mov    (%eax),%eax
c01124a8:	89 45 f4             	mov    %eax,-0xc(%ebp)
c01124ab:	eb 1d                	jmp    c01124ca <list_delete+0x2d>
c01124ad:	8b 45 f4             	mov    -0xc(%ebp),%eax
c01124b0:	8b 40 04             	mov    0x4(%eax),%eax
c01124b3:	89 45 f0             	mov    %eax,-0x10(%ebp)
c01124b6:	83 ec 0c             	sub    $0xc,%esp
c01124b9:	ff 75 f4             	pushl  -0xc(%ebp)
c01124bc:	e8 1b 84 ff ff       	call   c010a8dc <kfree>
c01124c1:	83 c4 10             	add    $0x10,%esp
c01124c4:	8b 45 f0             	mov    -0x10(%ebp),%eax
c01124c7:	89 45 f4             	mov    %eax,-0xc(%ebp)
c01124ca:	83 7d f4 00          	cmpl   $0x0,-0xc(%ebp)
c01124ce:	75 dd                	jne    c01124ad <list_delete+0x10>
c01124d0:	83 ec 0c             	sub    $0xc,%esp
c01124d3:	ff 75 08             	pushl  0x8(%ebp)
c01124d6:	e8 01 84 ff ff       	call   c010a8dc <kfree>
c01124db:	83 c4 10             	add    $0x10,%esp
c01124de:	90                   	nop
c01124df:	c9                   	leave  
c01124e0:	c3                   	ret    

c01124e1 <list_empty>:
c01124e1:	55                   	push   %ebp
c01124e2:	89 e5                	mov    %esp,%ebp
c01124e4:	8b 45 08             	mov    0x8(%ebp),%eax
c01124e7:	8b 00                	mov    (%eax),%eax
c01124e9:	85 c0                	test   %eax,%eax
c01124eb:	0f 94 c0             	sete   %al
c01124ee:	5d                   	pop    %ebp
c01124ef:	c3                   	ret    

c01124f0 <list_add_front>:
c01124f0:	55                   	push   %ebp
c01124f1:	89 e5                	mov    %esp,%ebp
c01124f3:	83 ec 18             	sub    $0x18,%esp
c01124f6:	83 ec 0c             	sub    $0xc,%esp
c01124f9:	6a 0c                	push   $0xc
c01124fb:	e8 f0 82 ff ff       	call   c010a7f0 <kmalloc>
c0112500:	83 c4 10             	add    $0x10,%esp
c0112503:	89 45 f4             	mov    %eax,-0xc(%ebp)
c0112506:	8b 45 f4             	mov    -0xc(%ebp),%eax
c0112509:	8b 55 0c             	mov    0xc(%ebp),%edx
c011250c:	89 10                	mov    %edx,(%eax)
c011250e:	8b 45 f4             	mov    -0xc(%ebp),%eax
c0112511:	c7 40 08 00 00 00 00 	movl   $0x0,0x8(%eax)
c0112518:	8b 45 08             	mov    0x8(%ebp),%eax
c011251b:	8b 10                	mov    (%eax),%edx
c011251d:	8b 45 f4             	mov    -0xc(%ebp),%eax
c0112520:	89 50 04             	mov    %edx,0x4(%eax)
c0112523:	8b 45 08             	mov    0x8(%ebp),%eax
c0112526:	8b 00                	mov    (%eax),%eax
c0112528:	85 c0                	test   %eax,%eax
c011252a:	75 16                	jne    c0112542 <list_add_front+0x52>
c011252c:	8b 45 08             	mov    0x8(%ebp),%eax
c011252f:	8b 55 f4             	mov    -0xc(%ebp),%edx
c0112532:	89 50 04             	mov    %edx,0x4(%eax)
c0112535:	8b 45 08             	mov    0x8(%ebp),%eax
c0112538:	8b 50 04             	mov    0x4(%eax),%edx
c011253b:	8b 45 08             	mov    0x8(%ebp),%eax
c011253e:	89 10                	mov    %edx,(%eax)
c0112540:	eb 13                	jmp    c0112555 <list_add_front+0x65>
c0112542:	8b 45 08             	mov    0x8(%ebp),%eax
c0112545:	8b 00                	mov    (%eax),%eax
c0112547:	8b 55 f4             	mov    -0xc(%ebp),%edx
c011254a:	89 50 08             	mov    %edx,0x8(%eax)
c011254d:	8b 45 08             	mov    0x8(%ebp),%eax
c0112550:	8b 55 f4             	mov    -0xc(%ebp),%edx
c0112553:	89 10                	mov    %edx,(%eax)
c0112555:	90                   	nop
c0112556:	c9                   	leave  
c0112557:	c3                   	ret    

c0112558 <list_add_back>:
c0112558:	55                   	push   %ebp
c0112559:	89 e5                	mov    %esp,%ebp
c011255b:	83 ec 18             	sub    $0x18,%esp
c011255e:	83 ec 0c             	sub    $0xc,%esp
c0112561:	6a 0c                	push   $0xc
c0112563:	e8 88 82 ff ff       	call   c010a7f0 <kmalloc>
c0112568:	83 c4 10             	add    $0x10,%esp
c011256b:	89 45 f4             	mov    %eax,-0xc(%ebp)
c011256e:	8b 45 f4             	mov    -0xc(%ebp),%eax
c0112571:	8b 55 0c             	mov    0xc(%ebp),%edx
c0112574:	89 10                	mov    %edx,(%eax)
c0112576:	8b 45 f4             	mov    -0xc(%ebp),%eax
c0112579:	c7 40 04 00 00 00 00 	movl   $0x0,0x4(%eax)
c0112580:	8b 45 08             	mov    0x8(%ebp),%eax
c0112583:	8b 50 04             	mov    0x4(%eax),%edx
c0112586:	8b 45 f4             	mov    -0xc(%ebp),%eax
c0112589:	89 50 08             	mov    %edx,0x8(%eax)
c011258c:	8b 45 08             	mov    0x8(%ebp),%eax
c011258f:	8b 00                	mov    (%eax),%eax
c0112591:	85 c0                	test   %eax,%eax
c0112593:	75 16                	jne    c01125ab <list_add_back+0x53>
c0112595:	8b 45 08             	mov    0x8(%ebp),%eax
c0112598:	8b 55 f4             	mov    -0xc(%ebp),%edx
c011259b:	89 50 04             	mov    %edx,0x4(%eax)
c011259e:	8b 45 08             	mov    0x8(%ebp),%eax
c01125a1:	8b 50 04             	mov    0x4(%eax),%edx
c01125a4:	8b 45 08             	mov    0x8(%ebp),%eax
c01125a7:	89 10                	mov    %edx,(%eax)
c01125a9:	eb 15                	jmp    c01125c0 <list_add_back+0x68>
c01125ab:	8b 45 08             	mov    0x8(%ebp),%eax
c01125ae:	8b 40 04             	mov    0x4(%eax),%eax
c01125b1:	8b 55 f4             	mov    -0xc(%ebp),%edx
c01125b4:	89 50 04             	mov    %edx,0x4(%eax)
c01125b7:	8b 45 08             	mov    0x8(%ebp),%eax
c01125ba:	8b 55 f4             	mov    -0xc(%ebp),%edx
c01125bd:	89 50 04             	mov    %edx,0x4(%eax)
c01125c0:	90                   	nop
c01125c1:	c9                   	leave  
c01125c2:	c3                   	ret    

c01125c3 <list_pop_front>:
c01125c3:	55                   	push   %ebp
c01125c4:	89 e5                	mov    %esp,%ebp
c01125c6:	83 ec 18             	sub    $0x18,%esp
c01125c9:	8b 45 08             	mov    0x8(%ebp),%eax
c01125cc:	8b 00                	mov    (%eax),%eax
c01125ce:	85 c0                	test   %eax,%eax
c01125d0:	75 17                	jne    c01125e9 <list_pop_front+0x26>
c01125d2:	83 ec 0c             	sub    $0xc,%esp
c01125d5:	68 b0 3c 11 c0       	push   $0xc0113cb0
c01125da:	e8 c4 fb ff ff       	call   c01121a3 <panic>
c01125df:	83 c4 10             	add    $0x10,%esp
c01125e2:	b8 00 00 00 00       	mov    $0x0,%eax
c01125e7:	eb 6e                	jmp    c0112657 <list_pop_front+0x94>
c01125e9:	8b 45 08             	mov    0x8(%ebp),%eax
c01125ec:	8b 10                	mov    (%eax),%edx
c01125ee:	8b 45 08             	mov    0x8(%ebp),%eax
c01125f1:	8b 40 04             	mov    0x4(%eax),%eax
c01125f4:	39 c2                	cmp    %eax,%edx
c01125f6:	75 24                	jne    c011261c <list_pop_front+0x59>
c01125f8:	8b 45 08             	mov    0x8(%ebp),%eax
c01125fb:	8b 00                	mov    (%eax),%eax
c01125fd:	8b 00                	mov    (%eax),%eax
c01125ff:	89 45 ec             	mov    %eax,-0x14(%ebp)
c0112602:	8b 45 08             	mov    0x8(%ebp),%eax
c0112605:	c7 40 04 00 00 00 00 	movl   $0x0,0x4(%eax)
c011260c:	8b 45 08             	mov    0x8(%ebp),%eax
c011260f:	8b 50 04             	mov    0x4(%eax),%edx
c0112612:	8b 45 08             	mov    0x8(%ebp),%eax
c0112615:	89 10                	mov    %edx,(%eax)
c0112617:	8b 45 ec             	mov    -0x14(%ebp),%eax
c011261a:	eb 3b                	jmp    c0112657 <list_pop_front+0x94>
c011261c:	8b 45 08             	mov    0x8(%ebp),%eax
c011261f:	8b 00                	mov    (%eax),%eax
c0112621:	8b 00                	mov    (%eax),%eax
c0112623:	89 45 f4             	mov    %eax,-0xc(%ebp)
c0112626:	8b 45 08             	mov    0x8(%ebp),%eax
c0112629:	8b 00                	mov    (%eax),%eax
c011262b:	8b 40 04             	mov    0x4(%eax),%eax
c011262e:	89 45 f0             	mov    %eax,-0x10(%ebp)
c0112631:	8b 45 f0             	mov    -0x10(%ebp),%eax
c0112634:	c7 40 08 00 00 00 00 	movl   $0x0,0x8(%eax)
c011263b:	8b 45 08             	mov    0x8(%ebp),%eax
c011263e:	8b 00                	mov    (%eax),%eax
c0112640:	83 ec 0c             	sub    $0xc,%esp
c0112643:	50                   	push   %eax
c0112644:	e8 93 82 ff ff       	call   c010a8dc <kfree>
c0112649:	83 c4 10             	add    $0x10,%esp
c011264c:	8b 45 08             	mov    0x8(%ebp),%eax
c011264f:	8b 55 f0             	mov    -0x10(%ebp),%edx
c0112652:	89 10                	mov    %edx,(%eax)
c0112654:	8b 45 f4             	mov    -0xc(%ebp),%eax
c0112657:	c9                   	leave  
c0112658:	c3                   	ret    

c0112659 <list_remove_node>:
c0112659:	55                   	push   %ebp
c011265a:	89 e5                	mov    %esp,%ebp
c011265c:	83 ec 10             	sub    $0x10,%esp
c011265f:	8b 45 08             	mov    0x8(%ebp),%eax
c0112662:	8b 00                	mov    (%eax),%eax
c0112664:	39 45 0c             	cmp    %eax,0xc(%ebp)
c0112667:	75 22                	jne    c011268b <list_remove_node+0x32>
c0112669:	8b 45 08             	mov    0x8(%ebp),%eax
c011266c:	8b 40 04             	mov    0x4(%eax),%eax
c011266f:	39 45 0c             	cmp    %eax,0xc(%ebp)
c0112672:	75 17                	jne    c011268b <list_remove_node+0x32>
c0112674:	8b 45 08             	mov    0x8(%ebp),%eax
c0112677:	c7 40 04 00 00 00 00 	movl   $0x0,0x4(%eax)
c011267e:	8b 45 08             	mov    0x8(%ebp),%eax
c0112681:	8b 50 04             	mov    0x4(%eax),%edx
c0112684:	8b 45 08             	mov    0x8(%ebp),%eax
c0112687:	89 10                	mov    %edx,(%eax)
c0112689:	eb 6d                	jmp    c01126f8 <list_remove_node+0x9f>
c011268b:	8b 45 08             	mov    0x8(%ebp),%eax
c011268e:	8b 00                	mov    (%eax),%eax
c0112690:	39 45 0c             	cmp    %eax,0xc(%ebp)
c0112693:	75 19                	jne    c01126ae <list_remove_node+0x55>
c0112695:	8b 45 0c             	mov    0xc(%ebp),%eax
c0112698:	8b 50 04             	mov    0x4(%eax),%edx
c011269b:	8b 45 08             	mov    0x8(%ebp),%eax
c011269e:	89 10                	mov    %edx,(%eax)
c01126a0:	8b 45 08             	mov    0x8(%ebp),%eax
c01126a3:	8b 00                	mov    (%eax),%eax
c01126a5:	c7 40 08 00 00 00 00 	movl   $0x0,0x8(%eax)
c01126ac:	eb 4a                	jmp    c01126f8 <list_remove_node+0x9f>
c01126ae:	8b 45 08             	mov    0x8(%ebp),%eax
c01126b1:	8b 40 04             	mov    0x4(%eax),%eax
c01126b4:	39 45 0c             	cmp    %eax,0xc(%ebp)
c01126b7:	75 1b                	jne    c01126d4 <list_remove_node+0x7b>
c01126b9:	8b 45 0c             	mov    0xc(%ebp),%eax
c01126bc:	8b 50 08             	mov    0x8(%eax),%edx
c01126bf:	8b 45 08             	mov    0x8(%ebp),%eax
c01126c2:	89 50 04             	mov    %edx,0x4(%eax)
c01126c5:	8b 45 08             	mov    0x8(%ebp),%eax
c01126c8:	8b 40 04             	mov    0x4(%eax),%eax
c01126cb:	c7 40 04 00 00 00 00 	movl   $0x0,0x4(%eax)
c01126d2:	eb 24                	jmp    c01126f8 <list_remove_node+0x9f>
c01126d4:	8b 45 0c             	mov    0xc(%ebp),%eax
c01126d7:	8b 40 04             	mov    0x4(%eax),%eax
c01126da:	89 45 fc             	mov    %eax,-0x4(%ebp)
c01126dd:	8b 45 0c             	mov    0xc(%ebp),%eax
c01126e0:	8b 40 08             	mov    0x8(%eax),%eax
c01126e3:	89 45 f8             	mov    %eax,-0x8(%ebp)
c01126e6:	8b 45 fc             	mov    -0x4(%ebp),%eax
c01126e9:	8b 55 f8             	mov    -0x8(%ebp),%edx
c01126ec:	89 50 08             	mov    %edx,0x8(%eax)
c01126ef:	8b 45 f8             	mov    -0x8(%ebp),%eax
c01126f2:	8b 55 fc             	mov    -0x4(%ebp),%edx
c01126f5:	89 50 04             	mov    %edx,0x4(%eax)
c01126f8:	90                   	nop
c01126f9:	c9                   	leave  
c01126fa:	c3                   	ret    

c01126fb <bq_create>:
c01126fb:	55                   	push   %ebp
c01126fc:	89 e5                	mov    %esp,%ebp
c01126fe:	83 ec 18             	sub    $0x18,%esp
c0112701:	83 7d 08 00          	cmpl   $0x0,0x8(%ebp)
c0112705:	75 10                	jne    c0112717 <bq_create+0x1c>
c0112707:	83 ec 0c             	sub    $0xc,%esp
c011270a:	68 cc 3c 11 c0       	push   $0xc0113ccc
c011270f:	e8 8f fa ff ff       	call   c01121a3 <panic>
c0112714:	83 c4 10             	add    $0x10,%esp
c0112717:	83 ec 0c             	sub    $0xc,%esp
c011271a:	6a 1c                	push   $0x1c
c011271c:	e8 cf 80 ff ff       	call   c010a7f0 <kmalloc>
c0112721:	83 c4 10             	add    $0x10,%esp
c0112724:	89 45 f4             	mov    %eax,-0xc(%ebp)
c0112727:	83 ec 0c             	sub    $0xc,%esp
c011272a:	ff 75 08             	pushl  0x8(%ebp)
c011272d:	e8 be 80 ff ff       	call   c010a7f0 <kmalloc>
c0112732:	83 c4 10             	add    $0x10,%esp
c0112735:	8b 55 f4             	mov    -0xc(%ebp),%edx
c0112738:	89 02                	mov    %eax,(%edx)
c011273a:	8b 45 f4             	mov    -0xc(%ebp),%eax
c011273d:	c7 40 04 00 00 00 00 	movl   $0x0,0x4(%eax)
c0112744:	8b 45 f4             	mov    -0xc(%ebp),%eax
c0112747:	c7 40 08 00 00 00 00 	movl   $0x0,0x8(%eax)
c011274e:	8b 45 f4             	mov    -0xc(%ebp),%eax
c0112751:	8b 55 08             	mov    0x8(%ebp),%edx
c0112754:	89 50 0c             	mov    %edx,0xc(%eax)
c0112757:	e8 de 9b ff ff       	call   c010c33a <kql_create>
c011275c:	8b 55 f4             	mov    -0xc(%ebp),%edx
c011275f:	89 42 10             	mov    %eax,0x10(%edx)
c0112762:	8b 45 f4             	mov    -0xc(%ebp),%eax
c0112765:	8b 40 10             	mov    0x10(%eax),%eax
c0112768:	83 ec 0c             	sub    $0xc,%esp
c011276b:	50                   	push   %eax
c011276c:	e8 c0 9e ff ff       	call   c010c631 <kevent_create>
c0112771:	83 c4 10             	add    $0x10,%esp
c0112774:	8b 55 f4             	mov    -0xc(%ebp),%edx
c0112777:	89 42 14             	mov    %eax,0x14(%edx)
c011277a:	8b 45 f4             	mov    -0xc(%ebp),%eax
c011277d:	8b 40 10             	mov    0x10(%eax),%eax
c0112780:	83 ec 0c             	sub    $0xc,%esp
c0112783:	50                   	push   %eax
c0112784:	e8 a8 9e ff ff       	call   c010c631 <kevent_create>
c0112789:	83 c4 10             	add    $0x10,%esp
c011278c:	8b 55 f4             	mov    -0xc(%ebp),%edx
c011278f:	89 42 18             	mov    %eax,0x18(%edx)
c0112792:	8b 45 f4             	mov    -0xc(%ebp),%eax
c0112795:	c9                   	leave  
c0112796:	c3                   	ret    

c0112797 <min>:
c0112797:	55                   	push   %ebp
c0112798:	89 e5                	mov    %esp,%ebp
c011279a:	8b 45 08             	mov    0x8(%ebp),%eax
c011279d:	39 45 0c             	cmp    %eax,0xc(%ebp)
c01127a0:	0f 46 45 0c          	cmovbe 0xc(%ebp),%eax
c01127a4:	5d                   	pop    %ebp
c01127a5:	c3                   	ret    

c01127a6 <do_add>:
c01127a6:	55                   	push   %ebp
c01127a7:	89 e5                	mov    %esp,%ebp
c01127a9:	83 ec 18             	sub    $0x18,%esp
c01127ac:	8b 45 08             	mov    0x8(%ebp),%eax
c01127af:	8b 50 04             	mov    0x4(%eax),%edx
c01127b2:	8b 45 08             	mov    0x8(%ebp),%eax
c01127b5:	8b 40 08             	mov    0x8(%eax),%eax
c01127b8:	01 c2                	add    %eax,%edx
c01127ba:	8b 45 08             	mov    0x8(%ebp),%eax
c01127bd:	8b 48 0c             	mov    0xc(%eax),%ecx
c01127c0:	89 d0                	mov    %edx,%eax
c01127c2:	ba 00 00 00 00       	mov    $0x0,%edx
c01127c7:	f7 f1                	div    %ecx
c01127c9:	89 55 f4             	mov    %edx,-0xc(%ebp)
c01127cc:	8b 45 08             	mov    0x8(%ebp),%eax
c01127cf:	8b 40 0c             	mov    0xc(%eax),%eax
c01127d2:	2b 45 f4             	sub    -0xc(%ebp),%eax
c01127d5:	89 45 f0             	mov    %eax,-0x10(%ebp)
c01127d8:	8b 45 10             	mov    0x10(%ebp),%eax
c01127db:	3b 45 f0             	cmp    -0x10(%ebp),%eax
c01127de:	77 1e                	ja     c01127fe <do_add+0x58>
c01127e0:	8b 45 08             	mov    0x8(%ebp),%eax
c01127e3:	8b 10                	mov    (%eax),%edx
c01127e5:	8b 45 f4             	mov    -0xc(%ebp),%eax
c01127e8:	01 d0                	add    %edx,%eax
c01127ea:	83 ec 04             	sub    $0x4,%esp
c01127ed:	ff 75 10             	pushl  0x10(%ebp)
c01127f0:	ff 75 0c             	pushl  0xc(%ebp)
c01127f3:	50                   	push   %eax
c01127f4:	e8 5d f9 ff ff       	call   c0112156 <memcpy>
c01127f9:	83 c4 10             	add    $0x10,%esp
c01127fc:	eb 3f                	jmp    c011283d <do_add+0x97>
c01127fe:	8b 45 08             	mov    0x8(%ebp),%eax
c0112801:	8b 10                	mov    (%eax),%edx
c0112803:	8b 45 f4             	mov    -0xc(%ebp),%eax
c0112806:	01 d0                	add    %edx,%eax
c0112808:	83 ec 04             	sub    $0x4,%esp
c011280b:	ff 75 f0             	pushl  -0x10(%ebp)
c011280e:	ff 75 0c             	pushl  0xc(%ebp)
c0112811:	50                   	push   %eax
c0112812:	e8 3f f9 ff ff       	call   c0112156 <memcpy>
c0112817:	83 c4 10             	add    $0x10,%esp
c011281a:	8b 45 10             	mov    0x10(%ebp),%eax
c011281d:	2b 45 f0             	sub    -0x10(%ebp),%eax
c0112820:	89 c2                	mov    %eax,%edx
c0112822:	8b 4d 0c             	mov    0xc(%ebp),%ecx
c0112825:	8b 45 f0             	mov    -0x10(%ebp),%eax
c0112828:	01 c1                	add    %eax,%ecx
c011282a:	8b 45 08             	mov    0x8(%ebp),%eax
c011282d:	8b 00                	mov    (%eax),%eax
c011282f:	83 ec 04             	sub    $0x4,%esp
c0112832:	52                   	push   %edx
c0112833:	51                   	push   %ecx
c0112834:	50                   	push   %eax
c0112835:	e8 1c f9 ff ff       	call   c0112156 <memcpy>
c011283a:	83 c4 10             	add    $0x10,%esp
c011283d:	8b 45 08             	mov    0x8(%ebp),%eax
c0112840:	8b 50 08             	mov    0x8(%eax),%edx
c0112843:	8b 45 10             	mov    0x10(%ebp),%eax
c0112846:	01 c2                	add    %eax,%edx
c0112848:	8b 45 08             	mov    0x8(%ebp),%eax
c011284b:	89 50 08             	mov    %edx,0x8(%eax)
c011284e:	90                   	nop
c011284f:	c9                   	leave  
c0112850:	c3                   	ret    

c0112851 <bq_add>:
c0112851:	55                   	push   %ebp
c0112852:	89 e5                	mov    %esp,%ebp
c0112854:	83 ec 18             	sub    $0x18,%esp
c0112857:	8b 45 08             	mov    0x8(%ebp),%eax
c011285a:	8b 40 10             	mov    0x10(%eax),%eax
c011285d:	83 ec 0c             	sub    $0xc,%esp
c0112860:	50                   	push   %eax
c0112861:	e8 65 9b ff ff       	call   c010c3cb <kql_acquire>
c0112866:	83 c4 10             	add    $0x10,%esp
c0112869:	c7 45 f4 00 00 00 00 	movl   $0x0,-0xc(%ebp)
c0112870:	eb 78                	jmp    c01128ea <bq_add+0x99>
c0112872:	8b 45 08             	mov    0x8(%ebp),%eax
c0112875:	8b 40 18             	mov    0x18(%eax),%eax
c0112878:	83 ec 0c             	sub    $0xc,%esp
c011287b:	50                   	push   %eax
c011287c:	e8 25 9e ff ff       	call   c010c6a6 <kevent_wait>
c0112881:	83 c4 10             	add    $0x10,%esp
c0112884:	8b 45 08             	mov    0x8(%ebp),%eax
c0112887:	8b 50 08             	mov    0x8(%eax),%edx
c011288a:	8b 45 08             	mov    0x8(%ebp),%eax
c011288d:	8b 40 0c             	mov    0xc(%eax),%eax
c0112890:	39 c2                	cmp    %eax,%edx
c0112892:	73 de                	jae    c0112872 <bq_add+0x21>
c0112894:	8b 45 08             	mov    0x8(%ebp),%eax
c0112897:	8b 50 0c             	mov    0xc(%eax),%edx
c011289a:	8b 45 08             	mov    0x8(%ebp),%eax
c011289d:	8b 40 08             	mov    0x8(%eax),%eax
c01128a0:	29 c2                	sub    %eax,%edx
c01128a2:	8b 45 10             	mov    0x10(%ebp),%eax
c01128a5:	2b 45 f4             	sub    -0xc(%ebp),%eax
c01128a8:	83 ec 08             	sub    $0x8,%esp
c01128ab:	52                   	push   %edx
c01128ac:	50                   	push   %eax
c01128ad:	e8 e5 fe ff ff       	call   c0112797 <min>
c01128b2:	83 c4 10             	add    $0x10,%esp
c01128b5:	89 45 f0             	mov    %eax,-0x10(%ebp)
c01128b8:	8b 55 0c             	mov    0xc(%ebp),%edx
c01128bb:	8b 45 f4             	mov    -0xc(%ebp),%eax
c01128be:	01 d0                	add    %edx,%eax
c01128c0:	83 ec 04             	sub    $0x4,%esp
c01128c3:	ff 75 f0             	pushl  -0x10(%ebp)
c01128c6:	50                   	push   %eax
c01128c7:	ff 75 08             	pushl  0x8(%ebp)
c01128ca:	e8 d7 fe ff ff       	call   c01127a6 <do_add>
c01128cf:	83 c4 10             	add    $0x10,%esp
c01128d2:	8b 45 f0             	mov    -0x10(%ebp),%eax
c01128d5:	01 45 f4             	add    %eax,-0xc(%ebp)
c01128d8:	8b 45 08             	mov    0x8(%ebp),%eax
c01128db:	8b 40 14             	mov    0x14(%eax),%eax
c01128de:	83 ec 0c             	sub    $0xc,%esp
c01128e1:	50                   	push   %eax
c01128e2:	e8 56 9e ff ff       	call   c010c73d <kevent_broadcast>
c01128e7:	83 c4 10             	add    $0x10,%esp
c01128ea:	8b 45 f4             	mov    -0xc(%ebp),%eax
c01128ed:	3b 45 10             	cmp    0x10(%ebp),%eax
c01128f0:	72 92                	jb     c0112884 <bq_add+0x33>
c01128f2:	8b 45 08             	mov    0x8(%ebp),%eax
c01128f5:	8b 40 10             	mov    0x10(%eax),%eax
c01128f8:	83 ec 0c             	sub    $0xc,%esp
c01128fb:	50                   	push   %eax
c01128fc:	e8 80 9b ff ff       	call   c010c481 <kql_release>
c0112901:	83 c4 10             	add    $0x10,%esp
c0112904:	90                   	nop
c0112905:	c9                   	leave  
c0112906:	c3                   	ret    

c0112907 <min>:
c0112907:	55                   	push   %ebp
c0112908:	89 e5                	mov    %esp,%ebp
c011290a:	8b 45 08             	mov    0x8(%ebp),%eax
c011290d:	39 45 0c             	cmp    %eax,0xc(%ebp)
c0112910:	0f 46 45 0c          	cmovbe 0xc(%ebp),%eax
c0112914:	5d                   	pop    %ebp
c0112915:	c3                   	ret    

c0112916 <do_remove>:
c0112916:	55                   	push   %ebp
c0112917:	89 e5                	mov    %esp,%ebp
c0112919:	53                   	push   %ebx
c011291a:	83 ec 14             	sub    $0x14,%esp
c011291d:	8b 45 08             	mov    0x8(%ebp),%eax
c0112920:	8b 50 0c             	mov    0xc(%eax),%edx
c0112923:	8b 45 08             	mov    0x8(%ebp),%eax
c0112926:	8b 48 04             	mov    0x4(%eax),%ecx
c0112929:	89 d0                	mov    %edx,%eax
c011292b:	29 c8                	sub    %ecx,%eax
c011292d:	89 45 f4             	mov    %eax,-0xc(%ebp)
c0112930:	8b 45 10             	mov    0x10(%ebp),%eax
c0112933:	3b 45 f4             	cmp    -0xc(%ebp),%eax
c0112936:	77 21                	ja     c0112959 <do_remove+0x43>
c0112938:	8b 45 08             	mov    0x8(%ebp),%eax
c011293b:	8b 10                	mov    (%eax),%edx
c011293d:	8b 45 08             	mov    0x8(%ebp),%eax
c0112940:	8b 40 04             	mov    0x4(%eax),%eax
c0112943:	01 d0                	add    %edx,%eax
c0112945:	83 ec 04             	sub    $0x4,%esp
c0112948:	ff 75 10             	pushl  0x10(%ebp)
c011294b:	50                   	push   %eax
c011294c:	ff 75 0c             	pushl  0xc(%ebp)
c011294f:	e8 02 f8 ff ff       	call   c0112156 <memcpy>
c0112954:	83 c4 10             	add    $0x10,%esp
c0112957:	eb 42                	jmp    c011299b <do_remove+0x85>
c0112959:	8b 45 08             	mov    0x8(%ebp),%eax
c011295c:	8b 10                	mov    (%eax),%edx
c011295e:	8b 45 08             	mov    0x8(%ebp),%eax
c0112961:	8b 40 04             	mov    0x4(%eax),%eax
c0112964:	01 d0                	add    %edx,%eax
c0112966:	83 ec 04             	sub    $0x4,%esp
c0112969:	ff 75 f4             	pushl  -0xc(%ebp)
c011296c:	50                   	push   %eax
c011296d:	ff 75 0c             	pushl  0xc(%ebp)
c0112970:	e8 e1 f7 ff ff       	call   c0112156 <memcpy>
c0112975:	83 c4 10             	add    $0x10,%esp
c0112978:	8b 45 10             	mov    0x10(%ebp),%eax
c011297b:	2b 45 f4             	sub    -0xc(%ebp),%eax
c011297e:	89 c2                	mov    %eax,%edx
c0112980:	8b 45 08             	mov    0x8(%ebp),%eax
c0112983:	8b 00                	mov    (%eax),%eax
c0112985:	8b 5d 0c             	mov    0xc(%ebp),%ebx
c0112988:	8b 4d f4             	mov    -0xc(%ebp),%ecx
c011298b:	01 d9                	add    %ebx,%ecx
c011298d:	83 ec 04             	sub    $0x4,%esp
c0112990:	52                   	push   %edx
c0112991:	50                   	push   %eax
c0112992:	51                   	push   %ecx
c0112993:	e8 be f7 ff ff       	call   c0112156 <memcpy>
c0112998:	83 c4 10             	add    $0x10,%esp
c011299b:	8b 45 08             	mov    0x8(%ebp),%eax
c011299e:	8b 50 04             	mov    0x4(%eax),%edx
c01129a1:	8b 45 10             	mov    0x10(%ebp),%eax
c01129a4:	01 c2                	add    %eax,%edx
c01129a6:	8b 45 08             	mov    0x8(%ebp),%eax
c01129a9:	8b 48 0c             	mov    0xc(%eax),%ecx
c01129ac:	89 d0                	mov    %edx,%eax
c01129ae:	ba 00 00 00 00       	mov    $0x0,%edx
c01129b3:	f7 f1                	div    %ecx
c01129b5:	8b 45 08             	mov    0x8(%ebp),%eax
c01129b8:	89 50 04             	mov    %edx,0x4(%eax)
c01129bb:	8b 45 08             	mov    0x8(%ebp),%eax
c01129be:	8b 40 08             	mov    0x8(%eax),%eax
c01129c1:	2b 45 10             	sub    0x10(%ebp),%eax
c01129c4:	89 c2                	mov    %eax,%edx
c01129c6:	8b 45 08             	mov    0x8(%ebp),%eax
c01129c9:	89 50 08             	mov    %edx,0x8(%eax)
c01129cc:	90                   	nop
c01129cd:	8b 5d fc             	mov    -0x4(%ebp),%ebx
c01129d0:	c9                   	leave  
c01129d1:	c3                   	ret    

c01129d2 <bq_remove>:
c01129d2:	55                   	push   %ebp
c01129d3:	89 e5                	mov    %esp,%ebp
c01129d5:	83 ec 18             	sub    $0x18,%esp
c01129d8:	8b 45 08             	mov    0x8(%ebp),%eax
c01129db:	8b 40 10             	mov    0x10(%eax),%eax
c01129de:	83 ec 0c             	sub    $0xc,%esp
c01129e1:	50                   	push   %eax
c01129e2:	e8 e4 99 ff ff       	call   c010c3cb <kql_acquire>
c01129e7:	83 c4 10             	add    $0x10,%esp
c01129ea:	c7 45 f4 00 00 00 00 	movl   $0x0,-0xc(%ebp)
c01129f1:	eb 6a                	jmp    c0112a5d <bq_remove+0x8b>
c01129f3:	8b 45 08             	mov    0x8(%ebp),%eax
c01129f6:	8b 40 14             	mov    0x14(%eax),%eax
c01129f9:	83 ec 0c             	sub    $0xc,%esp
c01129fc:	50                   	push   %eax
c01129fd:	e8 a4 9c ff ff       	call   c010c6a6 <kevent_wait>
c0112a02:	83 c4 10             	add    $0x10,%esp
c0112a05:	8b 45 08             	mov    0x8(%ebp),%eax
c0112a08:	8b 40 08             	mov    0x8(%eax),%eax
c0112a0b:	85 c0                	test   %eax,%eax
c0112a0d:	74 e4                	je     c01129f3 <bq_remove+0x21>
c0112a0f:	8b 45 08             	mov    0x8(%ebp),%eax
c0112a12:	8b 50 08             	mov    0x8(%eax),%edx
c0112a15:	8b 45 10             	mov    0x10(%ebp),%eax
c0112a18:	2b 45 f4             	sub    -0xc(%ebp),%eax
c0112a1b:	83 ec 08             	sub    $0x8,%esp
c0112a1e:	52                   	push   %edx
c0112a1f:	50                   	push   %eax
c0112a20:	e8 e2 fe ff ff       	call   c0112907 <min>
c0112a25:	83 c4 10             	add    $0x10,%esp
c0112a28:	89 45 f0             	mov    %eax,-0x10(%ebp)
c0112a2b:	8b 55 0c             	mov    0xc(%ebp),%edx
c0112a2e:	8b 45 f4             	mov    -0xc(%ebp),%eax
c0112a31:	01 d0                	add    %edx,%eax
c0112a33:	83 ec 04             	sub    $0x4,%esp
c0112a36:	ff 75 f0             	pushl  -0x10(%ebp)
c0112a39:	50                   	push   %eax
c0112a3a:	ff 75 08             	pushl  0x8(%ebp)
c0112a3d:	e8 d4 fe ff ff       	call   c0112916 <do_remove>
c0112a42:	83 c4 10             	add    $0x10,%esp
c0112a45:	8b 45 f0             	mov    -0x10(%ebp),%eax
c0112a48:	01 45 f4             	add    %eax,-0xc(%ebp)
c0112a4b:	8b 45 08             	mov    0x8(%ebp),%eax
c0112a4e:	8b 40 18             	mov    0x18(%eax),%eax
c0112a51:	83 ec 0c             	sub    $0xc,%esp
c0112a54:	50                   	push   %eax
c0112a55:	e8 e3 9c ff ff       	call   c010c73d <kevent_broadcast>
c0112a5a:	83 c4 10             	add    $0x10,%esp
c0112a5d:	8b 45 f4             	mov    -0xc(%ebp),%eax
c0112a60:	3b 45 10             	cmp    0x10(%ebp),%eax
c0112a63:	72 a0                	jb     c0112a05 <bq_remove+0x33>
c0112a65:	8b 45 08             	mov    0x8(%ebp),%eax
c0112a68:	8b 40 10             	mov    0x10(%eax),%eax
c0112a6b:	83 ec 0c             	sub    $0xc,%esp
c0112a6e:	50                   	push   %eax
c0112a6f:	e8 0d 9a ff ff       	call   c010c481 <kql_release>
c0112a74:	83 c4 10             	add    $0x10,%esp
c0112a77:	90                   	nop
c0112a78:	c9                   	leave  
c0112a79:	c3                   	ret    

c0112a7a <proc_fork>:
c0112a7a:	b8 01 00 00 00       	mov    $0x1,%eax
c0112a7f:	cd 80                	int    $0x80
c0112a81:	c3                   	ret    

c0112a82 <proc_wait>:
c0112a82:	b8 04 00 00 00       	mov    $0x4,%eax
c0112a87:	8b 5c 24 04          	mov    0x4(%esp),%ebx
c0112a8b:	cd 80                	int    $0x80
c0112a8d:	c3                   	ret    

c0112a8e <read>:
c0112a8e:	b8 0f 00 00 00       	mov    $0xf,%eax
c0112a93:	8b 5c 24 04          	mov    0x4(%esp),%ebx
c0112a97:	8b 4c 24 08          	mov    0x8(%esp),%ecx
c0112a9b:	8b 54 24 0c          	mov    0xc(%esp),%edx
c0112a9f:	cd 80                	int    $0x80
c0112aa1:	c3                   	ret    

c0112aa2 <write>:
c0112aa2:	b8 10 00 00 00       	mov    $0x10,%eax
c0112aa7:	8b 5c 24 04          	mov    0x4(%esp),%ebx
c0112aab:	8b 4c 24 08          	mov    0x8(%esp),%ecx
c0112aaf:	8b 54 24 0c          	mov    0xc(%esp),%edx
c0112ab3:	cd 80                	int    $0x80
c0112ab5:	c3                   	ret    

c0112ab6 <vect_create>:
c0112ab6:	55                   	push   %ebp
c0112ab7:	89 e5                	mov    %esp,%ebp
c0112ab9:	83 ec 18             	sub    $0x18,%esp
c0112abc:	83 ec 0c             	sub    $0xc,%esp
c0112abf:	6a 0c                	push   $0xc
c0112ac1:	e8 2a 7d ff ff       	call   c010a7f0 <kmalloc>
c0112ac6:	83 c4 10             	add    $0x10,%esp
c0112ac9:	89 45 f4             	mov    %eax,-0xc(%ebp)
c0112acc:	8b 45 f4             	mov    -0xc(%ebp),%eax
c0112acf:	c7 40 04 00 00 00 00 	movl   $0x0,0x4(%eax)
c0112ad6:	8b 45 f4             	mov    -0xc(%ebp),%eax
c0112ad9:	c7 40 08 04 00 00 00 	movl   $0x4,0x8(%eax)
c0112ae0:	8b 45 f4             	mov    -0xc(%ebp),%eax
c0112ae3:	8b 40 08             	mov    0x8(%eax),%eax
c0112ae6:	c1 e0 02             	shl    $0x2,%eax
c0112ae9:	83 ec 0c             	sub    $0xc,%esp
c0112aec:	50                   	push   %eax
c0112aed:	e8 fe 7c ff ff       	call   c010a7f0 <kmalloc>
c0112af2:	83 c4 10             	add    $0x10,%esp
c0112af5:	8b 55 f4             	mov    -0xc(%ebp),%edx
c0112af8:	89 02                	mov    %eax,(%edx)
c0112afa:	8b 45 f4             	mov    -0xc(%ebp),%eax
c0112afd:	8b 40 08             	mov    0x8(%eax),%eax
c0112b00:	8d 14 85 00 00 00 00 	lea    0x0(,%eax,4),%edx
c0112b07:	8b 45 f4             	mov    -0xc(%ebp),%eax
c0112b0a:	8b 00                	mov    (%eax),%eax
c0112b0c:	83 ec 04             	sub    $0x4,%esp
c0112b0f:	52                   	push   %edx
c0112b10:	6a 00                	push   $0x0
c0112b12:	50                   	push   %eax
c0112b13:	e8 50 f6 ff ff       	call   c0112168 <memset>
c0112b18:	83 c4 10             	add    $0x10,%esp
c0112b1b:	8b 45 f4             	mov    -0xc(%ebp),%eax
c0112b1e:	c9                   	leave  
c0112b1f:	c3                   	ret    

c0112b20 <vect_delete>:
c0112b20:	55                   	push   %ebp
c0112b21:	89 e5                	mov    %esp,%ebp
c0112b23:	83 ec 08             	sub    $0x8,%esp
c0112b26:	8b 45 08             	mov    0x8(%ebp),%eax
c0112b29:	8b 00                	mov    (%eax),%eax
c0112b2b:	83 ec 0c             	sub    $0xc,%esp
c0112b2e:	50                   	push   %eax
c0112b2f:	e8 a8 7d ff ff       	call   c010a8dc <kfree>
c0112b34:	83 c4 10             	add    $0x10,%esp
c0112b37:	83 ec 0c             	sub    $0xc,%esp
c0112b3a:	ff 75 08             	pushl  0x8(%ebp)
c0112b3d:	e8 9a 7d ff ff       	call   c010a8dc <kfree>
c0112b42:	83 c4 10             	add    $0x10,%esp
c0112b45:	90                   	nop
c0112b46:	c9                   	leave  
c0112b47:	c3                   	ret    

c0112b48 <vect_get>:
c0112b48:	55                   	push   %ebp
c0112b49:	89 e5                	mov    %esp,%ebp
c0112b4b:	8b 45 08             	mov    0x8(%ebp),%eax
c0112b4e:	8b 40 04             	mov    0x4(%eax),%eax
c0112b51:	39 45 0c             	cmp    %eax,0xc(%ebp)
c0112b54:	72 07                	jb     c0112b5d <vect_get+0x15>
c0112b56:	b8 00 00 00 00       	mov    $0x0,%eax
c0112b5b:	eb 0f                	jmp    c0112b6c <vect_get+0x24>
c0112b5d:	8b 45 08             	mov    0x8(%ebp),%eax
c0112b60:	8b 10                	mov    (%eax),%edx
c0112b62:	8b 45 0c             	mov    0xc(%ebp),%eax
c0112b65:	c1 e0 02             	shl    $0x2,%eax
c0112b68:	01 d0                	add    %edx,%eax
c0112b6a:	8b 00                	mov    (%eax),%eax
c0112b6c:	5d                   	pop    %ebp
c0112b6d:	c3                   	ret    

c0112b6e <vect_append>:
c0112b6e:	55                   	push   %ebp
c0112b6f:	89 e5                	mov    %esp,%ebp
c0112b71:	83 ec 08             	sub    $0x8,%esp
c0112b74:	8b 45 08             	mov    0x8(%ebp),%eax
c0112b77:	8b 40 04             	mov    0x4(%eax),%eax
c0112b7a:	83 c0 01             	add    $0x1,%eax
c0112b7d:	83 ec 08             	sub    $0x8,%esp
c0112b80:	50                   	push   %eax
c0112b81:	ff 75 08             	pushl  0x8(%ebp)
c0112b84:	e8 6b 00 00 00       	call   c0112bf4 <vect_grow>
c0112b89:	83 c4 10             	add    $0x10,%esp
c0112b8c:	8b 45 08             	mov    0x8(%ebp),%eax
c0112b8f:	8b 10                	mov    (%eax),%edx
c0112b91:	8b 45 08             	mov    0x8(%ebp),%eax
c0112b94:	8b 40 04             	mov    0x4(%eax),%eax
c0112b97:	c1 e0 02             	shl    $0x2,%eax
c0112b9a:	01 c2                	add    %eax,%edx
c0112b9c:	8b 45 0c             	mov    0xc(%ebp),%eax
c0112b9f:	89 02                	mov    %eax,(%edx)
c0112ba1:	8b 45 08             	mov    0x8(%ebp),%eax
c0112ba4:	8b 40 04             	mov    0x4(%eax),%eax
c0112ba7:	8d 50 01             	lea    0x1(%eax),%edx
c0112baa:	8b 45 08             	mov    0x8(%ebp),%eax
c0112bad:	89 50 04             	mov    %edx,0x4(%eax)
c0112bb0:	90                   	nop
c0112bb1:	c9                   	leave  
c0112bb2:	c3                   	ret    

c0112bb3 <vect_set>:
c0112bb3:	55                   	push   %ebp
c0112bb4:	89 e5                	mov    %esp,%ebp
c0112bb6:	83 ec 10             	sub    $0x10,%esp
c0112bb9:	8b 45 08             	mov    0x8(%ebp),%eax
c0112bbc:	8b 40 04             	mov    0x4(%eax),%eax
c0112bbf:	39 45 0c             	cmp    %eax,0xc(%ebp)
c0112bc2:	72 07                	jb     c0112bcb <vect_set+0x18>
c0112bc4:	b8 00 00 00 00       	mov    $0x0,%eax
c0112bc9:	eb 27                	jmp    c0112bf2 <vect_set+0x3f>
c0112bcb:	8b 45 08             	mov    0x8(%ebp),%eax
c0112bce:	8b 10                	mov    (%eax),%edx
c0112bd0:	8b 45 0c             	mov    0xc(%ebp),%eax
c0112bd3:	c1 e0 02             	shl    $0x2,%eax
c0112bd6:	01 d0                	add    %edx,%eax
c0112bd8:	8b 00                	mov    (%eax),%eax
c0112bda:	89 45 fc             	mov    %eax,-0x4(%ebp)
c0112bdd:	8b 45 08             	mov    0x8(%ebp),%eax
c0112be0:	8b 10                	mov    (%eax),%edx
c0112be2:	8b 45 0c             	mov    0xc(%ebp),%eax
c0112be5:	c1 e0 02             	shl    $0x2,%eax
c0112be8:	01 c2                	add    %eax,%edx
c0112bea:	8b 45 10             	mov    0x10(%ebp),%eax
c0112bed:	89 02                	mov    %eax,(%edx)
c0112bef:	8b 45 fc             	mov    -0x4(%ebp),%eax
c0112bf2:	c9                   	leave  
c0112bf3:	c3                   	ret    

c0112bf4 <vect_grow>:
c0112bf4:	55                   	push   %ebp
c0112bf5:	89 e5                	mov    %esp,%ebp
c0112bf7:	83 ec 18             	sub    $0x18,%esp
c0112bfa:	8b 45 08             	mov    0x8(%ebp),%eax
c0112bfd:	8b 40 08             	mov    0x8(%eax),%eax
c0112c00:	39 45 0c             	cmp    %eax,0xc(%ebp)
c0112c03:	0f 86 8b 00 00 00    	jbe    c0112c94 <vect_grow+0xa0>
c0112c09:	eb 0f                	jmp    c0112c1a <vect_grow+0x26>
c0112c0b:	8b 45 08             	mov    0x8(%ebp),%eax
c0112c0e:	8b 40 08             	mov    0x8(%eax),%eax
c0112c11:	8d 14 00             	lea    (%eax,%eax,1),%edx
c0112c14:	8b 45 08             	mov    0x8(%ebp),%eax
c0112c17:	89 50 08             	mov    %edx,0x8(%eax)
c0112c1a:	8b 45 08             	mov    0x8(%ebp),%eax
c0112c1d:	8b 40 08             	mov    0x8(%eax),%eax
c0112c20:	39 45 0c             	cmp    %eax,0xc(%ebp)
c0112c23:	77 e6                	ja     c0112c0b <vect_grow+0x17>
c0112c25:	8b 45 08             	mov    0x8(%ebp),%eax
c0112c28:	8b 40 08             	mov    0x8(%eax),%eax
c0112c2b:	c1 e0 02             	shl    $0x2,%eax
c0112c2e:	83 ec 0c             	sub    $0xc,%esp
c0112c31:	50                   	push   %eax
c0112c32:	e8 b9 7b ff ff       	call   c010a7f0 <kmalloc>
c0112c37:	83 c4 10             	add    $0x10,%esp
c0112c3a:	89 45 f4             	mov    %eax,-0xc(%ebp)
c0112c3d:	8b 45 08             	mov    0x8(%ebp),%eax
c0112c40:	8b 40 08             	mov    0x8(%eax),%eax
c0112c43:	c1 e0 02             	shl    $0x2,%eax
c0112c46:	83 ec 04             	sub    $0x4,%esp
c0112c49:	50                   	push   %eax
c0112c4a:	6a 00                	push   $0x0
c0112c4c:	ff 75 f4             	pushl  -0xc(%ebp)
c0112c4f:	e8 14 f5 ff ff       	call   c0112168 <memset>
c0112c54:	83 c4 10             	add    $0x10,%esp
c0112c57:	8b 45 08             	mov    0x8(%ebp),%eax
c0112c5a:	8b 40 04             	mov    0x4(%eax),%eax
c0112c5d:	8d 14 85 00 00 00 00 	lea    0x0(,%eax,4),%edx
c0112c64:	8b 45 08             	mov    0x8(%ebp),%eax
c0112c67:	8b 00                	mov    (%eax),%eax
c0112c69:	83 ec 04             	sub    $0x4,%esp
c0112c6c:	52                   	push   %edx
c0112c6d:	50                   	push   %eax
c0112c6e:	ff 75 f4             	pushl  -0xc(%ebp)
c0112c71:	e8 e0 f4 ff ff       	call   c0112156 <memcpy>
c0112c76:	83 c4 10             	add    $0x10,%esp
c0112c79:	8b 45 08             	mov    0x8(%ebp),%eax
c0112c7c:	8b 00                	mov    (%eax),%eax
c0112c7e:	83 ec 0c             	sub    $0xc,%esp
c0112c81:	50                   	push   %eax
c0112c82:	e8 55 7c ff ff       	call   c010a8dc <kfree>
c0112c87:	83 c4 10             	add    $0x10,%esp
c0112c8a:	8b 45 08             	mov    0x8(%ebp),%eax
c0112c8d:	8b 55 f4             	mov    -0xc(%ebp),%edx
c0112c90:	89 10                	mov    %edx,(%eax)
c0112c92:	eb 01                	jmp    c0112c95 <vect_grow+0xa1>
c0112c94:	90                   	nop
c0112c95:	c9                   	leave  
c0112c96:	c3                   	ret    
c0112c97:	66 90                	xchg   %ax,%ax
c0112c99:	66 90                	xchg   %ax,%ax
c0112c9b:	66 90                	xchg   %ax,%ax
c0112c9d:	66 90                	xchg   %ax,%ax
c0112c9f:	90                   	nop

c0112ca0 <__udivdi3>:
c0112ca0:	55                   	push   %ebp
c0112ca1:	89 e5                	mov    %esp,%ebp
c0112ca3:	57                   	push   %edi
c0112ca4:	56                   	push   %esi
c0112ca5:	53                   	push   %ebx
c0112ca6:	83 ec 1c             	sub    $0x1c,%esp
c0112ca9:	8b 45 08             	mov    0x8(%ebp),%eax
c0112cac:	8b 55 14             	mov    0x14(%ebp),%edx
c0112caf:	8b 75 0c             	mov    0xc(%ebp),%esi
c0112cb2:	8b 5d 10             	mov    0x10(%ebp),%ebx
c0112cb5:	89 45 e4             	mov    %eax,-0x1c(%ebp)
c0112cb8:	85 d2                	test   %edx,%edx
c0112cba:	75 14                	jne    c0112cd0 <__udivdi3+0x30>
c0112cbc:	39 f3                	cmp    %esi,%ebx
c0112cbe:	76 50                	jbe    c0112d10 <__udivdi3+0x70>
c0112cc0:	31 ff                	xor    %edi,%edi
c0112cc2:	89 f2                	mov    %esi,%edx
c0112cc4:	f7 f3                	div    %ebx
c0112cc6:	89 fa                	mov    %edi,%edx
c0112cc8:	83 c4 1c             	add    $0x1c,%esp
c0112ccb:	5b                   	pop    %ebx
c0112ccc:	5e                   	pop    %esi
c0112ccd:	5f                   	pop    %edi
c0112cce:	5d                   	pop    %ebp
c0112ccf:	c3                   	ret    
c0112cd0:	39 f2                	cmp    %esi,%edx
c0112cd2:	76 1c                	jbe    c0112cf0 <__udivdi3+0x50>
c0112cd4:	31 ff                	xor    %edi,%edi
c0112cd6:	31 c0                	xor    %eax,%eax
c0112cd8:	89 fa                	mov    %edi,%edx
c0112cda:	83 c4 1c             	add    $0x1c,%esp
c0112cdd:	5b                   	pop    %ebx
c0112cde:	5e                   	pop    %esi
c0112cdf:	5f                   	pop    %edi
c0112ce0:	5d                   	pop    %ebp
c0112ce1:	c3                   	ret    
c0112ce2:	8d b4 26 00 00 00 00 	lea    0x0(%esi,%eiz,1),%esi
c0112ce9:	8d b4 26 00 00 00 00 	lea    0x0(%esi,%eiz,1),%esi
c0112cf0:	0f bd fa             	bsr    %edx,%edi
c0112cf3:	83 f7 1f             	xor    $0x1f,%edi
c0112cf6:	75 48                	jne    c0112d40 <__udivdi3+0xa0>
c0112cf8:	39 f2                	cmp    %esi,%edx
c0112cfa:	72 07                	jb     c0112d03 <__udivdi3+0x63>
c0112cfc:	31 c0                	xor    %eax,%eax
c0112cfe:	3b 5d e4             	cmp    -0x1c(%ebp),%ebx
c0112d01:	77 d5                	ja     c0112cd8 <__udivdi3+0x38>
c0112d03:	b8 01 00 00 00       	mov    $0x1,%eax
c0112d08:	eb ce                	jmp    c0112cd8 <__udivdi3+0x38>
c0112d0a:	8d b6 00 00 00 00    	lea    0x0(%esi),%esi
c0112d10:	89 d9                	mov    %ebx,%ecx
c0112d12:	85 db                	test   %ebx,%ebx
c0112d14:	75 0b                	jne    c0112d21 <__udivdi3+0x81>
c0112d16:	b8 01 00 00 00       	mov    $0x1,%eax
c0112d1b:	31 d2                	xor    %edx,%edx
c0112d1d:	f7 f3                	div    %ebx
c0112d1f:	89 c1                	mov    %eax,%ecx
c0112d21:	31 d2                	xor    %edx,%edx
c0112d23:	89 f0                	mov    %esi,%eax
c0112d25:	f7 f1                	div    %ecx
c0112d27:	89 c6                	mov    %eax,%esi
c0112d29:	8b 45 e4             	mov    -0x1c(%ebp),%eax
c0112d2c:	89 f7                	mov    %esi,%edi
c0112d2e:	f7 f1                	div    %ecx
c0112d30:	89 fa                	mov    %edi,%edx
c0112d32:	83 c4 1c             	add    $0x1c,%esp
c0112d35:	5b                   	pop    %ebx
c0112d36:	5e                   	pop    %esi
c0112d37:	5f                   	pop    %edi
c0112d38:	5d                   	pop    %ebp
c0112d39:	c3                   	ret    
c0112d3a:	8d b6 00 00 00 00    	lea    0x0(%esi),%esi
c0112d40:	89 f9                	mov    %edi,%ecx
c0112d42:	b8 20 00 00 00       	mov    $0x20,%eax
c0112d47:	29 f8                	sub    %edi,%eax
c0112d49:	d3 e2                	shl    %cl,%edx
c0112d4b:	89 55 e0             	mov    %edx,-0x20(%ebp)
c0112d4e:	89 c1                	mov    %eax,%ecx
c0112d50:	89 da                	mov    %ebx,%edx
c0112d52:	d3 ea                	shr    %cl,%edx
c0112d54:	8b 4d e0             	mov    -0x20(%ebp),%ecx
c0112d57:	09 d1                	or     %edx,%ecx
c0112d59:	89 f2                	mov    %esi,%edx
c0112d5b:	89 4d e0             	mov    %ecx,-0x20(%ebp)
c0112d5e:	89 f9                	mov    %edi,%ecx
c0112d60:	d3 e3                	shl    %cl,%ebx
c0112d62:	89 c1                	mov    %eax,%ecx
c0112d64:	89 5d dc             	mov    %ebx,-0x24(%ebp)
c0112d67:	d3 ea                	shr    %cl,%edx
c0112d69:	8b 5d e4             	mov    -0x1c(%ebp),%ebx
c0112d6c:	89 f9                	mov    %edi,%ecx
c0112d6e:	d3 e6                	shl    %cl,%esi
c0112d70:	89 c1                	mov    %eax,%ecx
c0112d72:	d3 eb                	shr    %cl,%ebx
c0112d74:	09 de                	or     %ebx,%esi
c0112d76:	89 f0                	mov    %esi,%eax
c0112d78:	f7 75 e0             	divl   -0x20(%ebp)
c0112d7b:	89 d6                	mov    %edx,%esi
c0112d7d:	89 c3                	mov    %eax,%ebx
c0112d7f:	f7 65 dc             	mull   -0x24(%ebp)
c0112d82:	89 55 e0             	mov    %edx,-0x20(%ebp)
c0112d85:	39 d6                	cmp    %edx,%esi
c0112d87:	72 27                	jb     c0112db0 <__udivdi3+0x110>
c0112d89:	8b 55 e4             	mov    -0x1c(%ebp),%edx
c0112d8c:	89 f9                	mov    %edi,%ecx
c0112d8e:	d3 e2                	shl    %cl,%edx
c0112d90:	39 c2                	cmp    %eax,%edx
c0112d92:	73 05                	jae    c0112d99 <__udivdi3+0xf9>
c0112d94:	3b 75 e0             	cmp    -0x20(%ebp),%esi
c0112d97:	74 17                	je     c0112db0 <__udivdi3+0x110>
c0112d99:	89 d8                	mov    %ebx,%eax
c0112d9b:	31 ff                	xor    %edi,%edi
c0112d9d:	e9 36 ff ff ff       	jmp    c0112cd8 <__udivdi3+0x38>
c0112da2:	8d b4 26 00 00 00 00 	lea    0x0(%esi,%eiz,1),%esi
c0112da9:	8d b4 26 00 00 00 00 	lea    0x0(%esi,%eiz,1),%esi
c0112db0:	8d 43 ff             	lea    -0x1(%ebx),%eax
c0112db3:	31 ff                	xor    %edi,%edi
c0112db5:	e9 1e ff ff ff       	jmp    c0112cd8 <__udivdi3+0x38>
c0112dba:	66 90                	xchg   %ax,%ax
c0112dbc:	66 90                	xchg   %ax,%ax
c0112dbe:	66 90                	xchg   %ax,%ax

c0112dc0 <__umoddi3>:
c0112dc0:	55                   	push   %ebp
c0112dc1:	89 e5                	mov    %esp,%ebp
c0112dc3:	57                   	push   %edi
c0112dc4:	56                   	push   %esi
c0112dc5:	53                   	push   %ebx
c0112dc6:	83 ec 2c             	sub    $0x2c,%esp
c0112dc9:	8b 55 14             	mov    0x14(%ebp),%edx
c0112dcc:	8b 75 08             	mov    0x8(%ebp),%esi
c0112dcf:	8b 5d 0c             	mov    0xc(%ebp),%ebx
c0112dd2:	8b 7d 10             	mov    0x10(%ebp),%edi
c0112dd5:	85 d2                	test   %edx,%edx
c0112dd7:	75 27                	jne    c0112e00 <__umoddi3+0x40>
c0112dd9:	39 df                	cmp    %ebx,%edi
c0112ddb:	76 43                	jbe    c0112e20 <__umoddi3+0x60>
c0112ddd:	89 f0                	mov    %esi,%eax
c0112ddf:	89 da                	mov    %ebx,%edx
c0112de1:	f7 f7                	div    %edi
c0112de3:	89 d6                	mov    %edx,%esi
c0112de5:	31 d2                	xor    %edx,%edx
c0112de7:	89 f0                	mov    %esi,%eax
c0112de9:	83 c4 2c             	add    $0x2c,%esp
c0112dec:	5b                   	pop    %ebx
c0112ded:	5e                   	pop    %esi
c0112dee:	5f                   	pop    %edi
c0112def:	5d                   	pop    %ebp
c0112df0:	c3                   	ret    
c0112df1:	8d b4 26 00 00 00 00 	lea    0x0(%esi,%eiz,1),%esi
c0112df8:	8d b4 26 00 00 00 00 	lea    0x0(%esi,%eiz,1),%esi
c0112dff:	90                   	nop
c0112e00:	89 75 e0             	mov    %esi,-0x20(%ebp)
c0112e03:	39 da                	cmp    %ebx,%edx
c0112e05:	76 49                	jbe    c0112e50 <__umoddi3+0x90>
c0112e07:	89 da                	mov    %ebx,%edx
c0112e09:	89 f0                	mov    %esi,%eax
c0112e0b:	83 c4 2c             	add    $0x2c,%esp
c0112e0e:	5b                   	pop    %ebx
c0112e0f:	5e                   	pop    %esi
c0112e10:	5f                   	pop    %edi
c0112e11:	5d                   	pop    %ebp
c0112e12:	c3                   	ret    
c0112e13:	8d b4 26 00 00 00 00 	lea    0x0(%esi,%eiz,1),%esi
c0112e1a:	8d b6 00 00 00 00    	lea    0x0(%esi),%esi
c0112e20:	89 f9                	mov    %edi,%ecx
c0112e22:	85 ff                	test   %edi,%edi
c0112e24:	75 0b                	jne    c0112e31 <__umoddi3+0x71>
c0112e26:	b8 01 00 00 00       	mov    $0x1,%eax
c0112e2b:	31 d2                	xor    %edx,%edx
c0112e2d:	f7 f7                	div    %edi
c0112e2f:	89 c1                	mov    %eax,%ecx
c0112e31:	89 d8                	mov    %ebx,%eax
c0112e33:	31 d2                	xor    %edx,%edx
c0112e35:	f7 f1                	div    %ecx
c0112e37:	89 f0                	mov    %esi,%eax
c0112e39:	f7 f1                	div    %ecx
c0112e3b:	89 d6                	mov    %edx,%esi
c0112e3d:	31 d2                	xor    %edx,%edx
c0112e3f:	eb a6                	jmp    c0112de7 <__umoddi3+0x27>
c0112e41:	8d b4 26 00 00 00 00 	lea    0x0(%esi,%eiz,1),%esi
c0112e48:	8d b4 26 00 00 00 00 	lea    0x0(%esi,%eiz,1),%esi
c0112e4f:	90                   	nop
c0112e50:	0f bd ca             	bsr    %edx,%ecx
c0112e53:	83 f1 1f             	xor    $0x1f,%ecx
c0112e56:	89 4d e4             	mov    %ecx,-0x1c(%ebp)
c0112e59:	75 25                	jne    c0112e80 <__umoddi3+0xc0>
c0112e5b:	39 da                	cmp    %ebx,%edx
c0112e5d:	0f 82 ad 00 00 00    	jb     c0112f10 <__umoddi3+0x150>
c0112e63:	89 d8                	mov    %ebx,%eax
c0112e65:	39 f7                	cmp    %esi,%edi
c0112e67:	0f 86 a3 00 00 00    	jbe    c0112f10 <__umoddi3+0x150>
c0112e6d:	8b 75 e0             	mov    -0x20(%ebp),%esi
c0112e70:	89 c2                	mov    %eax,%edx
c0112e72:	89 f0                	mov    %esi,%eax
c0112e74:	83 c4 2c             	add    $0x2c,%esp
c0112e77:	5b                   	pop    %ebx
c0112e78:	5e                   	pop    %esi
c0112e79:	5f                   	pop    %edi
c0112e7a:	5d                   	pop    %ebp
c0112e7b:	c3                   	ret    
c0112e7c:	8d 74 26 00          	lea    0x0(%esi,%eiz,1),%esi
c0112e80:	8b 4d e4             	mov    -0x1c(%ebp),%ecx
c0112e83:	b8 20 00 00 00       	mov    $0x20,%eax
c0112e88:	29 c8                	sub    %ecx,%eax
c0112e8a:	d3 e2                	shl    %cl,%edx
c0112e8c:	89 55 dc             	mov    %edx,-0x24(%ebp)
c0112e8f:	89 c1                	mov    %eax,%ecx
c0112e91:	89 fa                	mov    %edi,%edx
c0112e93:	89 45 e0             	mov    %eax,-0x20(%ebp)
c0112e96:	8b 45 dc             	mov    -0x24(%ebp),%eax
c0112e99:	d3 ea                	shr    %cl,%edx
c0112e9b:	09 d0                	or     %edx,%eax
c0112e9d:	8b 55 e0             	mov    -0x20(%ebp),%edx
c0112ea0:	89 45 dc             	mov    %eax,-0x24(%ebp)
c0112ea3:	8b 45 e4             	mov    -0x1c(%ebp),%eax
c0112ea6:	89 c1                	mov    %eax,%ecx
c0112ea8:	d3 e7                	shl    %cl,%edi
c0112eaa:	89 d1                	mov    %edx,%ecx
c0112eac:	89 7d d8             	mov    %edi,-0x28(%ebp)
c0112eaf:	89 df                	mov    %ebx,%edi
c0112eb1:	d3 ef                	shr    %cl,%edi
c0112eb3:	89 c1                	mov    %eax,%ecx
c0112eb5:	89 f0                	mov    %esi,%eax
c0112eb7:	d3 e3                	shl    %cl,%ebx
c0112eb9:	89 d1                	mov    %edx,%ecx
c0112ebb:	89 fa                	mov    %edi,%edx
c0112ebd:	d3 e8                	shr    %cl,%eax
c0112ebf:	0f b6 4d e4          	movzbl -0x1c(%ebp),%ecx
c0112ec3:	09 d8                	or     %ebx,%eax
c0112ec5:	d3 e6                	shl    %cl,%esi
c0112ec7:	f7 75 dc             	divl   -0x24(%ebp)
c0112eca:	89 d3                	mov    %edx,%ebx
c0112ecc:	89 75 d4             	mov    %esi,-0x2c(%ebp)
c0112ecf:	89 f1                	mov    %esi,%ecx
c0112ed1:	f7 65 d8             	mull   -0x28(%ebp)
c0112ed4:	89 c6                	mov    %eax,%esi
c0112ed6:	89 d7                	mov    %edx,%edi
c0112ed8:	39 d3                	cmp    %edx,%ebx
c0112eda:	72 06                	jb     c0112ee2 <__umoddi3+0x122>
c0112edc:	75 0e                	jne    c0112eec <__umoddi3+0x12c>
c0112ede:	39 c1                	cmp    %eax,%ecx
c0112ee0:	73 0a                	jae    c0112eec <__umoddi3+0x12c>
c0112ee2:	2b 45 d8             	sub    -0x28(%ebp),%eax
c0112ee5:	1b 55 dc             	sbb    -0x24(%ebp),%edx
c0112ee8:	89 d7                	mov    %edx,%edi
c0112eea:	89 c6                	mov    %eax,%esi
c0112eec:	0f b6 4d e0          	movzbl -0x20(%ebp),%ecx
c0112ef0:	8b 45 d4             	mov    -0x2c(%ebp),%eax
c0112ef3:	29 f0                	sub    %esi,%eax
c0112ef5:	19 fb                	sbb    %edi,%ebx
c0112ef7:	8b 7d e4             	mov    -0x1c(%ebp),%edi
c0112efa:	89 de                	mov    %ebx,%esi
c0112efc:	d3 e6                	shl    %cl,%esi
c0112efe:	89 f9                	mov    %edi,%ecx
c0112f00:	d3 e8                	shr    %cl,%eax
c0112f02:	d3 eb                	shr    %cl,%ebx
c0112f04:	09 c6                	or     %eax,%esi
c0112f06:	e9 fc fe ff ff       	jmp    c0112e07 <__umoddi3+0x47>
c0112f0b:	8d 74 26 00          	lea    0x0(%esi,%eiz,1),%esi
c0112f0f:	90                   	nop
c0112f10:	29 fe                	sub    %edi,%esi
c0112f12:	19 d3                	sbb    %edx,%ebx
c0112f14:	89 75 e0             	mov    %esi,-0x20(%ebp)
c0112f17:	89 d8                	mov    %ebx,%eax
c0112f19:	e9 4f ff ff ff       	jmp    c0112e6d <__umoddi3+0xad>
c0112f1e:	66 90                	xchg   %ax,%ax
c0112f20:	66 90                	xchg   %ax,%ax
c0112f22:	66 90                	xchg   %ax,%ax
c0112f24:	66 90                	xchg   %ax,%ax
c0112f26:	66 90                	xchg   %ax,%ax
c0112f28:	66 90                	xchg   %ax,%ax
c0112f2a:	66 90                	xchg   %ax,%ax
c0112f2c:	66 90                	xchg   %ax,%ax
c0112f2e:	66 90                	xchg   %ax,%ax
c0112f30:	66 90                	xchg   %ax,%ax
c0112f32:	66 90                	xchg   %ax,%ax
c0112f34:	66 90                	xchg   %ax,%ax
c0112f36:	66 90                	xchg   %ax,%ax
c0112f38:	66 90                	xchg   %ax,%ax
c0112f3a:	66 90                	xchg   %ax,%ax
c0112f3c:	66 90                	xchg   %ax,%ax
c0112f3e:	66 90                	xchg   %ax,%ax
c0112f40:	66 90                	xchg   %ax,%ax
c0112f42:	66 90                	xchg   %ax,%ax
c0112f44:	66 90                	xchg   %ax,%ax
c0112f46:	66 90                	xchg   %ax,%ax
c0112f48:	66 90                	xchg   %ax,%ax
c0112f4a:	66 90                	xchg   %ax,%ax
c0112f4c:	66 90                	xchg   %ax,%ax
c0112f4e:	66 90                	xchg   %ax,%ax
c0112f50:	66 90                	xchg   %ax,%ax
c0112f52:	66 90                	xchg   %ax,%ax
c0112f54:	66 90                	xchg   %ax,%ax
c0112f56:	66 90                	xchg   %ax,%ax
c0112f58:	66 90                	xchg   %ax,%ax
c0112f5a:	66 90                	xchg   %ax,%ax
c0112f5c:	66 90                	xchg   %ax,%ax
c0112f5e:	66 90                	xchg   %ax,%ax
c0112f60:	66 90                	xchg   %ax,%ax
c0112f62:	66 90                	xchg   %ax,%ax
c0112f64:	66 90                	xchg   %ax,%ax
c0112f66:	66 90                	xchg   %ax,%ax
c0112f68:	66 90                	xchg   %ax,%ax
c0112f6a:	66 90                	xchg   %ax,%ax
c0112f6c:	66 90                	xchg   %ax,%ax
c0112f6e:	66 90                	xchg   %ax,%ax
c0112f70:	66 90                	xchg   %ax,%ax
c0112f72:	66 90                	xchg   %ax,%ax
c0112f74:	66 90                	xchg   %ax,%ax
c0112f76:	66 90                	xchg   %ax,%ax
c0112f78:	66 90                	xchg   %ax,%ax
c0112f7a:	66 90                	xchg   %ax,%ax
c0112f7c:	66 90                	xchg   %ax,%ax
c0112f7e:	66 90                	xchg   %ax,%ax
c0112f80:	66 90                	xchg   %ax,%ax
c0112f82:	66 90                	xchg   %ax,%ax
c0112f84:	66 90                	xchg   %ax,%ax
c0112f86:	66 90                	xchg   %ax,%ax
c0112f88:	66 90                	xchg   %ax,%ax
c0112f8a:	66 90                	xchg   %ax,%ax
c0112f8c:	66 90                	xchg   %ax,%ax
c0112f8e:	66 90                	xchg   %ax,%ax
c0112f90:	66 90                	xchg   %ax,%ax
c0112f92:	66 90                	xchg   %ax,%ax
c0112f94:	66 90                	xchg   %ax,%ax
c0112f96:	66 90                	xchg   %ax,%ax
c0112f98:	66 90                	xchg   %ax,%ax
c0112f9a:	66 90                	xchg   %ax,%ax
c0112f9c:	66 90                	xchg   %ax,%ax
c0112f9e:	66 90                	xchg   %ax,%ax
c0112fa0:	66 90                	xchg   %ax,%ax
c0112fa2:	66 90                	xchg   %ax,%ax
c0112fa4:	66 90                	xchg   %ax,%ax
c0112fa6:	66 90                	xchg   %ax,%ax
c0112fa8:	66 90                	xchg   %ax,%ax
c0112faa:	66 90                	xchg   %ax,%ax
c0112fac:	66 90                	xchg   %ax,%ax
c0112fae:	66 90                	xchg   %ax,%ax
c0112fb0:	66 90                	xchg   %ax,%ax
c0112fb2:	66 90                	xchg   %ax,%ax
c0112fb4:	66 90                	xchg   %ax,%ax
c0112fb6:	66 90                	xchg   %ax,%ax
c0112fb8:	66 90                	xchg   %ax,%ax
c0112fba:	66 90                	xchg   %ax,%ax
c0112fbc:	66 90                	xchg   %ax,%ax
c0112fbe:	66 90                	xchg   %ax,%ax
c0112fc0:	66 90                	xchg   %ax,%ax
c0112fc2:	66 90                	xchg   %ax,%ax
c0112fc4:	66 90                	xchg   %ax,%ax
c0112fc6:	66 90                	xchg   %ax,%ax
c0112fc8:	66 90                	xchg   %ax,%ax
c0112fca:	66 90                	xchg   %ax,%ax
c0112fcc:	66 90                	xchg   %ax,%ax
c0112fce:	66 90                	xchg   %ax,%ax
c0112fd0:	66 90                	xchg   %ax,%ax
c0112fd2:	66 90                	xchg   %ax,%ax
c0112fd4:	66 90                	xchg   %ax,%ax
c0112fd6:	66 90                	xchg   %ax,%ax
c0112fd8:	66 90                	xchg   %ax,%ax
c0112fda:	66 90                	xchg   %ax,%ax
c0112fdc:	66 90                	xchg   %ax,%ax
c0112fde:	66 90                	xchg   %ax,%ax
c0112fe0:	66 90                	xchg   %ax,%ax
c0112fe2:	66 90                	xchg   %ax,%ax
c0112fe4:	66 90                	xchg   %ax,%ax
c0112fe6:	66 90                	xchg   %ax,%ax
c0112fe8:	66 90                	xchg   %ax,%ax
c0112fea:	66 90                	xchg   %ax,%ax
c0112fec:	66 90                	xchg   %ax,%ax
c0112fee:	66 90                	xchg   %ax,%ax
c0112ff0:	66 90                	xchg   %ax,%ax
c0112ff2:	66 90                	xchg   %ax,%ax
c0112ff4:	66 90                	xchg   %ax,%ax
c0112ff6:	66 90                	xchg   %ax,%ax
c0112ff8:	66 90                	xchg   %ax,%ax
c0112ffa:	66 90                	xchg   %ax,%ax
c0112ffc:	66 90                	xchg   %ax,%ax
c0112ffe:	66 90                	xchg   %ax,%ax
